   1               		.file	"c-motion.c"
   2               	__SREG__ = 0x3f
   3               	__SP_H__ = 0x3e
   4               	__SP_L__ = 0x3d
   5               	__CCP__  = 0x34
   6               	__tmp_reg__ = 0
   7               	__zero_reg__ = 1
   9               		.text
  10               	.Ltext0:
 220               	.global	PMDGetStatus
 222               	PMDGetStatus:
   1:C:/Jarboter_V_2_1/Firmware/Interface_uC_PMD/C/c-motion.c **** //  c-motion.c -- C-Motion API implementation
   2:C:/Jarboter_V_2_1/Firmware/Interface_uC_PMD/C/c-motion.c **** //
   3:C:/Jarboter_V_2_1/Firmware/Interface_uC_PMD/C/c-motion.c **** //  Performance Motion Devices, Inc.
   4:C:/Jarboter_V_2_1/Firmware/Interface_uC_PMD/C/c-motion.c **** //
   5:C:/Jarboter_V_2_1/Firmware/Interface_uC_PMD/C/c-motion.c **** 
   6:C:/Jarboter_V_2_1/Firmware/Interface_uC_PMD/C/c-motion.c **** #include <avr/io.h>
   7:C:/Jarboter_V_2_1/Firmware/Interface_uC_PMD/C/c-motion.c **** #include "c-motion.h"
   8:C:/Jarboter_V_2_1/Firmware/Interface_uC_PMD/C/c-motion.c **** 
   9:C:/Jarboter_V_2_1/Firmware/Interface_uC_PMD/C/c-motion.c **** 
  10:C:/Jarboter_V_2_1/Firmware/Interface_uC_PMD/C/c-motion.c **** 
  11:C:/Jarboter_V_2_1/Firmware/Interface_uC_PMD/C/c-motion.c **** // Profile Generation
  12:C:/Jarboter_V_2_1/Firmware/Interface_uC_PMD/C/c-motion.c **** PMDresult PMDSetProfileMode(PMDAxisHandle* axis_handle, PMDuint16 mode)
  13:C:/Jarboter_V_2_1/Firmware/Interface_uC_PMD/C/c-motion.c **** {
  14:C:/Jarboter_V_2_1/Firmware/Interface_uC_PMD/C/c-motion.c **** 	return SendCommandWord(axis_handle, PMDOPSetProfileMode, mode);
  15:C:/Jarboter_V_2_1/Firmware/Interface_uC_PMD/C/c-motion.c **** }
  16:C:/Jarboter_V_2_1/Firmware/Interface_uC_PMD/C/c-motion.c **** 
  17:C:/Jarboter_V_2_1/Firmware/Interface_uC_PMD/C/c-motion.c **** PMDresult PMDGetProfileMode(PMDAxisHandle* axis_handle, PMDuint16* mode)
  18:C:/Jarboter_V_2_1/Firmware/Interface_uC_PMD/C/c-motion.c **** {
  19:C:/Jarboter_V_2_1/Firmware/Interface_uC_PMD/C/c-motion.c **** 	return SendCommandGetWord(axis_handle, PMDOPGetProfileMode, mode);
  20:C:/Jarboter_V_2_1/Firmware/Interface_uC_PMD/C/c-motion.c **** }
  21:C:/Jarboter_V_2_1/Firmware/Interface_uC_PMD/C/c-motion.c **** 
  22:C:/Jarboter_V_2_1/Firmware/Interface_uC_PMD/C/c-motion.c **** PMDresult PMDSetPosition(PMDAxisHandle* axis_handle, PMDint32 position)
  23:C:/Jarboter_V_2_1/Firmware/Interface_uC_PMD/C/c-motion.c **** {
  24:C:/Jarboter_V_2_1/Firmware/Interface_uC_PMD/C/c-motion.c **** 	return SendCommandLong(axis_handle, PMDOPSetPosition, position);
  25:C:/Jarboter_V_2_1/Firmware/Interface_uC_PMD/C/c-motion.c **** }
  26:C:/Jarboter_V_2_1/Firmware/Interface_uC_PMD/C/c-motion.c **** 
  27:C:/Jarboter_V_2_1/Firmware/Interface_uC_PMD/C/c-motion.c **** PMDresult PMDGetPosition(PMDAxisHandle* axis_handle, PMDint32* position)
  28:C:/Jarboter_V_2_1/Firmware/Interface_uC_PMD/C/c-motion.c **** {
  29:C:/Jarboter_V_2_1/Firmware/Interface_uC_PMD/C/c-motion.c **** 	return SendCommandGetLong(axis_handle, PMDOPGetPosition, (PMDuint32*)position);
  30:C:/Jarboter_V_2_1/Firmware/Interface_uC_PMD/C/c-motion.c **** }
  31:C:/Jarboter_V_2_1/Firmware/Interface_uC_PMD/C/c-motion.c **** 
  32:C:/Jarboter_V_2_1/Firmware/Interface_uC_PMD/C/c-motion.c **** PMDresult PMDSetVelocity(PMDAxisHandle* axis_handle, PMDint32 velocity)
  33:C:/Jarboter_V_2_1/Firmware/Interface_uC_PMD/C/c-motion.c **** {
  34:C:/Jarboter_V_2_1/Firmware/Interface_uC_PMD/C/c-motion.c **** 	return SendCommandLong(axis_handle, PMDOPSetVelocity, velocity);
  35:C:/Jarboter_V_2_1/Firmware/Interface_uC_PMD/C/c-motion.c **** }
  36:C:/Jarboter_V_2_1/Firmware/Interface_uC_PMD/C/c-motion.c **** 
  37:C:/Jarboter_V_2_1/Firmware/Interface_uC_PMD/C/c-motion.c **** PMDresult PMDGetVelocity(PMDAxisHandle* axis_handle, PMDint32* velocity)
  38:C:/Jarboter_V_2_1/Firmware/Interface_uC_PMD/C/c-motion.c **** {
  39:C:/Jarboter_V_2_1/Firmware/Interface_uC_PMD/C/c-motion.c **** 	return SendCommandGetLong(axis_handle, PMDOPGetVelocity, (PMDuint32*)velocity);
  40:C:/Jarboter_V_2_1/Firmware/Interface_uC_PMD/C/c-motion.c **** }
  41:C:/Jarboter_V_2_1/Firmware/Interface_uC_PMD/C/c-motion.c **** 
  42:C:/Jarboter_V_2_1/Firmware/Interface_uC_PMD/C/c-motion.c **** PMDresult PMDSetStartVelocity(PMDAxisHandle* axis_handle, PMDuint32 velocity)
  43:C:/Jarboter_V_2_1/Firmware/Interface_uC_PMD/C/c-motion.c **** {
  44:C:/Jarboter_V_2_1/Firmware/Interface_uC_PMD/C/c-motion.c **** 	return SendCommandLong(axis_handle, PMDOPSetStartVelocity, velocity);
  45:C:/Jarboter_V_2_1/Firmware/Interface_uC_PMD/C/c-motion.c **** }
  46:C:/Jarboter_V_2_1/Firmware/Interface_uC_PMD/C/c-motion.c **** 
  47:C:/Jarboter_V_2_1/Firmware/Interface_uC_PMD/C/c-motion.c **** PMDresult PMDGetStartVelocity(PMDAxisHandle* axis_handle, PMDuint32* velocity)
  48:C:/Jarboter_V_2_1/Firmware/Interface_uC_PMD/C/c-motion.c **** {
  49:C:/Jarboter_V_2_1/Firmware/Interface_uC_PMD/C/c-motion.c **** 	return SendCommandGetLong(axis_handle, PMDOPGetStartVelocity, velocity);
  50:C:/Jarboter_V_2_1/Firmware/Interface_uC_PMD/C/c-motion.c **** }
  51:C:/Jarboter_V_2_1/Firmware/Interface_uC_PMD/C/c-motion.c **** 
  52:C:/Jarboter_V_2_1/Firmware/Interface_uC_PMD/C/c-motion.c **** PMDresult PMDSetAcceleration(PMDAxisHandle* axis_handle, PMDuint32 acceleration)
  53:C:/Jarboter_V_2_1/Firmware/Interface_uC_PMD/C/c-motion.c **** {
  54:C:/Jarboter_V_2_1/Firmware/Interface_uC_PMD/C/c-motion.c **** 	return SendCommandLong(axis_handle, PMDOPSetAcceleration, acceleration);
  55:C:/Jarboter_V_2_1/Firmware/Interface_uC_PMD/C/c-motion.c **** }
  56:C:/Jarboter_V_2_1/Firmware/Interface_uC_PMD/C/c-motion.c **** 
  57:C:/Jarboter_V_2_1/Firmware/Interface_uC_PMD/C/c-motion.c **** PMDresult PMDGetAcceleration(PMDAxisHandle* axis_handle, PMDuint32* acceleration)
  58:C:/Jarboter_V_2_1/Firmware/Interface_uC_PMD/C/c-motion.c **** {
  59:C:/Jarboter_V_2_1/Firmware/Interface_uC_PMD/C/c-motion.c **** 	return SendCommandGetLong(axis_handle, PMDOPGetAcceleration, acceleration);
  60:C:/Jarboter_V_2_1/Firmware/Interface_uC_PMD/C/c-motion.c **** }
  61:C:/Jarboter_V_2_1/Firmware/Interface_uC_PMD/C/c-motion.c **** 
  62:C:/Jarboter_V_2_1/Firmware/Interface_uC_PMD/C/c-motion.c **** PMDresult PMDSetDeceleration(PMDAxisHandle* axis_handle, PMDuint32 deceleration)
  63:C:/Jarboter_V_2_1/Firmware/Interface_uC_PMD/C/c-motion.c **** {
  64:C:/Jarboter_V_2_1/Firmware/Interface_uC_PMD/C/c-motion.c **** 	return SendCommandLong(axis_handle, PMDOPSetDeceleration, deceleration);
  65:C:/Jarboter_V_2_1/Firmware/Interface_uC_PMD/C/c-motion.c **** }
  66:C:/Jarboter_V_2_1/Firmware/Interface_uC_PMD/C/c-motion.c **** 
  67:C:/Jarboter_V_2_1/Firmware/Interface_uC_PMD/C/c-motion.c **** PMDresult PMDGetDeceleration(PMDAxisHandle* axis_handle, PMDuint32* deceleration)
  68:C:/Jarboter_V_2_1/Firmware/Interface_uC_PMD/C/c-motion.c **** {
  69:C:/Jarboter_V_2_1/Firmware/Interface_uC_PMD/C/c-motion.c **** 	return SendCommandGetLong(axis_handle, PMDOPGetDeceleration, deceleration);
  70:C:/Jarboter_V_2_1/Firmware/Interface_uC_PMD/C/c-motion.c **** }
  71:C:/Jarboter_V_2_1/Firmware/Interface_uC_PMD/C/c-motion.c **** 
  72:C:/Jarboter_V_2_1/Firmware/Interface_uC_PMD/C/c-motion.c **** PMDresult PMDSetJerk(PMDAxisHandle* axis_handle, PMDuint32 jerk)
  73:C:/Jarboter_V_2_1/Firmware/Interface_uC_PMD/C/c-motion.c **** {
  74:C:/Jarboter_V_2_1/Firmware/Interface_uC_PMD/C/c-motion.c **** 	return SendCommandLong(axis_handle, PMDOPSetJerk, jerk);
  75:C:/Jarboter_V_2_1/Firmware/Interface_uC_PMD/C/c-motion.c **** }
  76:C:/Jarboter_V_2_1/Firmware/Interface_uC_PMD/C/c-motion.c **** 
  77:C:/Jarboter_V_2_1/Firmware/Interface_uC_PMD/C/c-motion.c **** PMDresult PMDGetJerk(PMDAxisHandle* axis_handle, PMDuint32* jerk)
  78:C:/Jarboter_V_2_1/Firmware/Interface_uC_PMD/C/c-motion.c **** {
  79:C:/Jarboter_V_2_1/Firmware/Interface_uC_PMD/C/c-motion.c **** 	return SendCommandGetLong(axis_handle, PMDOPGetJerk, jerk);
  80:C:/Jarboter_V_2_1/Firmware/Interface_uC_PMD/C/c-motion.c **** }
  81:C:/Jarboter_V_2_1/Firmware/Interface_uC_PMD/C/c-motion.c **** 
  82:C:/Jarboter_V_2_1/Firmware/Interface_uC_PMD/C/c-motion.c **** PMDresult PMDSetGearRatio(PMDAxisHandle* axis_handle, PMDint32 ratio)
  83:C:/Jarboter_V_2_1/Firmware/Interface_uC_PMD/C/c-motion.c **** {
  84:C:/Jarboter_V_2_1/Firmware/Interface_uC_PMD/C/c-motion.c **** 	return SendCommandLong(axis_handle, PMDOPSetGearRatio, (PMDuint32)ratio);
  85:C:/Jarboter_V_2_1/Firmware/Interface_uC_PMD/C/c-motion.c **** }
  86:C:/Jarboter_V_2_1/Firmware/Interface_uC_PMD/C/c-motion.c **** 
  87:C:/Jarboter_V_2_1/Firmware/Interface_uC_PMD/C/c-motion.c **** PMDresult PMDGetGearRatio(PMDAxisHandle* axis_handle, PMDint32* ratio)
  88:C:/Jarboter_V_2_1/Firmware/Interface_uC_PMD/C/c-motion.c **** {
  89:C:/Jarboter_V_2_1/Firmware/Interface_uC_PMD/C/c-motion.c **** 	return SendCommandGetLong(axis_handle, PMDOPGetGearRatio, (PMDuint32*)ratio);
  90:C:/Jarboter_V_2_1/Firmware/Interface_uC_PMD/C/c-motion.c **** }
  91:C:/Jarboter_V_2_1/Firmware/Interface_uC_PMD/C/c-motion.c **** 
  92:C:/Jarboter_V_2_1/Firmware/Interface_uC_PMD/C/c-motion.c **** PMDresult PMDSetGearMaster(PMDAxisHandle* axis_handle, PMDAxis masterAxis, PMDuint8 source)
  93:C:/Jarboter_V_2_1/Firmware/Interface_uC_PMD/C/c-motion.c **** {
  94:C:/Jarboter_V_2_1/Firmware/Interface_uC_PMD/C/c-motion.c **** 	PMDuint16 value = (PMDuint16)((masterAxis & nibbleMask) | ((source & nibbleMask) << 8));
  95:C:/Jarboter_V_2_1/Firmware/Interface_uC_PMD/C/c-motion.c **** 	return SendCommandWord(axis_handle, PMDOPSetGearMaster, value);
  96:C:/Jarboter_V_2_1/Firmware/Interface_uC_PMD/C/c-motion.c **** }
  97:C:/Jarboter_V_2_1/Firmware/Interface_uC_PMD/C/c-motion.c **** 
  98:C:/Jarboter_V_2_1/Firmware/Interface_uC_PMD/C/c-motion.c **** PMDresult PMDGetGearMaster(PMDAxisHandle* axis_handle, PMDAxis* masterAxis, PMDuint8* source)
  99:C:/Jarboter_V_2_1/Firmware/Interface_uC_PMD/C/c-motion.c **** {
 100:C:/Jarboter_V_2_1/Firmware/Interface_uC_PMD/C/c-motion.c **** 	PMDuint16 result;
 101:C:/Jarboter_V_2_1/Firmware/Interface_uC_PMD/C/c-motion.c **** 	PMDuint16 value;
 102:C:/Jarboter_V_2_1/Firmware/Interface_uC_PMD/C/c-motion.c **** 
 103:C:/Jarboter_V_2_1/Firmware/Interface_uC_PMD/C/c-motion.c **** 	result = SendCommandGetWord(axis_handle, PMDOPGetGearMaster, &value);
 104:C:/Jarboter_V_2_1/Firmware/Interface_uC_PMD/C/c-motion.c **** 	*masterAxis = (PMDAxis)(value & nibbleMask);
 105:C:/Jarboter_V_2_1/Firmware/Interface_uC_PMD/C/c-motion.c **** 	*source = (PMDuint8)((value >> 8) & nibbleMask);
 106:C:/Jarboter_V_2_1/Firmware/Interface_uC_PMD/C/c-motion.c **** 
 107:C:/Jarboter_V_2_1/Firmware/Interface_uC_PMD/C/c-motion.c **** 	return result;
 108:C:/Jarboter_V_2_1/Firmware/Interface_uC_PMD/C/c-motion.c **** }
 109:C:/Jarboter_V_2_1/Firmware/Interface_uC_PMD/C/c-motion.c **** 
 110:C:/Jarboter_V_2_1/Firmware/Interface_uC_PMD/C/c-motion.c **** PMDresult PMDSetStopMode(PMDAxisHandle* axis_handle, PMDuint16 mode)
 111:C:/Jarboter_V_2_1/Firmware/Interface_uC_PMD/C/c-motion.c **** {
 112:C:/Jarboter_V_2_1/Firmware/Interface_uC_PMD/C/c-motion.c **** 	return SendCommandWord(axis_handle, PMDOPSetStopMode, mode);
 113:C:/Jarboter_V_2_1/Firmware/Interface_uC_PMD/C/c-motion.c **** }
 114:C:/Jarboter_V_2_1/Firmware/Interface_uC_PMD/C/c-motion.c **** 
 115:C:/Jarboter_V_2_1/Firmware/Interface_uC_PMD/C/c-motion.c **** PMDresult PMDGetStopMode(PMDAxisHandle* axis_handle, PMDuint16* mode)
 116:C:/Jarboter_V_2_1/Firmware/Interface_uC_PMD/C/c-motion.c **** {
 117:C:/Jarboter_V_2_1/Firmware/Interface_uC_PMD/C/c-motion.c **** 	return SendCommandGetWord(axis_handle, PMDOPGetStopMode, mode);
 118:C:/Jarboter_V_2_1/Firmware/Interface_uC_PMD/C/c-motion.c **** }
 119:C:/Jarboter_V_2_1/Firmware/Interface_uC_PMD/C/c-motion.c **** 
 120:C:/Jarboter_V_2_1/Firmware/Interface_uC_PMD/C/c-motion.c **** PMDresult PMDGetCommandedPosition(PMDAxisHandle* axis_handle, PMDint32* position)
 121:C:/Jarboter_V_2_1/Firmware/Interface_uC_PMD/C/c-motion.c **** {
 122:C:/Jarboter_V_2_1/Firmware/Interface_uC_PMD/C/c-motion.c **** 	return SendCommandGetLong(axis_handle, PMDOPGetCommandedPosition, (PMDuint32*)position);
 123:C:/Jarboter_V_2_1/Firmware/Interface_uC_PMD/C/c-motion.c **** }
 124:C:/Jarboter_V_2_1/Firmware/Interface_uC_PMD/C/c-motion.c **** 
 125:C:/Jarboter_V_2_1/Firmware/Interface_uC_PMD/C/c-motion.c **** PMDresult PMDGetCommandedVelocity(PMDAxisHandle* axis_handle, PMDint32* velocity)
 126:C:/Jarboter_V_2_1/Firmware/Interface_uC_PMD/C/c-motion.c **** {
 127:C:/Jarboter_V_2_1/Firmware/Interface_uC_PMD/C/c-motion.c **** 	return SendCommandGetLong(axis_handle, PMDOPGetCommandedVelocity, (PMDuint32*)velocity);
 128:C:/Jarboter_V_2_1/Firmware/Interface_uC_PMD/C/c-motion.c **** }
 129:C:/Jarboter_V_2_1/Firmware/Interface_uC_PMD/C/c-motion.c **** 
 130:C:/Jarboter_V_2_1/Firmware/Interface_uC_PMD/C/c-motion.c **** PMDresult PMDGetCommandedAcceleration(PMDAxisHandle* axis_handle, PMDint32 *acceleration)
 131:C:/Jarboter_V_2_1/Firmware/Interface_uC_PMD/C/c-motion.c **** {
 132:C:/Jarboter_V_2_1/Firmware/Interface_uC_PMD/C/c-motion.c **** 	return SendCommandGetLong(axis_handle, PMDOPGetCommandedAcceleration, (PMDuint32*)acceleration);
 133:C:/Jarboter_V_2_1/Firmware/Interface_uC_PMD/C/c-motion.c **** }
 134:C:/Jarboter_V_2_1/Firmware/Interface_uC_PMD/C/c-motion.c **** 
 135:C:/Jarboter_V_2_1/Firmware/Interface_uC_PMD/C/c-motion.c **** 
 136:C:/Jarboter_V_2_1/Firmware/Interface_uC_PMD/C/c-motion.c **** // Servo Filter
 137:C:/Jarboter_V_2_1/Firmware/Interface_uC_PMD/C/c-motion.c **** PMDresult PMDSetKp(PMDAxisHandle* axis_handle, PMDuint16 kp)
 138:C:/Jarboter_V_2_1/Firmware/Interface_uC_PMD/C/c-motion.c **** {
 139:C:/Jarboter_V_2_1/Firmware/Interface_uC_PMD/C/c-motion.c **** 	return SendCommandWord(axis_handle, PMDOPSetKp, kp);
 140:C:/Jarboter_V_2_1/Firmware/Interface_uC_PMD/C/c-motion.c **** }
 141:C:/Jarboter_V_2_1/Firmware/Interface_uC_PMD/C/c-motion.c **** 
 142:C:/Jarboter_V_2_1/Firmware/Interface_uC_PMD/C/c-motion.c **** PMDresult PMDGetKp(PMDAxisHandle* axis_handle, PMDuint16* kp)
 143:C:/Jarboter_V_2_1/Firmware/Interface_uC_PMD/C/c-motion.c **** {
 144:C:/Jarboter_V_2_1/Firmware/Interface_uC_PMD/C/c-motion.c **** 	return SendCommandGetWord(axis_handle, PMDOPGetKp, kp);
 145:C:/Jarboter_V_2_1/Firmware/Interface_uC_PMD/C/c-motion.c **** }
 146:C:/Jarboter_V_2_1/Firmware/Interface_uC_PMD/C/c-motion.c **** 
 147:C:/Jarboter_V_2_1/Firmware/Interface_uC_PMD/C/c-motion.c **** PMDresult PMDSetKd(PMDAxisHandle* axis_handle, PMDuint16 kd)
 148:C:/Jarboter_V_2_1/Firmware/Interface_uC_PMD/C/c-motion.c **** {
 149:C:/Jarboter_V_2_1/Firmware/Interface_uC_PMD/C/c-motion.c **** 	return SendCommandWord(axis_handle, PMDOPSetKd, kd);
 150:C:/Jarboter_V_2_1/Firmware/Interface_uC_PMD/C/c-motion.c **** }
 151:C:/Jarboter_V_2_1/Firmware/Interface_uC_PMD/C/c-motion.c **** 
 152:C:/Jarboter_V_2_1/Firmware/Interface_uC_PMD/C/c-motion.c **** PMDresult PMDGetKd(PMDAxisHandle* axis_handle, PMDuint16* kd)
 153:C:/Jarboter_V_2_1/Firmware/Interface_uC_PMD/C/c-motion.c **** {
 154:C:/Jarboter_V_2_1/Firmware/Interface_uC_PMD/C/c-motion.c **** 	return SendCommandGetWord(axis_handle, PMDOPGetKd, kd);
 155:C:/Jarboter_V_2_1/Firmware/Interface_uC_PMD/C/c-motion.c **** }
 156:C:/Jarboter_V_2_1/Firmware/Interface_uC_PMD/C/c-motion.c **** 
 157:C:/Jarboter_V_2_1/Firmware/Interface_uC_PMD/C/c-motion.c **** PMDresult PMDSetKi(PMDAxisHandle* axis_handle, PMDuint16 ki)
 158:C:/Jarboter_V_2_1/Firmware/Interface_uC_PMD/C/c-motion.c **** {
 159:C:/Jarboter_V_2_1/Firmware/Interface_uC_PMD/C/c-motion.c **** 	return SendCommandWord(axis_handle, PMDOPSetKi, ki);
 160:C:/Jarboter_V_2_1/Firmware/Interface_uC_PMD/C/c-motion.c **** }
 161:C:/Jarboter_V_2_1/Firmware/Interface_uC_PMD/C/c-motion.c **** 
 162:C:/Jarboter_V_2_1/Firmware/Interface_uC_PMD/C/c-motion.c **** PMDresult PMDGetKi(PMDAxisHandle* axis_handle, PMDuint16* ki)
 163:C:/Jarboter_V_2_1/Firmware/Interface_uC_PMD/C/c-motion.c **** {
 164:C:/Jarboter_V_2_1/Firmware/Interface_uC_PMD/C/c-motion.c **** 	return SendCommandGetWord(axis_handle, PMDOPGetKi, ki);
 165:C:/Jarboter_V_2_1/Firmware/Interface_uC_PMD/C/c-motion.c **** }
 166:C:/Jarboter_V_2_1/Firmware/Interface_uC_PMD/C/c-motion.c **** 
 167:C:/Jarboter_V_2_1/Firmware/Interface_uC_PMD/C/c-motion.c **** PMDresult PMDSetKvff(PMDAxisHandle* axis_handle, PMDuint16 kvff)
 168:C:/Jarboter_V_2_1/Firmware/Interface_uC_PMD/C/c-motion.c **** {
 169:C:/Jarboter_V_2_1/Firmware/Interface_uC_PMD/C/c-motion.c **** 	return SendCommandWord(axis_handle, PMDOPSetKvff, kvff);
 170:C:/Jarboter_V_2_1/Firmware/Interface_uC_PMD/C/c-motion.c **** }
 171:C:/Jarboter_V_2_1/Firmware/Interface_uC_PMD/C/c-motion.c **** 
 172:C:/Jarboter_V_2_1/Firmware/Interface_uC_PMD/C/c-motion.c **** PMDresult PMDGetKvff(PMDAxisHandle* axis_handle, PMDuint16* kvff)
 173:C:/Jarboter_V_2_1/Firmware/Interface_uC_PMD/C/c-motion.c **** {
 174:C:/Jarboter_V_2_1/Firmware/Interface_uC_PMD/C/c-motion.c **** 	return SendCommandGetWord(axis_handle, PMDOPGetKvff, kvff);
 175:C:/Jarboter_V_2_1/Firmware/Interface_uC_PMD/C/c-motion.c **** }
 176:C:/Jarboter_V_2_1/Firmware/Interface_uC_PMD/C/c-motion.c **** 
 177:C:/Jarboter_V_2_1/Firmware/Interface_uC_PMD/C/c-motion.c **** PMDresult PMDSetKaff(PMDAxisHandle* axis_handle, PMDuint16 kaff)
 178:C:/Jarboter_V_2_1/Firmware/Interface_uC_PMD/C/c-motion.c **** {
 179:C:/Jarboter_V_2_1/Firmware/Interface_uC_PMD/C/c-motion.c **** 	return SendCommandWord(axis_handle, PMDOPSetKaff, kaff);
 180:C:/Jarboter_V_2_1/Firmware/Interface_uC_PMD/C/c-motion.c **** }
 181:C:/Jarboter_V_2_1/Firmware/Interface_uC_PMD/C/c-motion.c **** 
 182:C:/Jarboter_V_2_1/Firmware/Interface_uC_PMD/C/c-motion.c **** PMDresult PMDGetKaff(PMDAxisHandle* axis_handle, PMDuint16* kaff)
 183:C:/Jarboter_V_2_1/Firmware/Interface_uC_PMD/C/c-motion.c **** {
 184:C:/Jarboter_V_2_1/Firmware/Interface_uC_PMD/C/c-motion.c **** 	return SendCommandGetWord(axis_handle, PMDOPGetKaff, kaff);
 185:C:/Jarboter_V_2_1/Firmware/Interface_uC_PMD/C/c-motion.c **** }
 186:C:/Jarboter_V_2_1/Firmware/Interface_uC_PMD/C/c-motion.c **** 
 187:C:/Jarboter_V_2_1/Firmware/Interface_uC_PMD/C/c-motion.c **** PMDresult PMDSetKout(PMDAxisHandle* axis_handle, PMDuint16 kout)
 188:C:/Jarboter_V_2_1/Firmware/Interface_uC_PMD/C/c-motion.c **** {
 189:C:/Jarboter_V_2_1/Firmware/Interface_uC_PMD/C/c-motion.c **** 	return SendCommandWord(axis_handle, PMDOPSetKout, kout);
 190:C:/Jarboter_V_2_1/Firmware/Interface_uC_PMD/C/c-motion.c **** }
 191:C:/Jarboter_V_2_1/Firmware/Interface_uC_PMD/C/c-motion.c **** 
 192:C:/Jarboter_V_2_1/Firmware/Interface_uC_PMD/C/c-motion.c **** PMDresult PMDGetKout(PMDAxisHandle* axis_handle, PMDuint16* kout)
 193:C:/Jarboter_V_2_1/Firmware/Interface_uC_PMD/C/c-motion.c **** {
 194:C:/Jarboter_V_2_1/Firmware/Interface_uC_PMD/C/c-motion.c **** 	return SendCommandGetWord(axis_handle, PMDOPGetKout, kout);
 195:C:/Jarboter_V_2_1/Firmware/Interface_uC_PMD/C/c-motion.c **** }
 196:C:/Jarboter_V_2_1/Firmware/Interface_uC_PMD/C/c-motion.c **** 
 197:C:/Jarboter_V_2_1/Firmware/Interface_uC_PMD/C/c-motion.c **** PMDresult PMDSetIntegrationLimit(PMDAxisHandle* axis_handle, PMDuint32 limit)
 198:C:/Jarboter_V_2_1/Firmware/Interface_uC_PMD/C/c-motion.c **** {
 199:C:/Jarboter_V_2_1/Firmware/Interface_uC_PMD/C/c-motion.c **** 	return SendCommandLong(axis_handle, PMDOPSetIntegrationLimit, limit);
 200:C:/Jarboter_V_2_1/Firmware/Interface_uC_PMD/C/c-motion.c **** }
 201:C:/Jarboter_V_2_1/Firmware/Interface_uC_PMD/C/c-motion.c **** 
 202:C:/Jarboter_V_2_1/Firmware/Interface_uC_PMD/C/c-motion.c **** PMDresult PMDGetIntegrationLimit(PMDAxisHandle* axis_handle, PMDuint32* limit)
 203:C:/Jarboter_V_2_1/Firmware/Interface_uC_PMD/C/c-motion.c **** {
 204:C:/Jarboter_V_2_1/Firmware/Interface_uC_PMD/C/c-motion.c **** 	return SendCommandGetLong(axis_handle, PMDOPGetIntegrationLimit, limit);
 205:C:/Jarboter_V_2_1/Firmware/Interface_uC_PMD/C/c-motion.c **** }
 206:C:/Jarboter_V_2_1/Firmware/Interface_uC_PMD/C/c-motion.c **** 
 207:C:/Jarboter_V_2_1/Firmware/Interface_uC_PMD/C/c-motion.c **** PMDresult PMDSetLimitSwitchMode(PMDAxisHandle* axis_handle, PMDuint16 mode)
 208:C:/Jarboter_V_2_1/Firmware/Interface_uC_PMD/C/c-motion.c **** {
 209:C:/Jarboter_V_2_1/Firmware/Interface_uC_PMD/C/c-motion.c **** 	return SendCommandWord(axis_handle, PMDOPSetLimitSwitchMode, mode);
 210:C:/Jarboter_V_2_1/Firmware/Interface_uC_PMD/C/c-motion.c **** }
 211:C:/Jarboter_V_2_1/Firmware/Interface_uC_PMD/C/c-motion.c **** 
 212:C:/Jarboter_V_2_1/Firmware/Interface_uC_PMD/C/c-motion.c **** PMDresult PMDGetLimitSwitchMode(PMDAxisHandle* axis_handle, PMDuint16* mode)
 213:C:/Jarboter_V_2_1/Firmware/Interface_uC_PMD/C/c-motion.c **** {
 214:C:/Jarboter_V_2_1/Firmware/Interface_uC_PMD/C/c-motion.c **** 	return SendCommandGetWord(axis_handle, PMDOPGetLimitSwitchMode, mode);
 215:C:/Jarboter_V_2_1/Firmware/Interface_uC_PMD/C/c-motion.c **** }
 216:C:/Jarboter_V_2_1/Firmware/Interface_uC_PMD/C/c-motion.c **** 
 217:C:/Jarboter_V_2_1/Firmware/Interface_uC_PMD/C/c-motion.c **** PMDresult PMDSetMotorLimit(PMDAxisHandle* axis_handle, PMDuint16 limit)
 218:C:/Jarboter_V_2_1/Firmware/Interface_uC_PMD/C/c-motion.c **** {
 219:C:/Jarboter_V_2_1/Firmware/Interface_uC_PMD/C/c-motion.c **** 	return SendCommandWord(axis_handle, PMDOPSetMotorLimit, limit);
 220:C:/Jarboter_V_2_1/Firmware/Interface_uC_PMD/C/c-motion.c **** }
 221:C:/Jarboter_V_2_1/Firmware/Interface_uC_PMD/C/c-motion.c **** 
 222:C:/Jarboter_V_2_1/Firmware/Interface_uC_PMD/C/c-motion.c **** PMDresult PMDGetMotorLimit(PMDAxisHandle* axis_handle, PMDuint16* limit)
 223:C:/Jarboter_V_2_1/Firmware/Interface_uC_PMD/C/c-motion.c **** {
 224:C:/Jarboter_V_2_1/Firmware/Interface_uC_PMD/C/c-motion.c **** 	return SendCommandGetWord(axis_handle, PMDOPGetMotorLimit, limit);
 225:C:/Jarboter_V_2_1/Firmware/Interface_uC_PMD/C/c-motion.c **** }
 226:C:/Jarboter_V_2_1/Firmware/Interface_uC_PMD/C/c-motion.c **** 
 227:C:/Jarboter_V_2_1/Firmware/Interface_uC_PMD/C/c-motion.c **** PMDresult PMDSetMotorBias(PMDAxisHandle* axis_handle, PMDint16 bias)
 228:C:/Jarboter_V_2_1/Firmware/Interface_uC_PMD/C/c-motion.c **** {
 229:C:/Jarboter_V_2_1/Firmware/Interface_uC_PMD/C/c-motion.c **** 	return SendCommandWord(axis_handle, PMDOPSetMotorBias, (PMDuint16)bias);
 230:C:/Jarboter_V_2_1/Firmware/Interface_uC_PMD/C/c-motion.c **** }
 231:C:/Jarboter_V_2_1/Firmware/Interface_uC_PMD/C/c-motion.c **** 
 232:C:/Jarboter_V_2_1/Firmware/Interface_uC_PMD/C/c-motion.c **** PMDresult PMDGetMotorBias(PMDAxisHandle* axis_handle, PMDint16* bias)
 233:C:/Jarboter_V_2_1/Firmware/Interface_uC_PMD/C/c-motion.c **** {
 234:C:/Jarboter_V_2_1/Firmware/Interface_uC_PMD/C/c-motion.c **** 	return SendCommandGetWord(axis_handle, PMDOPGetMotorBias, (PMDuint16*)bias);
 235:C:/Jarboter_V_2_1/Firmware/Interface_uC_PMD/C/c-motion.c **** }
 236:C:/Jarboter_V_2_1/Firmware/Interface_uC_PMD/C/c-motion.c **** 
 237:C:/Jarboter_V_2_1/Firmware/Interface_uC_PMD/C/c-motion.c **** PMDresult PMDSetPositionErrorLimit(PMDAxisHandle* axis_handle, PMDuint32 limit)
 238:C:/Jarboter_V_2_1/Firmware/Interface_uC_PMD/C/c-motion.c **** {
 239:C:/Jarboter_V_2_1/Firmware/Interface_uC_PMD/C/c-motion.c **** 	return SendCommandLong(axis_handle, PMDOPSetPositionErrorLimit, limit);
 240:C:/Jarboter_V_2_1/Firmware/Interface_uC_PMD/C/c-motion.c **** }
 241:C:/Jarboter_V_2_1/Firmware/Interface_uC_PMD/C/c-motion.c **** 
 242:C:/Jarboter_V_2_1/Firmware/Interface_uC_PMD/C/c-motion.c **** PMDresult PMDGetPositionErrorLimit(PMDAxisHandle* axis_handle, PMDuint32* limit)
 243:C:/Jarboter_V_2_1/Firmware/Interface_uC_PMD/C/c-motion.c **** {
 244:C:/Jarboter_V_2_1/Firmware/Interface_uC_PMD/C/c-motion.c **** 	return SendCommandGetLong(axis_handle, PMDOPGetPositionErrorLimit, limit);
 245:C:/Jarboter_V_2_1/Firmware/Interface_uC_PMD/C/c-motion.c **** }
 246:C:/Jarboter_V_2_1/Firmware/Interface_uC_PMD/C/c-motion.c **** 
 247:C:/Jarboter_V_2_1/Firmware/Interface_uC_PMD/C/c-motion.c **** PMDresult PMDSetAutoStopMode(PMDAxisHandle* axis_handle, PMDuint16 mode)
 248:C:/Jarboter_V_2_1/Firmware/Interface_uC_PMD/C/c-motion.c **** {
 249:C:/Jarboter_V_2_1/Firmware/Interface_uC_PMD/C/c-motion.c **** 	return SendCommandWord(axis_handle, PMDOPSetAutoStopMode, mode);
 250:C:/Jarboter_V_2_1/Firmware/Interface_uC_PMD/C/c-motion.c **** }
 251:C:/Jarboter_V_2_1/Firmware/Interface_uC_PMD/C/c-motion.c **** 
 252:C:/Jarboter_V_2_1/Firmware/Interface_uC_PMD/C/c-motion.c **** PMDresult PMDGetAutoStopMode(PMDAxisHandle* axis_handle, PMDuint16* mode)
 253:C:/Jarboter_V_2_1/Firmware/Interface_uC_PMD/C/c-motion.c **** {
 254:C:/Jarboter_V_2_1/Firmware/Interface_uC_PMD/C/c-motion.c **** 	return SendCommandGetWord(axis_handle, PMDOPGetAutoStopMode, mode);
 255:C:/Jarboter_V_2_1/Firmware/Interface_uC_PMD/C/c-motion.c **** }
 256:C:/Jarboter_V_2_1/Firmware/Interface_uC_PMD/C/c-motion.c **** 
 257:C:/Jarboter_V_2_1/Firmware/Interface_uC_PMD/C/c-motion.c **** PMDresult PMDSetDerivativeTime(PMDAxisHandle* axis_handle, PMDuint16 derivativeTime)
 258:C:/Jarboter_V_2_1/Firmware/Interface_uC_PMD/C/c-motion.c **** {
 259:C:/Jarboter_V_2_1/Firmware/Interface_uC_PMD/C/c-motion.c **** 	return SendCommandWord(axis_handle, PMDOPSetDerivativeTime, derivativeTime);
 260:C:/Jarboter_V_2_1/Firmware/Interface_uC_PMD/C/c-motion.c **** }
 261:C:/Jarboter_V_2_1/Firmware/Interface_uC_PMD/C/c-motion.c **** 
 262:C:/Jarboter_V_2_1/Firmware/Interface_uC_PMD/C/c-motion.c **** PMDresult PMDGetDerivativeTime(PMDAxisHandle* axis_handle, PMDuint16* derivativeTime)
 263:C:/Jarboter_V_2_1/Firmware/Interface_uC_PMD/C/c-motion.c **** {
 264:C:/Jarboter_V_2_1/Firmware/Interface_uC_PMD/C/c-motion.c **** 	return SendCommandGetWord(axis_handle, PMDOPGetDerivativeTime, derivativeTime);
 265:C:/Jarboter_V_2_1/Firmware/Interface_uC_PMD/C/c-motion.c **** }
 266:C:/Jarboter_V_2_1/Firmware/Interface_uC_PMD/C/c-motion.c **** 
 267:C:/Jarboter_V_2_1/Firmware/Interface_uC_PMD/C/c-motion.c **** PMDresult PMDSetSettleTime(PMDAxisHandle* axis_handle, PMDuint16 settleTime)
 268:C:/Jarboter_V_2_1/Firmware/Interface_uC_PMD/C/c-motion.c **** {
 269:C:/Jarboter_V_2_1/Firmware/Interface_uC_PMD/C/c-motion.c **** 	return SendCommandWord(axis_handle, PMDOPSetSettleTime, settleTime);
 270:C:/Jarboter_V_2_1/Firmware/Interface_uC_PMD/C/c-motion.c **** }
 271:C:/Jarboter_V_2_1/Firmware/Interface_uC_PMD/C/c-motion.c **** 
 272:C:/Jarboter_V_2_1/Firmware/Interface_uC_PMD/C/c-motion.c **** PMDresult PMDGetSettleTime(PMDAxisHandle* axis_handle, PMDuint16* settleTime)
 273:C:/Jarboter_V_2_1/Firmware/Interface_uC_PMD/C/c-motion.c **** {
 274:C:/Jarboter_V_2_1/Firmware/Interface_uC_PMD/C/c-motion.c **** 	return SendCommandGetWord(axis_handle, PMDOPGetSettleTime, settleTime);
 275:C:/Jarboter_V_2_1/Firmware/Interface_uC_PMD/C/c-motion.c **** }
 276:C:/Jarboter_V_2_1/Firmware/Interface_uC_PMD/C/c-motion.c **** 
 277:C:/Jarboter_V_2_1/Firmware/Interface_uC_PMD/C/c-motion.c **** PMDresult PMDSetSettleWindow(PMDAxisHandle* axis_handle, PMDuint16 settleWindow)
 278:C:/Jarboter_V_2_1/Firmware/Interface_uC_PMD/C/c-motion.c **** {
 279:C:/Jarboter_V_2_1/Firmware/Interface_uC_PMD/C/c-motion.c **** 	return SendCommandWord(axis_handle, PMDOPSetSettleWindow, settleWindow);
 280:C:/Jarboter_V_2_1/Firmware/Interface_uC_PMD/C/c-motion.c **** }
 281:C:/Jarboter_V_2_1/Firmware/Interface_uC_PMD/C/c-motion.c **** 
 282:C:/Jarboter_V_2_1/Firmware/Interface_uC_PMD/C/c-motion.c **** PMDresult PMDGetSettleWindow(PMDAxisHandle* axis_handle, PMDuint16* settleWindow)
 283:C:/Jarboter_V_2_1/Firmware/Interface_uC_PMD/C/c-motion.c **** {
 284:C:/Jarboter_V_2_1/Firmware/Interface_uC_PMD/C/c-motion.c **** 	return SendCommandGetWord(axis_handle, PMDOPGetSettleWindow, settleWindow);
 285:C:/Jarboter_V_2_1/Firmware/Interface_uC_PMD/C/c-motion.c **** }
 286:C:/Jarboter_V_2_1/Firmware/Interface_uC_PMD/C/c-motion.c **** 
 287:C:/Jarboter_V_2_1/Firmware/Interface_uC_PMD/C/c-motion.c **** PMDresult PMDSetTrackingWindow(PMDAxisHandle* axis_handle, PMDuint16 trackingWindow)
 288:C:/Jarboter_V_2_1/Firmware/Interface_uC_PMD/C/c-motion.c **** {
 289:C:/Jarboter_V_2_1/Firmware/Interface_uC_PMD/C/c-motion.c **** 	return SendCommandWord(axis_handle, PMDOPSetTrackingWindow, trackingWindow);
 290:C:/Jarboter_V_2_1/Firmware/Interface_uC_PMD/C/c-motion.c **** }
 291:C:/Jarboter_V_2_1/Firmware/Interface_uC_PMD/C/c-motion.c **** 
 292:C:/Jarboter_V_2_1/Firmware/Interface_uC_PMD/C/c-motion.c **** PMDresult PMDGetTrackingWindow(PMDAxisHandle* axis_handle, PMDuint16* trackingWindow)
 293:C:/Jarboter_V_2_1/Firmware/Interface_uC_PMD/C/c-motion.c **** {
 294:C:/Jarboter_V_2_1/Firmware/Interface_uC_PMD/C/c-motion.c **** 	return SendCommandGetWord(axis_handle, PMDOPGetTrackingWindow, trackingWindow);
 295:C:/Jarboter_V_2_1/Firmware/Interface_uC_PMD/C/c-motion.c **** }
 296:C:/Jarboter_V_2_1/Firmware/Interface_uC_PMD/C/c-motion.c **** 
 297:C:/Jarboter_V_2_1/Firmware/Interface_uC_PMD/C/c-motion.c **** PMDresult PMDSetMotionCompleteMode(PMDAxisHandle* axis_handle, PMDuint16 mode)
 298:C:/Jarboter_V_2_1/Firmware/Interface_uC_PMD/C/c-motion.c **** {
 299:C:/Jarboter_V_2_1/Firmware/Interface_uC_PMD/C/c-motion.c **** 	return SendCommandWord(axis_handle, PMDOPSetMotionCompleteMode, mode);
 300:C:/Jarboter_V_2_1/Firmware/Interface_uC_PMD/C/c-motion.c **** }
 301:C:/Jarboter_V_2_1/Firmware/Interface_uC_PMD/C/c-motion.c **** 
 302:C:/Jarboter_V_2_1/Firmware/Interface_uC_PMD/C/c-motion.c **** PMDresult PMDGetMotionCompleteMode(PMDAxisHandle* axis_handle, PMDuint16* mode)
 303:C:/Jarboter_V_2_1/Firmware/Interface_uC_PMD/C/c-motion.c **** {
 304:C:/Jarboter_V_2_1/Firmware/Interface_uC_PMD/C/c-motion.c **** 	return SendCommandGetWord(axis_handle, PMDOPGetMotionCompleteMode, mode);
 305:C:/Jarboter_V_2_1/Firmware/Interface_uC_PMD/C/c-motion.c **** }
 306:C:/Jarboter_V_2_1/Firmware/Interface_uC_PMD/C/c-motion.c **** 
 307:C:/Jarboter_V_2_1/Firmware/Interface_uC_PMD/C/c-motion.c **** PMDresult PMDClearPositionError(PMDAxisHandle* axis_handle)
 308:C:/Jarboter_V_2_1/Firmware/Interface_uC_PMD/C/c-motion.c **** {
 309:C:/Jarboter_V_2_1/Firmware/Interface_uC_PMD/C/c-motion.c **** 	return SendCommand(axis_handle, PMDOPClearPositionError);
 310:C:/Jarboter_V_2_1/Firmware/Interface_uC_PMD/C/c-motion.c **** }
 311:C:/Jarboter_V_2_1/Firmware/Interface_uC_PMD/C/c-motion.c **** 
 312:C:/Jarboter_V_2_1/Firmware/Interface_uC_PMD/C/c-motion.c **** PMDresult PMDGetDerivative(PMDAxisHandle* axis_handle, PMDint16* derivative)
 313:C:/Jarboter_V_2_1/Firmware/Interface_uC_PMD/C/c-motion.c **** {
 314:C:/Jarboter_V_2_1/Firmware/Interface_uC_PMD/C/c-motion.c **** 	return SendCommandGetWord(axis_handle, PMDOPGetDerivative, (PMDuint16*)derivative);
 315:C:/Jarboter_V_2_1/Firmware/Interface_uC_PMD/C/c-motion.c **** }
 316:C:/Jarboter_V_2_1/Firmware/Interface_uC_PMD/C/c-motion.c **** 
 317:C:/Jarboter_V_2_1/Firmware/Interface_uC_PMD/C/c-motion.c **** PMDresult PMDGetIntegral(PMDAxisHandle* axis_handle, PMDint32* integral)
 318:C:/Jarboter_V_2_1/Firmware/Interface_uC_PMD/C/c-motion.c **** {
 319:C:/Jarboter_V_2_1/Firmware/Interface_uC_PMD/C/c-motion.c **** 	return SendCommandGetLong(axis_handle, PMDOPGetIntegral, (PMDuint32*)integral);
 320:C:/Jarboter_V_2_1/Firmware/Interface_uC_PMD/C/c-motion.c **** }
 321:C:/Jarboter_V_2_1/Firmware/Interface_uC_PMD/C/c-motion.c **** 
 322:C:/Jarboter_V_2_1/Firmware/Interface_uC_PMD/C/c-motion.c **** PMDresult PMDGetPositionError(PMDAxisHandle* axis_handle, PMDint32* error)
 323:C:/Jarboter_V_2_1/Firmware/Interface_uC_PMD/C/c-motion.c **** {
 324:C:/Jarboter_V_2_1/Firmware/Interface_uC_PMD/C/c-motion.c **** 	return SendCommandGetLong(axis_handle, PMDOPGetPositionError, (PMDuint32*)error);
 325:C:/Jarboter_V_2_1/Firmware/Interface_uC_PMD/C/c-motion.c **** }
 326:C:/Jarboter_V_2_1/Firmware/Interface_uC_PMD/C/c-motion.c **** 
 327:C:/Jarboter_V_2_1/Firmware/Interface_uC_PMD/C/c-motion.c **** PMDresult PMDSetSampleTime(PMDAxisHandle* axis_handle, PMDuint16 sampleTime)
 328:C:/Jarboter_V_2_1/Firmware/Interface_uC_PMD/C/c-motion.c **** {
 329:C:/Jarboter_V_2_1/Firmware/Interface_uC_PMD/C/c-motion.c **** 	return SendCommandWord(axis_handle, PMDOPSetSampleTime, sampleTime);
 330:C:/Jarboter_V_2_1/Firmware/Interface_uC_PMD/C/c-motion.c **** }
 331:C:/Jarboter_V_2_1/Firmware/Interface_uC_PMD/C/c-motion.c **** 
 332:C:/Jarboter_V_2_1/Firmware/Interface_uC_PMD/C/c-motion.c **** PMDresult PMDGetSampleTime(PMDAxisHandle* axis_handle, PMDuint16* sampleTime)
 333:C:/Jarboter_V_2_1/Firmware/Interface_uC_PMD/C/c-motion.c **** {
 334:C:/Jarboter_V_2_1/Firmware/Interface_uC_PMD/C/c-motion.c **** 	return SendCommandGetWord(axis_handle, PMDOPGetSampleTime, sampleTime);
 335:C:/Jarboter_V_2_1/Firmware/Interface_uC_PMD/C/c-motion.c **** }
 336:C:/Jarboter_V_2_1/Firmware/Interface_uC_PMD/C/c-motion.c **** 
 337:C:/Jarboter_V_2_1/Firmware/Interface_uC_PMD/C/c-motion.c **** 
 338:C:/Jarboter_V_2_1/Firmware/Interface_uC_PMD/C/c-motion.c **** // Parameter Update & Breakpoints
 339:C:/Jarboter_V_2_1/Firmware/Interface_uC_PMD/C/c-motion.c **** PMDresult PMDSetBreakpoint(PMDAxisHandle* axis_handle, PMDuint16 breakpointID, 
 340:C:/Jarboter_V_2_1/Firmware/Interface_uC_PMD/C/c-motion.c **** 						   PMDAxis breakAxis, PMDuint8 action, PMDuint8 trigger)
 341:C:/Jarboter_V_2_1/Firmware/Interface_uC_PMD/C/c-motion.c **** {
 342:C:/Jarboter_V_2_1/Firmware/Interface_uC_PMD/C/c-motion.c **** 	PMDuint16 value = (PMDuint16)((breakAxis & nibbleMask) | 
 343:C:/Jarboter_V_2_1/Firmware/Interface_uC_PMD/C/c-motion.c **** 		((action & nibbleMask) << 4) | ((trigger & byteMask) << 8));
 344:C:/Jarboter_V_2_1/Firmware/Interface_uC_PMD/C/c-motion.c **** 	return SendCommandWordWord(axis_handle, PMDOPSetBreakpoint, breakpointID, value);
 345:C:/Jarboter_V_2_1/Firmware/Interface_uC_PMD/C/c-motion.c **** }
 346:C:/Jarboter_V_2_1/Firmware/Interface_uC_PMD/C/c-motion.c **** 
 347:C:/Jarboter_V_2_1/Firmware/Interface_uC_PMD/C/c-motion.c **** PMDresult PMDGetBreakpoint(PMDAxisHandle* axis_handle, PMDuint16 breakpointID, 
 348:C:/Jarboter_V_2_1/Firmware/Interface_uC_PMD/C/c-motion.c **** 						   PMDAxis* breakAxis, PMDuint8* action, PMDuint8* trigger)
 349:C:/Jarboter_V_2_1/Firmware/Interface_uC_PMD/C/c-motion.c **** {
 350:C:/Jarboter_V_2_1/Firmware/Interface_uC_PMD/C/c-motion.c **** 	PMDuint16 result;
 351:C:/Jarboter_V_2_1/Firmware/Interface_uC_PMD/C/c-motion.c **** 	PMDuint16 value;
 352:C:/Jarboter_V_2_1/Firmware/Interface_uC_PMD/C/c-motion.c **** 
 353:C:/Jarboter_V_2_1/Firmware/Interface_uC_PMD/C/c-motion.c **** 	result = SendCommandWordGetWord(axis_handle, PMDOPGetBreakpoint, breakpointID, &value);
 354:C:/Jarboter_V_2_1/Firmware/Interface_uC_PMD/C/c-motion.c **** 
 355:C:/Jarboter_V_2_1/Firmware/Interface_uC_PMD/C/c-motion.c **** 	*breakAxis = (PMDAxis)(value & nibbleMask);
 356:C:/Jarboter_V_2_1/Firmware/Interface_uC_PMD/C/c-motion.c **** 	*action = (PMDuint8)((value >> 4) & nibbleMask);
 357:C:/Jarboter_V_2_1/Firmware/Interface_uC_PMD/C/c-motion.c **** 	*trigger = (PMDuint8)((value >> 8) & byteMask);
 358:C:/Jarboter_V_2_1/Firmware/Interface_uC_PMD/C/c-motion.c **** 
 359:C:/Jarboter_V_2_1/Firmware/Interface_uC_PMD/C/c-motion.c **** 	return result;
 360:C:/Jarboter_V_2_1/Firmware/Interface_uC_PMD/C/c-motion.c **** }
 361:C:/Jarboter_V_2_1/Firmware/Interface_uC_PMD/C/c-motion.c **** 
 362:C:/Jarboter_V_2_1/Firmware/Interface_uC_PMD/C/c-motion.c **** PMDresult PMDSetBreakpointValue(PMDAxisHandle* axis_handle, PMDuint16 breakpointID, PMDint32 breakp
 363:C:/Jarboter_V_2_1/Firmware/Interface_uC_PMD/C/c-motion.c **** {
 364:C:/Jarboter_V_2_1/Firmware/Interface_uC_PMD/C/c-motion.c **** 	return SendCommandWordLong(axis_handle, PMDOPSetBreakpointValue, breakpointID, (PMDuint32)breakpoi
 365:C:/Jarboter_V_2_1/Firmware/Interface_uC_PMD/C/c-motion.c **** }
 366:C:/Jarboter_V_2_1/Firmware/Interface_uC_PMD/C/c-motion.c **** 
 367:C:/Jarboter_V_2_1/Firmware/Interface_uC_PMD/C/c-motion.c **** PMDresult PMDGetBreakpointValue(PMDAxisHandle* axis_handle, PMDuint16 breakpointID, PMDint32* break
 368:C:/Jarboter_V_2_1/Firmware/Interface_uC_PMD/C/c-motion.c **** {
 369:C:/Jarboter_V_2_1/Firmware/Interface_uC_PMD/C/c-motion.c **** 	return SendCommandWordGetLong(axis_handle, PMDOPGetBreakpointValue, breakpointID, (PMDuint32*)brea
 370:C:/Jarboter_V_2_1/Firmware/Interface_uC_PMD/C/c-motion.c **** }
 371:C:/Jarboter_V_2_1/Firmware/Interface_uC_PMD/C/c-motion.c **** 
 372:C:/Jarboter_V_2_1/Firmware/Interface_uC_PMD/C/c-motion.c **** PMDresult PMDUpdate(PMDAxisHandle* axis_handle)
 373:C:/Jarboter_V_2_1/Firmware/Interface_uC_PMD/C/c-motion.c **** {
 374:C:/Jarboter_V_2_1/Firmware/Interface_uC_PMD/C/c-motion.c **** 	return SendCommand(axis_handle, PMDOPUpdate);
 375:C:/Jarboter_V_2_1/Firmware/Interface_uC_PMD/C/c-motion.c **** }
 376:C:/Jarboter_V_2_1/Firmware/Interface_uC_PMD/C/c-motion.c **** 
 377:C:/Jarboter_V_2_1/Firmware/Interface_uC_PMD/C/c-motion.c **** PMDresult PMDMultiUpdate(PMDAxisHandle* axis_handle, PMDuint16 axisMask)
 378:C:/Jarboter_V_2_1/Firmware/Interface_uC_PMD/C/c-motion.c **** {
 379:C:/Jarboter_V_2_1/Firmware/Interface_uC_PMD/C/c-motion.c **** 	return SendCommandWord(axis_handle, PMDOPMultiUpdate, axisMask);
 380:C:/Jarboter_V_2_1/Firmware/Interface_uC_PMD/C/c-motion.c **** }
 381:C:/Jarboter_V_2_1/Firmware/Interface_uC_PMD/C/c-motion.c **** 
 382:C:/Jarboter_V_2_1/Firmware/Interface_uC_PMD/C/c-motion.c **** 
 383:C:/Jarboter_V_2_1/Firmware/Interface_uC_PMD/C/c-motion.c **** // Interrupt Processing
 384:C:/Jarboter_V_2_1/Firmware/Interface_uC_PMD/C/c-motion.c **** PMDresult PMDSetInterruptMask(PMDAxisHandle* axis_handle, PMDuint16 interruptMask)
 385:C:/Jarboter_V_2_1/Firmware/Interface_uC_PMD/C/c-motion.c **** {
 386:C:/Jarboter_V_2_1/Firmware/Interface_uC_PMD/C/c-motion.c **** 	return SendCommandWord(axis_handle, PMDOPSetInterruptMask, interruptMask);
 387:C:/Jarboter_V_2_1/Firmware/Interface_uC_PMD/C/c-motion.c **** }
 388:C:/Jarboter_V_2_1/Firmware/Interface_uC_PMD/C/c-motion.c **** 
 389:C:/Jarboter_V_2_1/Firmware/Interface_uC_PMD/C/c-motion.c **** PMDresult PMDGetInterruptMask(PMDAxisHandle* axis_handle, PMDuint16* interruptMask)
 390:C:/Jarboter_V_2_1/Firmware/Interface_uC_PMD/C/c-motion.c **** {
 391:C:/Jarboter_V_2_1/Firmware/Interface_uC_PMD/C/c-motion.c **** 	return SendCommandGetWord(axis_handle, PMDOPGetInterruptMask, interruptMask);
 392:C:/Jarboter_V_2_1/Firmware/Interface_uC_PMD/C/c-motion.c **** }
 393:C:/Jarboter_V_2_1/Firmware/Interface_uC_PMD/C/c-motion.c **** 
 394:C:/Jarboter_V_2_1/Firmware/Interface_uC_PMD/C/c-motion.c **** PMDresult PMDClearInterrupt(PMDAxisHandle* axis_handle)
 395:C:/Jarboter_V_2_1/Firmware/Interface_uC_PMD/C/c-motion.c **** {
 396:C:/Jarboter_V_2_1/Firmware/Interface_uC_PMD/C/c-motion.c **** 	PMDAxis axis = axis_handle->axis;
 397:C:/Jarboter_V_2_1/Firmware/Interface_uC_PMD/C/c-motion.c **** 	PMDuint16 result;
 398:C:/Jarboter_V_2_1/Firmware/Interface_uC_PMD/C/c-motion.c **** 
 399:C:/Jarboter_V_2_1/Firmware/Interface_uC_PMD/C/c-motion.c **** 	// for the ClearInterrupt command, the axis number MUST be zero
 400:C:/Jarboter_V_2_1/Firmware/Interface_uC_PMD/C/c-motion.c **** 	axis_handle->axis = 0;
 401:C:/Jarboter_V_2_1/Firmware/Interface_uC_PMD/C/c-motion.c **** 
 402:C:/Jarboter_V_2_1/Firmware/Interface_uC_PMD/C/c-motion.c **** 	result = SendCommand(axis_handle, PMDOPClearInterrupt);
 403:C:/Jarboter_V_2_1/Firmware/Interface_uC_PMD/C/c-motion.c **** 
 404:C:/Jarboter_V_2_1/Firmware/Interface_uC_PMD/C/c-motion.c **** 	axis_handle->axis = axis;
 405:C:/Jarboter_V_2_1/Firmware/Interface_uC_PMD/C/c-motion.c **** 
 406:C:/Jarboter_V_2_1/Firmware/Interface_uC_PMD/C/c-motion.c **** 	return result;
 407:C:/Jarboter_V_2_1/Firmware/Interface_uC_PMD/C/c-motion.c **** }
 408:C:/Jarboter_V_2_1/Firmware/Interface_uC_PMD/C/c-motion.c **** 
 409:C:/Jarboter_V_2_1/Firmware/Interface_uC_PMD/C/c-motion.c **** PMDresult PMDGetInterruptAxis(PMDAxisHandle* axis_handle, PMDuint16* interruptingAxisMask)
 410:C:/Jarboter_V_2_1/Firmware/Interface_uC_PMD/C/c-motion.c **** {
 411:C:/Jarboter_V_2_1/Firmware/Interface_uC_PMD/C/c-motion.c **** 	return SendCommandGetWord(axis_handle, PMDOPGetInterruptAxis, interruptingAxisMask);
 412:C:/Jarboter_V_2_1/Firmware/Interface_uC_PMD/C/c-motion.c **** }
 413:C:/Jarboter_V_2_1/Firmware/Interface_uC_PMD/C/c-motion.c **** 
 414:C:/Jarboter_V_2_1/Firmware/Interface_uC_PMD/C/c-motion.c **** 
 415:C:/Jarboter_V_2_1/Firmware/Interface_uC_PMD/C/c-motion.c **** // Status Register Control
 416:C:/Jarboter_V_2_1/Firmware/Interface_uC_PMD/C/c-motion.c **** PMDresult PMDResetEventStatus(PMDAxisHandle* axis_handle, PMDuint16 eventStatus)
 417:C:/Jarboter_V_2_1/Firmware/Interface_uC_PMD/C/c-motion.c **** {
 418:C:/Jarboter_V_2_1/Firmware/Interface_uC_PMD/C/c-motion.c **** 	return SendCommandWord(axis_handle, PMDOPResetEventStatus, eventStatus);
 419:C:/Jarboter_V_2_1/Firmware/Interface_uC_PMD/C/c-motion.c **** }
 420:C:/Jarboter_V_2_1/Firmware/Interface_uC_PMD/C/c-motion.c **** 
 421:C:/Jarboter_V_2_1/Firmware/Interface_uC_PMD/C/c-motion.c **** PMDresult PMDGetEventStatus(PMDAxisHandle* axis_handle, PMDuint16* eventStatus)
 422:C:/Jarboter_V_2_1/Firmware/Interface_uC_PMD/C/c-motion.c **** {
 423:C:/Jarboter_V_2_1/Firmware/Interface_uC_PMD/C/c-motion.c **** 	return SendCommandGetWord(axis_handle, PMDOPGetEventStatus, eventStatus);
 424:C:/Jarboter_V_2_1/Firmware/Interface_uC_PMD/C/c-motion.c **** }
 425:C:/Jarboter_V_2_1/Firmware/Interface_uC_PMD/C/c-motion.c **** 
 426:C:/Jarboter_V_2_1/Firmware/Interface_uC_PMD/C/c-motion.c **** PMDresult PMDGetActivityStatus(PMDAxisHandle* axis_handle, PMDuint16* activityStatus)
 427:C:/Jarboter_V_2_1/Firmware/Interface_uC_PMD/C/c-motion.c **** {
 428:C:/Jarboter_V_2_1/Firmware/Interface_uC_PMD/C/c-motion.c **** 	return SendCommandGetWord(axis_handle, PMDOPGetActivityStatus, activityStatus);
 429:C:/Jarboter_V_2_1/Firmware/Interface_uC_PMD/C/c-motion.c **** }
 430:C:/Jarboter_V_2_1/Firmware/Interface_uC_PMD/C/c-motion.c **** 
 431:C:/Jarboter_V_2_1/Firmware/Interface_uC_PMD/C/c-motion.c **** PMDresult PMDSetSignalSense(PMDAxisHandle* axis_handle, PMDuint16 mask)
 432:C:/Jarboter_V_2_1/Firmware/Interface_uC_PMD/C/c-motion.c **** {
 433:C:/Jarboter_V_2_1/Firmware/Interface_uC_PMD/C/c-motion.c **** 	return SendCommandWord(axis_handle, PMDOPSetSignalSense, mask);
 434:C:/Jarboter_V_2_1/Firmware/Interface_uC_PMD/C/c-motion.c **** }
 435:C:/Jarboter_V_2_1/Firmware/Interface_uC_PMD/C/c-motion.c **** 
 436:C:/Jarboter_V_2_1/Firmware/Interface_uC_PMD/C/c-motion.c **** PMDresult PMDGetSignalSense(PMDAxisHandle* axis_handle, PMDuint16* mask)
 437:C:/Jarboter_V_2_1/Firmware/Interface_uC_PMD/C/c-motion.c **** {
 438:C:/Jarboter_V_2_1/Firmware/Interface_uC_PMD/C/c-motion.c **** 	return SendCommandGetWord(axis_handle, PMDOPGetSignalSense, mask);
 439:C:/Jarboter_V_2_1/Firmware/Interface_uC_PMD/C/c-motion.c **** }
 440:C:/Jarboter_V_2_1/Firmware/Interface_uC_PMD/C/c-motion.c **** 
 441:C:/Jarboter_V_2_1/Firmware/Interface_uC_PMD/C/c-motion.c **** PMDresult PMDGetSignalStatus(PMDAxisHandle* axis_handle, PMDuint16* signalStatus)
 442:C:/Jarboter_V_2_1/Firmware/Interface_uC_PMD/C/c-motion.c **** {
 443:C:/Jarboter_V_2_1/Firmware/Interface_uC_PMD/C/c-motion.c **** 	return SendCommandGetWord(axis_handle, PMDOPGetSignalStatus, signalStatus);
 444:C:/Jarboter_V_2_1/Firmware/Interface_uC_PMD/C/c-motion.c **** }
 445:C:/Jarboter_V_2_1/Firmware/Interface_uC_PMD/C/c-motion.c **** 
 446:C:/Jarboter_V_2_1/Firmware/Interface_uC_PMD/C/c-motion.c **** 
 447:C:/Jarboter_V_2_1/Firmware/Interface_uC_PMD/C/c-motion.c **** // Encoder
 448:C:/Jarboter_V_2_1/Firmware/Interface_uC_PMD/C/c-motion.c **** PMDresult PMDAdjustActualPosition(PMDAxisHandle* axis_handle, PMDint32 position)
 449:C:/Jarboter_V_2_1/Firmware/Interface_uC_PMD/C/c-motion.c **** {
 450:C:/Jarboter_V_2_1/Firmware/Interface_uC_PMD/C/c-motion.c **** 	return SendCommandLong(axis_handle, PMDOPAdjustActualPosition, (PMDuint32)position);
 451:C:/Jarboter_V_2_1/Firmware/Interface_uC_PMD/C/c-motion.c **** }
 452:C:/Jarboter_V_2_1/Firmware/Interface_uC_PMD/C/c-motion.c **** 
 453:C:/Jarboter_V_2_1/Firmware/Interface_uC_PMD/C/c-motion.c **** PMDresult PMDSetActualPosition(PMDAxisHandle* axis_handle, PMDint32 position)
 454:C:/Jarboter_V_2_1/Firmware/Interface_uC_PMD/C/c-motion.c **** {
 455:C:/Jarboter_V_2_1/Firmware/Interface_uC_PMD/C/c-motion.c **** 	return SendCommandLong(axis_handle, PMDOPSetActualPosition, (PMDuint32)position);
 456:C:/Jarboter_V_2_1/Firmware/Interface_uC_PMD/C/c-motion.c **** }
 457:C:/Jarboter_V_2_1/Firmware/Interface_uC_PMD/C/c-motion.c **** 
 458:C:/Jarboter_V_2_1/Firmware/Interface_uC_PMD/C/c-motion.c **** PMDresult PMDGetActualPosition(PMDAxisHandle* axis_handle, PMDint32* position)
 459:C:/Jarboter_V_2_1/Firmware/Interface_uC_PMD/C/c-motion.c **** {
 460:C:/Jarboter_V_2_1/Firmware/Interface_uC_PMD/C/c-motion.c **** 	return SendCommandGetLong(axis_handle, PMDOPGetActualPosition, (PMDuint32*)position);
 461:C:/Jarboter_V_2_1/Firmware/Interface_uC_PMD/C/c-motion.c **** }
 462:C:/Jarboter_V_2_1/Firmware/Interface_uC_PMD/C/c-motion.c **** 
 463:C:/Jarboter_V_2_1/Firmware/Interface_uC_PMD/C/c-motion.c **** PMDresult PMDSetActualPositionUnits(PMDAxisHandle* axis_handle, PMDuint16 mode)
 464:C:/Jarboter_V_2_1/Firmware/Interface_uC_PMD/C/c-motion.c **** {
 465:C:/Jarboter_V_2_1/Firmware/Interface_uC_PMD/C/c-motion.c **** 	return SendCommandWord(axis_handle, PMDOPSetActualPositionUnits, mode);
 466:C:/Jarboter_V_2_1/Firmware/Interface_uC_PMD/C/c-motion.c **** }
 467:C:/Jarboter_V_2_1/Firmware/Interface_uC_PMD/C/c-motion.c **** 
 468:C:/Jarboter_V_2_1/Firmware/Interface_uC_PMD/C/c-motion.c **** PMDresult PMDGetActualPositionUnits(PMDAxisHandle* axis_handle, PMDuint16* mode)
 469:C:/Jarboter_V_2_1/Firmware/Interface_uC_PMD/C/c-motion.c **** {
 470:C:/Jarboter_V_2_1/Firmware/Interface_uC_PMD/C/c-motion.c **** 	return SendCommandGetWord(axis_handle, PMDOPGetActualPositionUnits, mode);
 471:C:/Jarboter_V_2_1/Firmware/Interface_uC_PMD/C/c-motion.c **** }
 472:C:/Jarboter_V_2_1/Firmware/Interface_uC_PMD/C/c-motion.c **** 
 473:C:/Jarboter_V_2_1/Firmware/Interface_uC_PMD/C/c-motion.c **** PMDresult PMDSetCaptureSource(PMDAxisHandle* axis_handle, PMDuint16 captureSource)
 474:C:/Jarboter_V_2_1/Firmware/Interface_uC_PMD/C/c-motion.c **** {
 475:C:/Jarboter_V_2_1/Firmware/Interface_uC_PMD/C/c-motion.c **** 	return SendCommandWord(axis_handle, PMDOPSetCaptureSource, captureSource);
 476:C:/Jarboter_V_2_1/Firmware/Interface_uC_PMD/C/c-motion.c **** }
 477:C:/Jarboter_V_2_1/Firmware/Interface_uC_PMD/C/c-motion.c **** 
 478:C:/Jarboter_V_2_1/Firmware/Interface_uC_PMD/C/c-motion.c **** PMDresult PMDGetCaptureSource(PMDAxisHandle* axis_handle, PMDuint16* captureSource)
 479:C:/Jarboter_V_2_1/Firmware/Interface_uC_PMD/C/c-motion.c **** {
 480:C:/Jarboter_V_2_1/Firmware/Interface_uC_PMD/C/c-motion.c **** 	return SendCommandGetWord(axis_handle, PMDOPGetCaptureSource, captureSource);
 481:C:/Jarboter_V_2_1/Firmware/Interface_uC_PMD/C/c-motion.c **** }
 482:C:/Jarboter_V_2_1/Firmware/Interface_uC_PMD/C/c-motion.c **** 
 483:C:/Jarboter_V_2_1/Firmware/Interface_uC_PMD/C/c-motion.c **** PMDresult PMDSetEncoderSource(PMDAxisHandle* axis_handle, PMDuint16 encoderSource)
 484:C:/Jarboter_V_2_1/Firmware/Interface_uC_PMD/C/c-motion.c **** {
 485:C:/Jarboter_V_2_1/Firmware/Interface_uC_PMD/C/c-motion.c **** 	return SendCommandWord(axis_handle, PMDOPSetEncoderSource, encoderSource);
 486:C:/Jarboter_V_2_1/Firmware/Interface_uC_PMD/C/c-motion.c **** }
 487:C:/Jarboter_V_2_1/Firmware/Interface_uC_PMD/C/c-motion.c **** 
 488:C:/Jarboter_V_2_1/Firmware/Interface_uC_PMD/C/c-motion.c **** PMDresult PMDGetEncoderSource(PMDAxisHandle* axis_handle, PMDuint16* encoderSource)
 489:C:/Jarboter_V_2_1/Firmware/Interface_uC_PMD/C/c-motion.c **** {
 490:C:/Jarboter_V_2_1/Firmware/Interface_uC_PMD/C/c-motion.c **** 	return SendCommandGetWord(axis_handle, PMDOPGetEncoderSource, encoderSource);
 491:C:/Jarboter_V_2_1/Firmware/Interface_uC_PMD/C/c-motion.c **** }
 492:C:/Jarboter_V_2_1/Firmware/Interface_uC_PMD/C/c-motion.c **** 
 493:C:/Jarboter_V_2_1/Firmware/Interface_uC_PMD/C/c-motion.c **** PMDresult PMDSetEncoderModulus(PMDAxisHandle* axis_handle, PMDuint16 modulus)
 494:C:/Jarboter_V_2_1/Firmware/Interface_uC_PMD/C/c-motion.c **** {
 495:C:/Jarboter_V_2_1/Firmware/Interface_uC_PMD/C/c-motion.c **** 	return SendCommandWord(axis_handle, PMDOPSetEncoderModulus, modulus);
 496:C:/Jarboter_V_2_1/Firmware/Interface_uC_PMD/C/c-motion.c **** }
 497:C:/Jarboter_V_2_1/Firmware/Interface_uC_PMD/C/c-motion.c **** 
 498:C:/Jarboter_V_2_1/Firmware/Interface_uC_PMD/C/c-motion.c **** PMDresult PMDGetEncoderModulus(PMDAxisHandle* axis_handle, PMDuint16* modulus)
 499:C:/Jarboter_V_2_1/Firmware/Interface_uC_PMD/C/c-motion.c **** {
 500:C:/Jarboter_V_2_1/Firmware/Interface_uC_PMD/C/c-motion.c **** 	return SendCommandGetWord(axis_handle, PMDOPGetEncoderModulus, modulus);
 501:C:/Jarboter_V_2_1/Firmware/Interface_uC_PMD/C/c-motion.c **** }
 502:C:/Jarboter_V_2_1/Firmware/Interface_uC_PMD/C/c-motion.c **** 
 503:C:/Jarboter_V_2_1/Firmware/Interface_uC_PMD/C/c-motion.c **** PMDresult PMDSetEncoderToStepRatio(PMDAxisHandle* axis_handle, PMDuint16 encoderCounts, PMDuint16 s
 504:C:/Jarboter_V_2_1/Firmware/Interface_uC_PMD/C/c-motion.c **** {
 505:C:/Jarboter_V_2_1/Firmware/Interface_uC_PMD/C/c-motion.c **** 	return SendCommandWordWord(axis_handle, PMDOPSetEncoderToStepRatio, encoderCounts, steps);
 506:C:/Jarboter_V_2_1/Firmware/Interface_uC_PMD/C/c-motion.c **** }
 507:C:/Jarboter_V_2_1/Firmware/Interface_uC_PMD/C/c-motion.c **** 
 508:C:/Jarboter_V_2_1/Firmware/Interface_uC_PMD/C/c-motion.c **** PMDresult PMDGetEncoderToStepRatio(PMDAxisHandle* axis_handle, PMDuint16* encoderCounts, PMDuint16*
 509:C:/Jarboter_V_2_1/Firmware/Interface_uC_PMD/C/c-motion.c **** {
 510:C:/Jarboter_V_2_1/Firmware/Interface_uC_PMD/C/c-motion.c **** 	return SendCommandGetWordWord(axis_handle, PMDOPGetEncoderToStepRatio, encoderCounts, steps);
 511:C:/Jarboter_V_2_1/Firmware/Interface_uC_PMD/C/c-motion.c **** }
 512:C:/Jarboter_V_2_1/Firmware/Interface_uC_PMD/C/c-motion.c **** 
 513:C:/Jarboter_V_2_1/Firmware/Interface_uC_PMD/C/c-motion.c **** PMDresult PMDGetActualVelocity(PMDAxisHandle* axis_handle, PMDint32* actualValue)
 514:C:/Jarboter_V_2_1/Firmware/Interface_uC_PMD/C/c-motion.c **** {
 515:C:/Jarboter_V_2_1/Firmware/Interface_uC_PMD/C/c-motion.c **** 	return SendCommandGetLong(axis_handle, PMDOPGetActualVelocity, (PMDuint32*)actualValue);
 516:C:/Jarboter_V_2_1/Firmware/Interface_uC_PMD/C/c-motion.c **** }
 517:C:/Jarboter_V_2_1/Firmware/Interface_uC_PMD/C/c-motion.c **** 
 518:C:/Jarboter_V_2_1/Firmware/Interface_uC_PMD/C/c-motion.c **** PMDresult PMDGetCaptureValue(PMDAxisHandle* axis_handle, PMDint32* captureValue)
 519:C:/Jarboter_V_2_1/Firmware/Interface_uC_PMD/C/c-motion.c **** {
 520:C:/Jarboter_V_2_1/Firmware/Interface_uC_PMD/C/c-motion.c **** 	return SendCommandGetLong(axis_handle, PMDOPGetCaptureValue, (PMDuint32*)captureValue);
 521:C:/Jarboter_V_2_1/Firmware/Interface_uC_PMD/C/c-motion.c **** }
 522:C:/Jarboter_V_2_1/Firmware/Interface_uC_PMD/C/c-motion.c **** 
 523:C:/Jarboter_V_2_1/Firmware/Interface_uC_PMD/C/c-motion.c **** 
 524:C:/Jarboter_V_2_1/Firmware/Interface_uC_PMD/C/c-motion.c **** // Motor
 525:C:/Jarboter_V_2_1/Firmware/Interface_uC_PMD/C/c-motion.c **** PMDresult PMDSetOutputMode(PMDAxisHandle* axis_handle, PMDuint16 mode)
 526:C:/Jarboter_V_2_1/Firmware/Interface_uC_PMD/C/c-motion.c **** {
 527:C:/Jarboter_V_2_1/Firmware/Interface_uC_PMD/C/c-motion.c **** 	return SendCommandWord(axis_handle, PMDOPSetOutputMode, mode);
 528:C:/Jarboter_V_2_1/Firmware/Interface_uC_PMD/C/c-motion.c **** }
 529:C:/Jarboter_V_2_1/Firmware/Interface_uC_PMD/C/c-motion.c **** 
 530:C:/Jarboter_V_2_1/Firmware/Interface_uC_PMD/C/c-motion.c **** PMDresult PMDGetOutputMode(PMDAxisHandle* axis_handle, PMDuint16* mode)
 531:C:/Jarboter_V_2_1/Firmware/Interface_uC_PMD/C/c-motion.c **** {
 532:C:/Jarboter_V_2_1/Firmware/Interface_uC_PMD/C/c-motion.c **** 	return SendCommandGetWord(axis_handle, PMDOPGetOutputMode, mode);
 533:C:/Jarboter_V_2_1/Firmware/Interface_uC_PMD/C/c-motion.c **** }
 534:C:/Jarboter_V_2_1/Firmware/Interface_uC_PMD/C/c-motion.c **** 
 535:C:/Jarboter_V_2_1/Firmware/Interface_uC_PMD/C/c-motion.c **** PMDresult PMDSetMotorMode(PMDAxisHandle* axis_handle, PMDuint16 mode)
 536:C:/Jarboter_V_2_1/Firmware/Interface_uC_PMD/C/c-motion.c **** {
 537:C:/Jarboter_V_2_1/Firmware/Interface_uC_PMD/C/c-motion.c **** 	return SendCommandWord(axis_handle, PMDOPSetMotorMode, mode);
 538:C:/Jarboter_V_2_1/Firmware/Interface_uC_PMD/C/c-motion.c **** }
 539:C:/Jarboter_V_2_1/Firmware/Interface_uC_PMD/C/c-motion.c **** 
 540:C:/Jarboter_V_2_1/Firmware/Interface_uC_PMD/C/c-motion.c **** PMDresult PMDGetMotorMode(PMDAxisHandle* axis_handle, PMDuint16* mode)
 541:C:/Jarboter_V_2_1/Firmware/Interface_uC_PMD/C/c-motion.c **** {
 542:C:/Jarboter_V_2_1/Firmware/Interface_uC_PMD/C/c-motion.c **** 	return SendCommandGetWord(axis_handle, PMDOPGetMotorMode, mode);
 543:C:/Jarboter_V_2_1/Firmware/Interface_uC_PMD/C/c-motion.c **** }
 544:C:/Jarboter_V_2_1/Firmware/Interface_uC_PMD/C/c-motion.c **** 
 545:C:/Jarboter_V_2_1/Firmware/Interface_uC_PMD/C/c-motion.c **** PMDresult PMDSetMotorCommand(PMDAxisHandle* axis_handle, PMDint16 motorCommand)
 546:C:/Jarboter_V_2_1/Firmware/Interface_uC_PMD/C/c-motion.c **** {
 547:C:/Jarboter_V_2_1/Firmware/Interface_uC_PMD/C/c-motion.c **** 	return SendCommandWord(axis_handle, PMDOPSetMotorCommand, (PMDuint16)motorCommand);
 548:C:/Jarboter_V_2_1/Firmware/Interface_uC_PMD/C/c-motion.c **** }
 549:C:/Jarboter_V_2_1/Firmware/Interface_uC_PMD/C/c-motion.c **** 
 550:C:/Jarboter_V_2_1/Firmware/Interface_uC_PMD/C/c-motion.c **** PMDresult PMDGetMotorCommand(PMDAxisHandle* axis_handle, PMDint16* motorCommand)
 551:C:/Jarboter_V_2_1/Firmware/Interface_uC_PMD/C/c-motion.c **** {
 552:C:/Jarboter_V_2_1/Firmware/Interface_uC_PMD/C/c-motion.c **** 	return SendCommandGetWord(axis_handle, PMDOPGetMotorCommand, (PMDuint16*)motorCommand);
 553:C:/Jarboter_V_2_1/Firmware/Interface_uC_PMD/C/c-motion.c **** }
 554:C:/Jarboter_V_2_1/Firmware/Interface_uC_PMD/C/c-motion.c **** 
 555:C:/Jarboter_V_2_1/Firmware/Interface_uC_PMD/C/c-motion.c **** PMDresult PMDGetCurrentMotorCommand(PMDAxisHandle* axis_handle, PMDint16* motorCommand)
 556:C:/Jarboter_V_2_1/Firmware/Interface_uC_PMD/C/c-motion.c **** {
 557:C:/Jarboter_V_2_1/Firmware/Interface_uC_PMD/C/c-motion.c **** 	return SendCommandGetWord(axis_handle, PMDOPGetCurrentMotorCommand, (PMDuint16*)motorCommand);
 558:C:/Jarboter_V_2_1/Firmware/Interface_uC_PMD/C/c-motion.c **** }
 559:C:/Jarboter_V_2_1/Firmware/Interface_uC_PMD/C/c-motion.c **** 
 560:C:/Jarboter_V_2_1/Firmware/Interface_uC_PMD/C/c-motion.c **** 
 561:C:/Jarboter_V_2_1/Firmware/Interface_uC_PMD/C/c-motion.c **** // Commutation
 562:C:/Jarboter_V_2_1/Firmware/Interface_uC_PMD/C/c-motion.c **** PMDresult PMDSetCommutationMode(PMDAxisHandle* axis_handle, PMDuint16 mode)
 563:C:/Jarboter_V_2_1/Firmware/Interface_uC_PMD/C/c-motion.c **** {
 564:C:/Jarboter_V_2_1/Firmware/Interface_uC_PMD/C/c-motion.c **** 	return SendCommandWord(axis_handle, PMDOPSetCommutationMode, mode);
 565:C:/Jarboter_V_2_1/Firmware/Interface_uC_PMD/C/c-motion.c **** }
 566:C:/Jarboter_V_2_1/Firmware/Interface_uC_PMD/C/c-motion.c **** 
 567:C:/Jarboter_V_2_1/Firmware/Interface_uC_PMD/C/c-motion.c **** PMDresult PMDGetCommutationMode(PMDAxisHandle* axis_handle, PMDuint16* mode)
 568:C:/Jarboter_V_2_1/Firmware/Interface_uC_PMD/C/c-motion.c **** {
 569:C:/Jarboter_V_2_1/Firmware/Interface_uC_PMD/C/c-motion.c **** 	return SendCommandGetWord(axis_handle, PMDOPGetCommutationMode, mode);
 570:C:/Jarboter_V_2_1/Firmware/Interface_uC_PMD/C/c-motion.c **** }
 571:C:/Jarboter_V_2_1/Firmware/Interface_uC_PMD/C/c-motion.c **** 
 572:C:/Jarboter_V_2_1/Firmware/Interface_uC_PMD/C/c-motion.c **** PMDresult PMDSetNumberPhases(PMDAxisHandle* axis_handle, PMDuint16 numberPhases)
 573:C:/Jarboter_V_2_1/Firmware/Interface_uC_PMD/C/c-motion.c **** {
 574:C:/Jarboter_V_2_1/Firmware/Interface_uC_PMD/C/c-motion.c **** 	return SendCommandWord(axis_handle, PMDOPSetNumberPhases, numberPhases);
 575:C:/Jarboter_V_2_1/Firmware/Interface_uC_PMD/C/c-motion.c **** }
 576:C:/Jarboter_V_2_1/Firmware/Interface_uC_PMD/C/c-motion.c **** 
 577:C:/Jarboter_V_2_1/Firmware/Interface_uC_PMD/C/c-motion.c **** PMDresult PMDGetNumberPhases(PMDAxisHandle* axis_handle, PMDuint16* numberPhases)
 578:C:/Jarboter_V_2_1/Firmware/Interface_uC_PMD/C/c-motion.c **** {
 579:C:/Jarboter_V_2_1/Firmware/Interface_uC_PMD/C/c-motion.c **** 	return SendCommandGetWord(axis_handle, PMDOPGetNumberPhases, numberPhases);
 580:C:/Jarboter_V_2_1/Firmware/Interface_uC_PMD/C/c-motion.c **** }
 581:C:/Jarboter_V_2_1/Firmware/Interface_uC_PMD/C/c-motion.c **** 
 582:C:/Jarboter_V_2_1/Firmware/Interface_uC_PMD/C/c-motion.c **** PMDresult PMDSetPhaseInitializeMode(PMDAxisHandle* axis_handle, PMDuint16 mode)
 583:C:/Jarboter_V_2_1/Firmware/Interface_uC_PMD/C/c-motion.c **** {
 584:C:/Jarboter_V_2_1/Firmware/Interface_uC_PMD/C/c-motion.c **** 	return SendCommandWord(axis_handle, PMDOPSetPhaseInitializeMode, mode);
 585:C:/Jarboter_V_2_1/Firmware/Interface_uC_PMD/C/c-motion.c **** }
 586:C:/Jarboter_V_2_1/Firmware/Interface_uC_PMD/C/c-motion.c **** 
 587:C:/Jarboter_V_2_1/Firmware/Interface_uC_PMD/C/c-motion.c **** PMDresult PMDGetPhaseInitializeMode(PMDAxisHandle* axis_handle, PMDuint16* mode)
 588:C:/Jarboter_V_2_1/Firmware/Interface_uC_PMD/C/c-motion.c **** {
 589:C:/Jarboter_V_2_1/Firmware/Interface_uC_PMD/C/c-motion.c **** 	return SendCommandGetWord(axis_handle, PMDOPGetPhaseInitializeMode, mode);
 590:C:/Jarboter_V_2_1/Firmware/Interface_uC_PMD/C/c-motion.c **** }
 591:C:/Jarboter_V_2_1/Firmware/Interface_uC_PMD/C/c-motion.c **** 
 592:C:/Jarboter_V_2_1/Firmware/Interface_uC_PMD/C/c-motion.c **** PMDresult PMDSetPhasePrescale(PMDAxisHandle* axis_handle, PMDuint16 phasePrescale)
 593:C:/Jarboter_V_2_1/Firmware/Interface_uC_PMD/C/c-motion.c **** {
 594:C:/Jarboter_V_2_1/Firmware/Interface_uC_PMD/C/c-motion.c **** 	return SendCommandWord(axis_handle, PMDOPSetPhasePrescale, phasePrescale);
 595:C:/Jarboter_V_2_1/Firmware/Interface_uC_PMD/C/c-motion.c **** }
 596:C:/Jarboter_V_2_1/Firmware/Interface_uC_PMD/C/c-motion.c **** 
 597:C:/Jarboter_V_2_1/Firmware/Interface_uC_PMD/C/c-motion.c **** PMDresult PMDGetPhasePrescale(PMDAxisHandle* axis_handle, PMDuint16* phasePrescale)
 598:C:/Jarboter_V_2_1/Firmware/Interface_uC_PMD/C/c-motion.c **** {
 599:C:/Jarboter_V_2_1/Firmware/Interface_uC_PMD/C/c-motion.c **** 	return SendCommandGetWord(axis_handle, PMDOPGetPhasePrescale, phasePrescale);
 600:C:/Jarboter_V_2_1/Firmware/Interface_uC_PMD/C/c-motion.c **** }
 601:C:/Jarboter_V_2_1/Firmware/Interface_uC_PMD/C/c-motion.c **** 
 602:C:/Jarboter_V_2_1/Firmware/Interface_uC_PMD/C/c-motion.c **** PMDresult PMDSetPhaseCounts(PMDAxisHandle* axis_handle, PMDuint16 phaseCounts)
 603:C:/Jarboter_V_2_1/Firmware/Interface_uC_PMD/C/c-motion.c **** {
 604:C:/Jarboter_V_2_1/Firmware/Interface_uC_PMD/C/c-motion.c **** 	return SendCommandWord(axis_handle, PMDOPSetPhaseCounts, phaseCounts);
 605:C:/Jarboter_V_2_1/Firmware/Interface_uC_PMD/C/c-motion.c **** }
 606:C:/Jarboter_V_2_1/Firmware/Interface_uC_PMD/C/c-motion.c **** 
 607:C:/Jarboter_V_2_1/Firmware/Interface_uC_PMD/C/c-motion.c **** PMDresult PMDGetPhaseCounts(PMDAxisHandle* axis_handle, PMDuint16* phaseCounts)
 608:C:/Jarboter_V_2_1/Firmware/Interface_uC_PMD/C/c-motion.c **** {
 609:C:/Jarboter_V_2_1/Firmware/Interface_uC_PMD/C/c-motion.c **** 	return SendCommandGetWord(axis_handle, PMDOPGetPhaseCounts, phaseCounts);
 610:C:/Jarboter_V_2_1/Firmware/Interface_uC_PMD/C/c-motion.c **** }
 611:C:/Jarboter_V_2_1/Firmware/Interface_uC_PMD/C/c-motion.c **** 
 612:C:/Jarboter_V_2_1/Firmware/Interface_uC_PMD/C/c-motion.c **** PMDresult PMDSetPhaseInitializeTime(PMDAxisHandle* axis_handle, PMDuint16 phaseInitTime)
 613:C:/Jarboter_V_2_1/Firmware/Interface_uC_PMD/C/c-motion.c **** {
 614:C:/Jarboter_V_2_1/Firmware/Interface_uC_PMD/C/c-motion.c **** 	return SendCommandWord(axis_handle, PMDOPSetPhaseInitializeTime, phaseInitTime);
 615:C:/Jarboter_V_2_1/Firmware/Interface_uC_PMD/C/c-motion.c **** }
 616:C:/Jarboter_V_2_1/Firmware/Interface_uC_PMD/C/c-motion.c **** 
 617:C:/Jarboter_V_2_1/Firmware/Interface_uC_PMD/C/c-motion.c **** PMDresult PMDGetPhaseInitializeTime(PMDAxisHandle* axis_handle, PMDuint16* phaseInitTime)
 618:C:/Jarboter_V_2_1/Firmware/Interface_uC_PMD/C/c-motion.c **** {
 619:C:/Jarboter_V_2_1/Firmware/Interface_uC_PMD/C/c-motion.c **** 	return SendCommandGetWord(axis_handle, PMDOPGetPhaseInitializeTime, phaseInitTime);
 620:C:/Jarboter_V_2_1/Firmware/Interface_uC_PMD/C/c-motion.c **** }
 621:C:/Jarboter_V_2_1/Firmware/Interface_uC_PMD/C/c-motion.c **** 
 622:C:/Jarboter_V_2_1/Firmware/Interface_uC_PMD/C/c-motion.c **** PMDresult PMDSetPhaseOffset(PMDAxisHandle* axis_handle, PMDuint16 phaseOffset)
 623:C:/Jarboter_V_2_1/Firmware/Interface_uC_PMD/C/c-motion.c **** {
 624:C:/Jarboter_V_2_1/Firmware/Interface_uC_PMD/C/c-motion.c **** 	return SendCommandWord(axis_handle, PMDOPSetPhaseOffset, phaseOffset);
 625:C:/Jarboter_V_2_1/Firmware/Interface_uC_PMD/C/c-motion.c **** }
 626:C:/Jarboter_V_2_1/Firmware/Interface_uC_PMD/C/c-motion.c **** 
 627:C:/Jarboter_V_2_1/Firmware/Interface_uC_PMD/C/c-motion.c **** PMDresult PMDGetPhaseOffset(PMDAxisHandle* axis_handle, PMDuint16* phaseOffset)
 628:C:/Jarboter_V_2_1/Firmware/Interface_uC_PMD/C/c-motion.c **** {
 629:C:/Jarboter_V_2_1/Firmware/Interface_uC_PMD/C/c-motion.c **** 	return SendCommandGetWord(axis_handle, PMDOPGetPhaseOffset, phaseOffset);
 630:C:/Jarboter_V_2_1/Firmware/Interface_uC_PMD/C/c-motion.c **** }
 631:C:/Jarboter_V_2_1/Firmware/Interface_uC_PMD/C/c-motion.c **** 
 632:C:/Jarboter_V_2_1/Firmware/Interface_uC_PMD/C/c-motion.c **** PMDresult PMDSetPhaseAngle(PMDAxisHandle* axis_handle, PMDuint16 phaseAngle)
 633:C:/Jarboter_V_2_1/Firmware/Interface_uC_PMD/C/c-motion.c **** {
 634:C:/Jarboter_V_2_1/Firmware/Interface_uC_PMD/C/c-motion.c **** 	return SendCommandWord(axis_handle, PMDOPSetPhaseAngle, phaseAngle);
 635:C:/Jarboter_V_2_1/Firmware/Interface_uC_PMD/C/c-motion.c **** }
 636:C:/Jarboter_V_2_1/Firmware/Interface_uC_PMD/C/c-motion.c **** 
 637:C:/Jarboter_V_2_1/Firmware/Interface_uC_PMD/C/c-motion.c **** PMDresult PMDGetPhaseAngle(PMDAxisHandle* axis_handle, PMDuint16* phaseAngle)
 638:C:/Jarboter_V_2_1/Firmware/Interface_uC_PMD/C/c-motion.c **** {
 639:C:/Jarboter_V_2_1/Firmware/Interface_uC_PMD/C/c-motion.c **** 	return SendCommandGetWord(axis_handle, PMDOPGetPhaseAngle, phaseAngle);
 640:C:/Jarboter_V_2_1/Firmware/Interface_uC_PMD/C/c-motion.c **** }
 641:C:/Jarboter_V_2_1/Firmware/Interface_uC_PMD/C/c-motion.c **** 
 642:C:/Jarboter_V_2_1/Firmware/Interface_uC_PMD/C/c-motion.c **** PMDresult PMDSetPhaseCorrectionMode(PMDAxisHandle* axis_handle, PMDuint16 mode)
 643:C:/Jarboter_V_2_1/Firmware/Interface_uC_PMD/C/c-motion.c **** {
 644:C:/Jarboter_V_2_1/Firmware/Interface_uC_PMD/C/c-motion.c **** 	return SendCommandWord(axis_handle, PMDOPSetPhaseCorrectionMode, mode);
 645:C:/Jarboter_V_2_1/Firmware/Interface_uC_PMD/C/c-motion.c **** }
 646:C:/Jarboter_V_2_1/Firmware/Interface_uC_PMD/C/c-motion.c **** 
 647:C:/Jarboter_V_2_1/Firmware/Interface_uC_PMD/C/c-motion.c **** PMDresult PMDGetPhaseCorrectionMode(PMDAxisHandle* axis_handle, PMDuint16* mode)
 648:C:/Jarboter_V_2_1/Firmware/Interface_uC_PMD/C/c-motion.c **** {
 649:C:/Jarboter_V_2_1/Firmware/Interface_uC_PMD/C/c-motion.c **** 	return SendCommandGetWord(axis_handle, PMDOPGetPhaseCorrectionMode, mode);
 650:C:/Jarboter_V_2_1/Firmware/Interface_uC_PMD/C/c-motion.c **** }
 651:C:/Jarboter_V_2_1/Firmware/Interface_uC_PMD/C/c-motion.c **** 
 652:C:/Jarboter_V_2_1/Firmware/Interface_uC_PMD/C/c-motion.c **** PMDresult PMDInitializePhase(PMDAxisHandle* axis_handle)
 653:C:/Jarboter_V_2_1/Firmware/Interface_uC_PMD/C/c-motion.c **** {
 654:C:/Jarboter_V_2_1/Firmware/Interface_uC_PMD/C/c-motion.c **** 	return SendCommand(axis_handle, PMDOPInitializePhase);
 655:C:/Jarboter_V_2_1/Firmware/Interface_uC_PMD/C/c-motion.c **** }
 656:C:/Jarboter_V_2_1/Firmware/Interface_uC_PMD/C/c-motion.c **** 
 657:C:/Jarboter_V_2_1/Firmware/Interface_uC_PMD/C/c-motion.c **** PMDresult PMDGetPhaseCommand(PMDAxisHandle* axis_handle, PMDuint16 phase, PMDint16* command)
 658:C:/Jarboter_V_2_1/Firmware/Interface_uC_PMD/C/c-motion.c **** {
 659:C:/Jarboter_V_2_1/Firmware/Interface_uC_PMD/C/c-motion.c **** 	return SendCommandWordGetWord(axis_handle, PMDOPGetPhaseCommand, phase, (PMDuint16*)command);
 660:C:/Jarboter_V_2_1/Firmware/Interface_uC_PMD/C/c-motion.c **** }
 661:C:/Jarboter_V_2_1/Firmware/Interface_uC_PMD/C/c-motion.c **** 
 662:C:/Jarboter_V_2_1/Firmware/Interface_uC_PMD/C/c-motion.c **** 
 663:C:/Jarboter_V_2_1/Firmware/Interface_uC_PMD/C/c-motion.c **** // External Memory
 664:C:/Jarboter_V_2_1/Firmware/Interface_uC_PMD/C/c-motion.c **** PMDresult PMDSetBufferStart(PMDAxisHandle* axis_handle, PMDuint16 bufferID, PMDuint32 bufferStart)
 665:C:/Jarboter_V_2_1/Firmware/Interface_uC_PMD/C/c-motion.c **** {
 666:C:/Jarboter_V_2_1/Firmware/Interface_uC_PMD/C/c-motion.c **** 	PMDAxis axis = axis_handle->axis;
 667:C:/Jarboter_V_2_1/Firmware/Interface_uC_PMD/C/c-motion.c **** 	PMDuint16 result;
 668:C:/Jarboter_V_2_1/Firmware/Interface_uC_PMD/C/c-motion.c **** 
 669:C:/Jarboter_V_2_1/Firmware/Interface_uC_PMD/C/c-motion.c **** 	// set the axis number to zero
 670:C:/Jarboter_V_2_1/Firmware/Interface_uC_PMD/C/c-motion.c **** 	axis_handle->axis = 0;
 671:C:/Jarboter_V_2_1/Firmware/Interface_uC_PMD/C/c-motion.c **** 
 672:C:/Jarboter_V_2_1/Firmware/Interface_uC_PMD/C/c-motion.c **** 	result = SendCommandWordLong(axis_handle, PMDOPSetBufferStart, bufferID, bufferStart);
 673:C:/Jarboter_V_2_1/Firmware/Interface_uC_PMD/C/c-motion.c **** 
 674:C:/Jarboter_V_2_1/Firmware/Interface_uC_PMD/C/c-motion.c **** 	axis_handle->axis = axis;
 675:C:/Jarboter_V_2_1/Firmware/Interface_uC_PMD/C/c-motion.c **** 
 676:C:/Jarboter_V_2_1/Firmware/Interface_uC_PMD/C/c-motion.c **** 	return result;
 677:C:/Jarboter_V_2_1/Firmware/Interface_uC_PMD/C/c-motion.c **** }
 678:C:/Jarboter_V_2_1/Firmware/Interface_uC_PMD/C/c-motion.c **** 
 679:C:/Jarboter_V_2_1/Firmware/Interface_uC_PMD/C/c-motion.c **** PMDresult PMDGetBufferStart(PMDAxisHandle* axis_handle, PMDuint16 bufferID, PMDuint32* bufferStart)
 680:C:/Jarboter_V_2_1/Firmware/Interface_uC_PMD/C/c-motion.c **** {
 681:C:/Jarboter_V_2_1/Firmware/Interface_uC_PMD/C/c-motion.c **** 	PMDAxis axis = axis_handle->axis;
 682:C:/Jarboter_V_2_1/Firmware/Interface_uC_PMD/C/c-motion.c **** 	PMDuint16 result;
 683:C:/Jarboter_V_2_1/Firmware/Interface_uC_PMD/C/c-motion.c **** 
 684:C:/Jarboter_V_2_1/Firmware/Interface_uC_PMD/C/c-motion.c **** 	// set the axis number to zero
 685:C:/Jarboter_V_2_1/Firmware/Interface_uC_PMD/C/c-motion.c **** 	axis_handle->axis = 0;
 686:C:/Jarboter_V_2_1/Firmware/Interface_uC_PMD/C/c-motion.c **** 
 687:C:/Jarboter_V_2_1/Firmware/Interface_uC_PMD/C/c-motion.c **** 	result = SendCommandWordGetLong(axis_handle, PMDOPGetBufferStart, bufferID, bufferStart);
 688:C:/Jarboter_V_2_1/Firmware/Interface_uC_PMD/C/c-motion.c **** 
 689:C:/Jarboter_V_2_1/Firmware/Interface_uC_PMD/C/c-motion.c **** 	axis_handle->axis = axis;
 690:C:/Jarboter_V_2_1/Firmware/Interface_uC_PMD/C/c-motion.c **** 
 691:C:/Jarboter_V_2_1/Firmware/Interface_uC_PMD/C/c-motion.c **** 	return result;
 692:C:/Jarboter_V_2_1/Firmware/Interface_uC_PMD/C/c-motion.c **** }
 693:C:/Jarboter_V_2_1/Firmware/Interface_uC_PMD/C/c-motion.c **** 
 694:C:/Jarboter_V_2_1/Firmware/Interface_uC_PMD/C/c-motion.c **** PMDresult PMDSetBufferLength(PMDAxisHandle* axis_handle, PMDuint16 bufferID, PMDuint32 bufferLength
 695:C:/Jarboter_V_2_1/Firmware/Interface_uC_PMD/C/c-motion.c **** {
 696:C:/Jarboter_V_2_1/Firmware/Interface_uC_PMD/C/c-motion.c **** 	PMDAxis axis = axis_handle->axis;
 697:C:/Jarboter_V_2_1/Firmware/Interface_uC_PMD/C/c-motion.c **** 	PMDuint16 result;
 698:C:/Jarboter_V_2_1/Firmware/Interface_uC_PMD/C/c-motion.c **** 
 699:C:/Jarboter_V_2_1/Firmware/Interface_uC_PMD/C/c-motion.c **** 	// set the axis number to zero
 700:C:/Jarboter_V_2_1/Firmware/Interface_uC_PMD/C/c-motion.c **** 	axis_handle->axis = 0;
 701:C:/Jarboter_V_2_1/Firmware/Interface_uC_PMD/C/c-motion.c **** 
 702:C:/Jarboter_V_2_1/Firmware/Interface_uC_PMD/C/c-motion.c **** 	result = SendCommandWordLong(axis_handle, PMDOPSetBufferLength, bufferID, bufferLength);
 703:C:/Jarboter_V_2_1/Firmware/Interface_uC_PMD/C/c-motion.c **** 
 704:C:/Jarboter_V_2_1/Firmware/Interface_uC_PMD/C/c-motion.c **** 	axis_handle->axis = axis;
 705:C:/Jarboter_V_2_1/Firmware/Interface_uC_PMD/C/c-motion.c **** 
 706:C:/Jarboter_V_2_1/Firmware/Interface_uC_PMD/C/c-motion.c **** 	return result;
 707:C:/Jarboter_V_2_1/Firmware/Interface_uC_PMD/C/c-motion.c **** }
 708:C:/Jarboter_V_2_1/Firmware/Interface_uC_PMD/C/c-motion.c **** 
 709:C:/Jarboter_V_2_1/Firmware/Interface_uC_PMD/C/c-motion.c **** PMDresult PMDGetBufferLength(PMDAxisHandle* axis_handle, PMDuint16 bufferID, PMDuint32* bufferLengt
 710:C:/Jarboter_V_2_1/Firmware/Interface_uC_PMD/C/c-motion.c **** {
 711:C:/Jarboter_V_2_1/Firmware/Interface_uC_PMD/C/c-motion.c **** 	PMDAxis axis = axis_handle->axis;
 712:C:/Jarboter_V_2_1/Firmware/Interface_uC_PMD/C/c-motion.c **** 	PMDuint16 result;
 713:C:/Jarboter_V_2_1/Firmware/Interface_uC_PMD/C/c-motion.c **** 
 714:C:/Jarboter_V_2_1/Firmware/Interface_uC_PMD/C/c-motion.c **** 	// set the axis number to zero
 715:C:/Jarboter_V_2_1/Firmware/Interface_uC_PMD/C/c-motion.c **** 	axis_handle->axis = 0;
 716:C:/Jarboter_V_2_1/Firmware/Interface_uC_PMD/C/c-motion.c **** 
 717:C:/Jarboter_V_2_1/Firmware/Interface_uC_PMD/C/c-motion.c **** 	result = SendCommandWordGetLong(axis_handle, PMDOPGetBufferLength, bufferID, bufferLength);
 718:C:/Jarboter_V_2_1/Firmware/Interface_uC_PMD/C/c-motion.c **** 
 719:C:/Jarboter_V_2_1/Firmware/Interface_uC_PMD/C/c-motion.c **** 	axis_handle->axis = axis;
 720:C:/Jarboter_V_2_1/Firmware/Interface_uC_PMD/C/c-motion.c **** 
 721:C:/Jarboter_V_2_1/Firmware/Interface_uC_PMD/C/c-motion.c **** 	return result;
 722:C:/Jarboter_V_2_1/Firmware/Interface_uC_PMD/C/c-motion.c **** }
 723:C:/Jarboter_V_2_1/Firmware/Interface_uC_PMD/C/c-motion.c **** 
 724:C:/Jarboter_V_2_1/Firmware/Interface_uC_PMD/C/c-motion.c **** PMDresult PMDSetBufferFunction(PMDAxisHandle* axis_handle, PMDuint16 function, PMDint16 bufferID)
 725:C:/Jarboter_V_2_1/Firmware/Interface_uC_PMD/C/c-motion.c **** {
 726:C:/Jarboter_V_2_1/Firmware/Interface_uC_PMD/C/c-motion.c **** 	return SendCommandWordWord(axis_handle, PMDOPSetBufferFunction, function, (PMDuint16)bufferID);
 727:C:/Jarboter_V_2_1/Firmware/Interface_uC_PMD/C/c-motion.c **** }
 728:C:/Jarboter_V_2_1/Firmware/Interface_uC_PMD/C/c-motion.c **** 
 729:C:/Jarboter_V_2_1/Firmware/Interface_uC_PMD/C/c-motion.c **** PMDresult PMDGetBufferFunction(PMDAxisHandle* axis_handle, PMDuint16 function, PMDint16* bufferID)
 730:C:/Jarboter_V_2_1/Firmware/Interface_uC_PMD/C/c-motion.c **** {
 731:C:/Jarboter_V_2_1/Firmware/Interface_uC_PMD/C/c-motion.c **** 	return SendCommandWordGetWord(axis_handle, PMDOPGetBufferFunction, function, (PMDuint16*)bufferID)
 732:C:/Jarboter_V_2_1/Firmware/Interface_uC_PMD/C/c-motion.c **** }
 733:C:/Jarboter_V_2_1/Firmware/Interface_uC_PMD/C/c-motion.c **** 
 734:C:/Jarboter_V_2_1/Firmware/Interface_uC_PMD/C/c-motion.c **** PMDresult PMDWriteBuffer(PMDAxisHandle* axis_handle, PMDuint16 bufferID, PMDint32 data)
 735:C:/Jarboter_V_2_1/Firmware/Interface_uC_PMD/C/c-motion.c **** {
 736:C:/Jarboter_V_2_1/Firmware/Interface_uC_PMD/C/c-motion.c **** 	PMDAxis axis = axis_handle->axis;
 737:C:/Jarboter_V_2_1/Firmware/Interface_uC_PMD/C/c-motion.c **** 	PMDuint16 result;
 738:C:/Jarboter_V_2_1/Firmware/Interface_uC_PMD/C/c-motion.c **** 
 739:C:/Jarboter_V_2_1/Firmware/Interface_uC_PMD/C/c-motion.c **** 	// set the axis number to zero
 740:C:/Jarboter_V_2_1/Firmware/Interface_uC_PMD/C/c-motion.c **** 	axis_handle->axis = 0;
 741:C:/Jarboter_V_2_1/Firmware/Interface_uC_PMD/C/c-motion.c **** 
 742:C:/Jarboter_V_2_1/Firmware/Interface_uC_PMD/C/c-motion.c **** 	result = SendCommandWordLong(axis_handle, PMDOPWriteBuffer, bufferID, (PMDuint32)data);
 743:C:/Jarboter_V_2_1/Firmware/Interface_uC_PMD/C/c-motion.c **** 
 744:C:/Jarboter_V_2_1/Firmware/Interface_uC_PMD/C/c-motion.c **** 	axis_handle->axis = axis;
 745:C:/Jarboter_V_2_1/Firmware/Interface_uC_PMD/C/c-motion.c **** 
 746:C:/Jarboter_V_2_1/Firmware/Interface_uC_PMD/C/c-motion.c **** 	return result;
 747:C:/Jarboter_V_2_1/Firmware/Interface_uC_PMD/C/c-motion.c **** }
 748:C:/Jarboter_V_2_1/Firmware/Interface_uC_PMD/C/c-motion.c **** 
 749:C:/Jarboter_V_2_1/Firmware/Interface_uC_PMD/C/c-motion.c **** PMDresult PMDReadBuffer(PMDAxisHandle* axis_handle, PMDuint16 bufferID, PMDint32* data)
 750:C:/Jarboter_V_2_1/Firmware/Interface_uC_PMD/C/c-motion.c **** {
 751:C:/Jarboter_V_2_1/Firmware/Interface_uC_PMD/C/c-motion.c **** 	PMDAxis axis = axis_handle->axis;
 752:C:/Jarboter_V_2_1/Firmware/Interface_uC_PMD/C/c-motion.c **** 	PMDuint16 result;
 753:C:/Jarboter_V_2_1/Firmware/Interface_uC_PMD/C/c-motion.c **** 
 754:C:/Jarboter_V_2_1/Firmware/Interface_uC_PMD/C/c-motion.c **** 	// set the axis number to zero
 755:C:/Jarboter_V_2_1/Firmware/Interface_uC_PMD/C/c-motion.c **** 	axis_handle->axis = 0;
 756:C:/Jarboter_V_2_1/Firmware/Interface_uC_PMD/C/c-motion.c **** 
 757:C:/Jarboter_V_2_1/Firmware/Interface_uC_PMD/C/c-motion.c **** 	result = SendCommandWordGetLong(axis_handle, PMDOPReadBuffer, bufferID, (PMDuint32*)data);
 758:C:/Jarboter_V_2_1/Firmware/Interface_uC_PMD/C/c-motion.c **** 
 759:C:/Jarboter_V_2_1/Firmware/Interface_uC_PMD/C/c-motion.c **** 	axis_handle->axis = axis;
 760:C:/Jarboter_V_2_1/Firmware/Interface_uC_PMD/C/c-motion.c **** 
 761:C:/Jarboter_V_2_1/Firmware/Interface_uC_PMD/C/c-motion.c **** 	return result;
 762:C:/Jarboter_V_2_1/Firmware/Interface_uC_PMD/C/c-motion.c **** }
 763:C:/Jarboter_V_2_1/Firmware/Interface_uC_PMD/C/c-motion.c **** 
 764:C:/Jarboter_V_2_1/Firmware/Interface_uC_PMD/C/c-motion.c **** PMDresult PMDSetBufferWriteIndex(PMDAxisHandle* axis_handle, PMDuint16 bufferID, PMDuint32 writeInd
 765:C:/Jarboter_V_2_1/Firmware/Interface_uC_PMD/C/c-motion.c **** {
 766:C:/Jarboter_V_2_1/Firmware/Interface_uC_PMD/C/c-motion.c **** 	PMDAxis axis = axis_handle->axis;
 767:C:/Jarboter_V_2_1/Firmware/Interface_uC_PMD/C/c-motion.c **** 	PMDuint16 result;
 768:C:/Jarboter_V_2_1/Firmware/Interface_uC_PMD/C/c-motion.c **** 
 769:C:/Jarboter_V_2_1/Firmware/Interface_uC_PMD/C/c-motion.c **** 	// set the axis number to zero
 770:C:/Jarboter_V_2_1/Firmware/Interface_uC_PMD/C/c-motion.c **** 	axis_handle->axis = 0;
 771:C:/Jarboter_V_2_1/Firmware/Interface_uC_PMD/C/c-motion.c **** 
 772:C:/Jarboter_V_2_1/Firmware/Interface_uC_PMD/C/c-motion.c **** 	result = SendCommandWordLong(axis_handle, PMDOPSetBufferWriteIndex, bufferID, writeIndex);
 773:C:/Jarboter_V_2_1/Firmware/Interface_uC_PMD/C/c-motion.c **** 
 774:C:/Jarboter_V_2_1/Firmware/Interface_uC_PMD/C/c-motion.c **** 	axis_handle->axis = axis;
 775:C:/Jarboter_V_2_1/Firmware/Interface_uC_PMD/C/c-motion.c **** 
 776:C:/Jarboter_V_2_1/Firmware/Interface_uC_PMD/C/c-motion.c **** 	return result;
 777:C:/Jarboter_V_2_1/Firmware/Interface_uC_PMD/C/c-motion.c **** }
 778:C:/Jarboter_V_2_1/Firmware/Interface_uC_PMD/C/c-motion.c **** 
 779:C:/Jarboter_V_2_1/Firmware/Interface_uC_PMD/C/c-motion.c **** PMDresult PMDGetBufferWriteIndex(PMDAxisHandle* axis_handle, PMDuint16 bufferID, PMDuint32* writeIn
 780:C:/Jarboter_V_2_1/Firmware/Interface_uC_PMD/C/c-motion.c **** {
 781:C:/Jarboter_V_2_1/Firmware/Interface_uC_PMD/C/c-motion.c **** 	PMDAxis axis = axis_handle->axis;
 782:C:/Jarboter_V_2_1/Firmware/Interface_uC_PMD/C/c-motion.c **** 	PMDuint16 result;
 783:C:/Jarboter_V_2_1/Firmware/Interface_uC_PMD/C/c-motion.c **** 
 784:C:/Jarboter_V_2_1/Firmware/Interface_uC_PMD/C/c-motion.c **** 	// set the axis number to zero
 785:C:/Jarboter_V_2_1/Firmware/Interface_uC_PMD/C/c-motion.c **** 	axis_handle->axis = 0;
 786:C:/Jarboter_V_2_1/Firmware/Interface_uC_PMD/C/c-motion.c **** 
 787:C:/Jarboter_V_2_1/Firmware/Interface_uC_PMD/C/c-motion.c **** 	result = SendCommandWordGetLong(axis_handle, PMDOPGetBufferWriteIndex, bufferID, writeIndex);
 788:C:/Jarboter_V_2_1/Firmware/Interface_uC_PMD/C/c-motion.c **** 
 789:C:/Jarboter_V_2_1/Firmware/Interface_uC_PMD/C/c-motion.c **** 	axis_handle->axis = axis;
 790:C:/Jarboter_V_2_1/Firmware/Interface_uC_PMD/C/c-motion.c **** 
 791:C:/Jarboter_V_2_1/Firmware/Interface_uC_PMD/C/c-motion.c **** 	return result;
 792:C:/Jarboter_V_2_1/Firmware/Interface_uC_PMD/C/c-motion.c **** }
 793:C:/Jarboter_V_2_1/Firmware/Interface_uC_PMD/C/c-motion.c **** 
 794:C:/Jarboter_V_2_1/Firmware/Interface_uC_PMD/C/c-motion.c **** PMDresult PMDSetBufferReadIndex(PMDAxisHandle* axis_handle, PMDuint16 bufferID, PMDuint32 readIndex
 795:C:/Jarboter_V_2_1/Firmware/Interface_uC_PMD/C/c-motion.c **** {
 796:C:/Jarboter_V_2_1/Firmware/Interface_uC_PMD/C/c-motion.c **** 	PMDAxis axis = axis_handle->axis;
 797:C:/Jarboter_V_2_1/Firmware/Interface_uC_PMD/C/c-motion.c **** 	PMDuint16 result;
 798:C:/Jarboter_V_2_1/Firmware/Interface_uC_PMD/C/c-motion.c **** 
 799:C:/Jarboter_V_2_1/Firmware/Interface_uC_PMD/C/c-motion.c **** 	// set the axis number to zero
 800:C:/Jarboter_V_2_1/Firmware/Interface_uC_PMD/C/c-motion.c **** 	axis_handle->axis = 0;
 801:C:/Jarboter_V_2_1/Firmware/Interface_uC_PMD/C/c-motion.c **** 
 802:C:/Jarboter_V_2_1/Firmware/Interface_uC_PMD/C/c-motion.c **** 	result = SendCommandWordLong(axis_handle, PMDOPSetBufferReadIndex, bufferID, readIndex);
 803:C:/Jarboter_V_2_1/Firmware/Interface_uC_PMD/C/c-motion.c **** 
 804:C:/Jarboter_V_2_1/Firmware/Interface_uC_PMD/C/c-motion.c **** 	axis_handle->axis = axis;
 805:C:/Jarboter_V_2_1/Firmware/Interface_uC_PMD/C/c-motion.c **** 
 806:C:/Jarboter_V_2_1/Firmware/Interface_uC_PMD/C/c-motion.c **** 	return result;
 807:C:/Jarboter_V_2_1/Firmware/Interface_uC_PMD/C/c-motion.c **** }
 808:C:/Jarboter_V_2_1/Firmware/Interface_uC_PMD/C/c-motion.c **** 
 809:C:/Jarboter_V_2_1/Firmware/Interface_uC_PMD/C/c-motion.c **** PMDresult PMDGetBufferReadIndex(PMDAxisHandle* axis_handle, PMDuint16 bufferID, PMDuint32* readInde
 810:C:/Jarboter_V_2_1/Firmware/Interface_uC_PMD/C/c-motion.c **** {
 811:C:/Jarboter_V_2_1/Firmware/Interface_uC_PMD/C/c-motion.c **** 	PMDAxis axis = axis_handle->axis;
 812:C:/Jarboter_V_2_1/Firmware/Interface_uC_PMD/C/c-motion.c **** 	PMDuint16 result;
 813:C:/Jarboter_V_2_1/Firmware/Interface_uC_PMD/C/c-motion.c **** 
 814:C:/Jarboter_V_2_1/Firmware/Interface_uC_PMD/C/c-motion.c **** 	// set the axis number to zero
 815:C:/Jarboter_V_2_1/Firmware/Interface_uC_PMD/C/c-motion.c **** 	axis_handle->axis = 0;
 816:C:/Jarboter_V_2_1/Firmware/Interface_uC_PMD/C/c-motion.c **** 
 817:C:/Jarboter_V_2_1/Firmware/Interface_uC_PMD/C/c-motion.c **** 	result = SendCommandWordGetLong(axis_handle, PMDOPGetBufferReadIndex, bufferID, readIndex);
 818:C:/Jarboter_V_2_1/Firmware/Interface_uC_PMD/C/c-motion.c **** 
 819:C:/Jarboter_V_2_1/Firmware/Interface_uC_PMD/C/c-motion.c **** 	axis_handle->axis = axis;
 820:C:/Jarboter_V_2_1/Firmware/Interface_uC_PMD/C/c-motion.c **** 
 821:C:/Jarboter_V_2_1/Firmware/Interface_uC_PMD/C/c-motion.c **** 	return result;
 822:C:/Jarboter_V_2_1/Firmware/Interface_uC_PMD/C/c-motion.c **** }
 823:C:/Jarboter_V_2_1/Firmware/Interface_uC_PMD/C/c-motion.c **** 
 824:C:/Jarboter_V_2_1/Firmware/Interface_uC_PMD/C/c-motion.c **** 
 825:C:/Jarboter_V_2_1/Firmware/Interface_uC_PMD/C/c-motion.c **** // Trace Operations
 826:C:/Jarboter_V_2_1/Firmware/Interface_uC_PMD/C/c-motion.c **** PMDresult PMDSetTraceMode(PMDAxisHandle* axis_handle, PMDuint16 mode)
 827:C:/Jarboter_V_2_1/Firmware/Interface_uC_PMD/C/c-motion.c **** {
 828:C:/Jarboter_V_2_1/Firmware/Interface_uC_PMD/C/c-motion.c **** 	PMDAxis axis = axis_handle->axis;
 829:C:/Jarboter_V_2_1/Firmware/Interface_uC_PMD/C/c-motion.c **** 	PMDuint16 result;
 830:C:/Jarboter_V_2_1/Firmware/Interface_uC_PMD/C/c-motion.c **** 
 831:C:/Jarboter_V_2_1/Firmware/Interface_uC_PMD/C/c-motion.c **** 	// set the axis number to zero
 832:C:/Jarboter_V_2_1/Firmware/Interface_uC_PMD/C/c-motion.c **** 	axis_handle->axis = 0;
 833:C:/Jarboter_V_2_1/Firmware/Interface_uC_PMD/C/c-motion.c **** 
 834:C:/Jarboter_V_2_1/Firmware/Interface_uC_PMD/C/c-motion.c **** 	result = SendCommandWord(axis_handle, PMDOPSetTraceMode, mode);
 835:C:/Jarboter_V_2_1/Firmware/Interface_uC_PMD/C/c-motion.c **** 
 836:C:/Jarboter_V_2_1/Firmware/Interface_uC_PMD/C/c-motion.c **** 	axis_handle->axis = axis;
 837:C:/Jarboter_V_2_1/Firmware/Interface_uC_PMD/C/c-motion.c **** 
 838:C:/Jarboter_V_2_1/Firmware/Interface_uC_PMD/C/c-motion.c **** 	return result;
 839:C:/Jarboter_V_2_1/Firmware/Interface_uC_PMD/C/c-motion.c **** }
 840:C:/Jarboter_V_2_1/Firmware/Interface_uC_PMD/C/c-motion.c **** 
 841:C:/Jarboter_V_2_1/Firmware/Interface_uC_PMD/C/c-motion.c **** PMDresult PMDGetTraceMode(PMDAxisHandle* axis_handle, PMDuint16* mode)
 842:C:/Jarboter_V_2_1/Firmware/Interface_uC_PMD/C/c-motion.c **** {
 843:C:/Jarboter_V_2_1/Firmware/Interface_uC_PMD/C/c-motion.c **** 	PMDAxis axis = axis_handle->axis;
 844:C:/Jarboter_V_2_1/Firmware/Interface_uC_PMD/C/c-motion.c **** 	PMDuint16 result;
 845:C:/Jarboter_V_2_1/Firmware/Interface_uC_PMD/C/c-motion.c **** 
 846:C:/Jarboter_V_2_1/Firmware/Interface_uC_PMD/C/c-motion.c **** 	// set the axis number to zero
 847:C:/Jarboter_V_2_1/Firmware/Interface_uC_PMD/C/c-motion.c **** 	axis_handle->axis = 0;
 848:C:/Jarboter_V_2_1/Firmware/Interface_uC_PMD/C/c-motion.c **** 
 849:C:/Jarboter_V_2_1/Firmware/Interface_uC_PMD/C/c-motion.c **** 	result = SendCommandGetWord(axis_handle, PMDOPGetTraceMode, mode);
 850:C:/Jarboter_V_2_1/Firmware/Interface_uC_PMD/C/c-motion.c **** 
 851:C:/Jarboter_V_2_1/Firmware/Interface_uC_PMD/C/c-motion.c **** 	axis_handle->axis = axis;
 852:C:/Jarboter_V_2_1/Firmware/Interface_uC_PMD/C/c-motion.c **** 
 853:C:/Jarboter_V_2_1/Firmware/Interface_uC_PMD/C/c-motion.c **** 	return result;
 854:C:/Jarboter_V_2_1/Firmware/Interface_uC_PMD/C/c-motion.c **** }
 855:C:/Jarboter_V_2_1/Firmware/Interface_uC_PMD/C/c-motion.c **** 
 856:C:/Jarboter_V_2_1/Firmware/Interface_uC_PMD/C/c-motion.c **** PMDresult PMDSetTracePeriod(PMDAxisHandle* axis_handle, PMDuint16 tracePeriod)
 857:C:/Jarboter_V_2_1/Firmware/Interface_uC_PMD/C/c-motion.c **** {
 858:C:/Jarboter_V_2_1/Firmware/Interface_uC_PMD/C/c-motion.c **** 	PMDAxis axis = axis_handle->axis;
 859:C:/Jarboter_V_2_1/Firmware/Interface_uC_PMD/C/c-motion.c **** 	PMDuint16 result;
 860:C:/Jarboter_V_2_1/Firmware/Interface_uC_PMD/C/c-motion.c **** 
 861:C:/Jarboter_V_2_1/Firmware/Interface_uC_PMD/C/c-motion.c **** 	// set the axis number to zero
 862:C:/Jarboter_V_2_1/Firmware/Interface_uC_PMD/C/c-motion.c **** 	axis_handle->axis = 0;
 863:C:/Jarboter_V_2_1/Firmware/Interface_uC_PMD/C/c-motion.c **** 
 864:C:/Jarboter_V_2_1/Firmware/Interface_uC_PMD/C/c-motion.c **** 	result = SendCommandWord(axis_handle, PMDOPSetTracePeriod, tracePeriod);
 865:C:/Jarboter_V_2_1/Firmware/Interface_uC_PMD/C/c-motion.c **** 
 866:C:/Jarboter_V_2_1/Firmware/Interface_uC_PMD/C/c-motion.c **** 	axis_handle->axis = axis;
 867:C:/Jarboter_V_2_1/Firmware/Interface_uC_PMD/C/c-motion.c **** 
 868:C:/Jarboter_V_2_1/Firmware/Interface_uC_PMD/C/c-motion.c **** 	return result;
 869:C:/Jarboter_V_2_1/Firmware/Interface_uC_PMD/C/c-motion.c **** }
 870:C:/Jarboter_V_2_1/Firmware/Interface_uC_PMD/C/c-motion.c **** 
 871:C:/Jarboter_V_2_1/Firmware/Interface_uC_PMD/C/c-motion.c **** PMDresult PMDGetTracePeriod(PMDAxisHandle* axis_handle, PMDuint16* tracePeriod)
 872:C:/Jarboter_V_2_1/Firmware/Interface_uC_PMD/C/c-motion.c **** {
 873:C:/Jarboter_V_2_1/Firmware/Interface_uC_PMD/C/c-motion.c **** 	PMDAxis axis = axis_handle->axis;
 874:C:/Jarboter_V_2_1/Firmware/Interface_uC_PMD/C/c-motion.c **** 	PMDuint16 result;
 875:C:/Jarboter_V_2_1/Firmware/Interface_uC_PMD/C/c-motion.c **** 
 876:C:/Jarboter_V_2_1/Firmware/Interface_uC_PMD/C/c-motion.c **** 	// set the axis number to zero
 877:C:/Jarboter_V_2_1/Firmware/Interface_uC_PMD/C/c-motion.c **** 	axis_handle->axis = 0;
 878:C:/Jarboter_V_2_1/Firmware/Interface_uC_PMD/C/c-motion.c **** 
 879:C:/Jarboter_V_2_1/Firmware/Interface_uC_PMD/C/c-motion.c **** 	result = SendCommandGetWord(axis_handle, PMDOPGetTracePeriod, tracePeriod);
 880:C:/Jarboter_V_2_1/Firmware/Interface_uC_PMD/C/c-motion.c **** 
 881:C:/Jarboter_V_2_1/Firmware/Interface_uC_PMD/C/c-motion.c **** 	axis_handle->axis = axis;
 882:C:/Jarboter_V_2_1/Firmware/Interface_uC_PMD/C/c-motion.c **** 
 883:C:/Jarboter_V_2_1/Firmware/Interface_uC_PMD/C/c-motion.c **** 	return result;
 884:C:/Jarboter_V_2_1/Firmware/Interface_uC_PMD/C/c-motion.c **** }
 885:C:/Jarboter_V_2_1/Firmware/Interface_uC_PMD/C/c-motion.c **** 
 886:C:/Jarboter_V_2_1/Firmware/Interface_uC_PMD/C/c-motion.c **** PMDresult PMDSetTraceVariable(PMDAxisHandle* axis_handle, PMDuint16 traceID, PMDAxis traceAxis, PMD
 887:C:/Jarboter_V_2_1/Firmware/Interface_uC_PMD/C/c-motion.c **** {
 888:C:/Jarboter_V_2_1/Firmware/Interface_uC_PMD/C/c-motion.c **** 	PMDAxis axis = axis_handle->axis;
 889:C:/Jarboter_V_2_1/Firmware/Interface_uC_PMD/C/c-motion.c **** 	PMDuint16 result;
 890:C:/Jarboter_V_2_1/Firmware/Interface_uC_PMD/C/c-motion.c **** 	PMDuint16 value;
 891:C:/Jarboter_V_2_1/Firmware/Interface_uC_PMD/C/c-motion.c **** 
 892:C:/Jarboter_V_2_1/Firmware/Interface_uC_PMD/C/c-motion.c **** 	// set the axis number to zero
 893:C:/Jarboter_V_2_1/Firmware/Interface_uC_PMD/C/c-motion.c **** 	axis_handle->axis = 0;
 894:C:/Jarboter_V_2_1/Firmware/Interface_uC_PMD/C/c-motion.c **** 
 895:C:/Jarboter_V_2_1/Firmware/Interface_uC_PMD/C/c-motion.c **** 	value = (PMDuint16)((traceAxis & nibbleMask) | ((variable & byteMask) << 8));
 896:C:/Jarboter_V_2_1/Firmware/Interface_uC_PMD/C/c-motion.c **** 	result = SendCommandWordWord(axis_handle, PMDOPSetTraceVariable, traceID, value);
 897:C:/Jarboter_V_2_1/Firmware/Interface_uC_PMD/C/c-motion.c **** 
 898:C:/Jarboter_V_2_1/Firmware/Interface_uC_PMD/C/c-motion.c **** 	axis_handle->axis = axis;
 899:C:/Jarboter_V_2_1/Firmware/Interface_uC_PMD/C/c-motion.c **** 
 900:C:/Jarboter_V_2_1/Firmware/Interface_uC_PMD/C/c-motion.c **** 	return result;
 901:C:/Jarboter_V_2_1/Firmware/Interface_uC_PMD/C/c-motion.c **** }
 902:C:/Jarboter_V_2_1/Firmware/Interface_uC_PMD/C/c-motion.c **** 
 903:C:/Jarboter_V_2_1/Firmware/Interface_uC_PMD/C/c-motion.c **** PMDresult PMDGetTraceVariable(PMDAxisHandle* axis_handle, PMDuint16 traceID, PMDAxis *traceAxis, PM
 904:C:/Jarboter_V_2_1/Firmware/Interface_uC_PMD/C/c-motion.c **** {
 905:C:/Jarboter_V_2_1/Firmware/Interface_uC_PMD/C/c-motion.c **** 	PMDAxis axis = axis_handle->axis;
 906:C:/Jarboter_V_2_1/Firmware/Interface_uC_PMD/C/c-motion.c **** 	PMDuint16 result;
 907:C:/Jarboter_V_2_1/Firmware/Interface_uC_PMD/C/c-motion.c **** 	PMDuint16 value;
 908:C:/Jarboter_V_2_1/Firmware/Interface_uC_PMD/C/c-motion.c **** 
 909:C:/Jarboter_V_2_1/Firmware/Interface_uC_PMD/C/c-motion.c **** 	// set the axis number to zero
 910:C:/Jarboter_V_2_1/Firmware/Interface_uC_PMD/C/c-motion.c **** 	axis_handle->axis = 0;
 911:C:/Jarboter_V_2_1/Firmware/Interface_uC_PMD/C/c-motion.c **** 
 912:C:/Jarboter_V_2_1/Firmware/Interface_uC_PMD/C/c-motion.c **** 	result = SendCommandWordGetWord(axis_handle, PMDOPGetTraceVariable, traceID, &value);
 913:C:/Jarboter_V_2_1/Firmware/Interface_uC_PMD/C/c-motion.c **** 	*traceAxis = (PMDAxis)(value & nibbleMask);
 914:C:/Jarboter_V_2_1/Firmware/Interface_uC_PMD/C/c-motion.c **** 	*variable = (PMDuint8)((value >> 8) & byteMask);
 915:C:/Jarboter_V_2_1/Firmware/Interface_uC_PMD/C/c-motion.c **** 
 916:C:/Jarboter_V_2_1/Firmware/Interface_uC_PMD/C/c-motion.c **** 	axis_handle->axis = axis;
 917:C:/Jarboter_V_2_1/Firmware/Interface_uC_PMD/C/c-motion.c **** 
 918:C:/Jarboter_V_2_1/Firmware/Interface_uC_PMD/C/c-motion.c **** 	return result;
 919:C:/Jarboter_V_2_1/Firmware/Interface_uC_PMD/C/c-motion.c **** }
 920:C:/Jarboter_V_2_1/Firmware/Interface_uC_PMD/C/c-motion.c **** 
 921:C:/Jarboter_V_2_1/Firmware/Interface_uC_PMD/C/c-motion.c **** PMDresult PMDSetTraceStart(PMDAxisHandle* axis_handle, PMDAxis traceAxis, PMDuint8 condition, PMDui
 922:C:/Jarboter_V_2_1/Firmware/Interface_uC_PMD/C/c-motion.c **** {
 923:C:/Jarboter_V_2_1/Firmware/Interface_uC_PMD/C/c-motion.c **** 	PMDuint16 value = (PMDuint16)((traceAxis & nibbleMask) | ((condition & nibbleMask) << 4));
 924:C:/Jarboter_V_2_1/Firmware/Interface_uC_PMD/C/c-motion.c **** 	PMDAxis axis = axis_handle->axis;
 925:C:/Jarboter_V_2_1/Firmware/Interface_uC_PMD/C/c-motion.c **** 	PMDuint16 result;
 926:C:/Jarboter_V_2_1/Firmware/Interface_uC_PMD/C/c-motion.c **** 
 927:C:/Jarboter_V_2_1/Firmware/Interface_uC_PMD/C/c-motion.c **** 	// set the axis number to zero
 928:C:/Jarboter_V_2_1/Firmware/Interface_uC_PMD/C/c-motion.c **** 	axis_handle->axis = 0;
 929:C:/Jarboter_V_2_1/Firmware/Interface_uC_PMD/C/c-motion.c **** 	
 930:C:/Jarboter_V_2_1/Firmware/Interface_uC_PMD/C/c-motion.c **** 	switch(condition)
 931:C:/Jarboter_V_2_1/Firmware/Interface_uC_PMD/C/c-motion.c **** 	{
 932:C:/Jarboter_V_2_1/Firmware/Interface_uC_PMD/C/c-motion.c **** 	case PMDTraceConditionEventStatus:
 933:C:/Jarboter_V_2_1/Firmware/Interface_uC_PMD/C/c-motion.c **** 	case PMDTraceConditionActivityStatus:
 934:C:/Jarboter_V_2_1/Firmware/Interface_uC_PMD/C/c-motion.c **** 	case PMDTraceConditionSignalStatus:
 935:C:/Jarboter_V_2_1/Firmware/Interface_uC_PMD/C/c-motion.c **** 		value |= ((bit & nibbleMask) << 8) | ((state & nibbleMask) << 12);
 936:C:/Jarboter_V_2_1/Firmware/Interface_uC_PMD/C/c-motion.c **** 		break;
 937:C:/Jarboter_V_2_1/Firmware/Interface_uC_PMD/C/c-motion.c **** 	default:
 938:C:/Jarboter_V_2_1/Firmware/Interface_uC_PMD/C/c-motion.c **** 		break;
 939:C:/Jarboter_V_2_1/Firmware/Interface_uC_PMD/C/c-motion.c **** 	}
 940:C:/Jarboter_V_2_1/Firmware/Interface_uC_PMD/C/c-motion.c **** 	result = SendCommandWord(axis_handle, PMDOPSetTraceStart, value);
 941:C:/Jarboter_V_2_1/Firmware/Interface_uC_PMD/C/c-motion.c **** 
 942:C:/Jarboter_V_2_1/Firmware/Interface_uC_PMD/C/c-motion.c **** 	axis_handle->axis = axis;
 943:C:/Jarboter_V_2_1/Firmware/Interface_uC_PMD/C/c-motion.c **** 
 944:C:/Jarboter_V_2_1/Firmware/Interface_uC_PMD/C/c-motion.c **** 	return result;
 945:C:/Jarboter_V_2_1/Firmware/Interface_uC_PMD/C/c-motion.c **** }
 946:C:/Jarboter_V_2_1/Firmware/Interface_uC_PMD/C/c-motion.c **** 
 947:C:/Jarboter_V_2_1/Firmware/Interface_uC_PMD/C/c-motion.c **** PMDresult PMDGetTraceStart(PMDAxisHandle* axis_handle, PMDAxis *traceAxis, PMDuint8* condition, PMD
 948:C:/Jarboter_V_2_1/Firmware/Interface_uC_PMD/C/c-motion.c **** {
 949:C:/Jarboter_V_2_1/Firmware/Interface_uC_PMD/C/c-motion.c **** 	PMDuint16 result;
 950:C:/Jarboter_V_2_1/Firmware/Interface_uC_PMD/C/c-motion.c **** 	PMDuint16 value;
 951:C:/Jarboter_V_2_1/Firmware/Interface_uC_PMD/C/c-motion.c **** 	PMDAxis axis = axis_handle->axis;
 952:C:/Jarboter_V_2_1/Firmware/Interface_uC_PMD/C/c-motion.c **** 
 953:C:/Jarboter_V_2_1/Firmware/Interface_uC_PMD/C/c-motion.c **** 	// set the axis number to zero
 954:C:/Jarboter_V_2_1/Firmware/Interface_uC_PMD/C/c-motion.c **** 	axis_handle->axis = 0;
 955:C:/Jarboter_V_2_1/Firmware/Interface_uC_PMD/C/c-motion.c **** 
 956:C:/Jarboter_V_2_1/Firmware/Interface_uC_PMD/C/c-motion.c **** 	result = SendCommandGetWord(axis_handle, PMDOPGetTraceStart, &value);
 957:C:/Jarboter_V_2_1/Firmware/Interface_uC_PMD/C/c-motion.c **** 	*traceAxis = (PMDAxis)((value & nibbleMask));
 958:C:/Jarboter_V_2_1/Firmware/Interface_uC_PMD/C/c-motion.c **** 	*condition = (PMDuint8)((value >> 4) & nibbleMask);
 959:C:/Jarboter_V_2_1/Firmware/Interface_uC_PMD/C/c-motion.c **** 	*bit = (PMDuint8)((value >> 8) & nibbleMask);
 960:C:/Jarboter_V_2_1/Firmware/Interface_uC_PMD/C/c-motion.c **** 	*state = (PMDuint8)((value >> 12) & nibbleMask);
 961:C:/Jarboter_V_2_1/Firmware/Interface_uC_PMD/C/c-motion.c **** 
 962:C:/Jarboter_V_2_1/Firmware/Interface_uC_PMD/C/c-motion.c **** 	axis_handle->axis = axis;
 963:C:/Jarboter_V_2_1/Firmware/Interface_uC_PMD/C/c-motion.c **** 
 964:C:/Jarboter_V_2_1/Firmware/Interface_uC_PMD/C/c-motion.c **** 	return result;
 965:C:/Jarboter_V_2_1/Firmware/Interface_uC_PMD/C/c-motion.c **** }
 966:C:/Jarboter_V_2_1/Firmware/Interface_uC_PMD/C/c-motion.c **** 
 967:C:/Jarboter_V_2_1/Firmware/Interface_uC_PMD/C/c-motion.c **** PMDresult PMDSetTraceStop(PMDAxisHandle* axis_handle, PMDAxis traceAxis, PMDuint8 condition, PMDuin
 968:C:/Jarboter_V_2_1/Firmware/Interface_uC_PMD/C/c-motion.c **** {
 969:C:/Jarboter_V_2_1/Firmware/Interface_uC_PMD/C/c-motion.c **** 	PMDuint16 value = (PMDuint16)((traceAxis & nibbleMask) | ((condition & nibbleMask) << 4));
 970:C:/Jarboter_V_2_1/Firmware/Interface_uC_PMD/C/c-motion.c **** 	PMDAxis axis = axis_handle->axis;
 971:C:/Jarboter_V_2_1/Firmware/Interface_uC_PMD/C/c-motion.c **** 	PMDuint16 result;
 972:C:/Jarboter_V_2_1/Firmware/Interface_uC_PMD/C/c-motion.c **** 
 973:C:/Jarboter_V_2_1/Firmware/Interface_uC_PMD/C/c-motion.c **** 	// set the axis number to zero
 974:C:/Jarboter_V_2_1/Firmware/Interface_uC_PMD/C/c-motion.c **** 	axis_handle->axis = 0;
 975:C:/Jarboter_V_2_1/Firmware/Interface_uC_PMD/C/c-motion.c **** 	
 976:C:/Jarboter_V_2_1/Firmware/Interface_uC_PMD/C/c-motion.c **** 	switch(condition)
 977:C:/Jarboter_V_2_1/Firmware/Interface_uC_PMD/C/c-motion.c **** 	{
 978:C:/Jarboter_V_2_1/Firmware/Interface_uC_PMD/C/c-motion.c **** 	case PMDTraceConditionEventStatus:
 979:C:/Jarboter_V_2_1/Firmware/Interface_uC_PMD/C/c-motion.c **** 	case PMDTraceConditionActivityStatus:
 980:C:/Jarboter_V_2_1/Firmware/Interface_uC_PMD/C/c-motion.c **** 	case PMDTraceConditionSignalStatus:
 981:C:/Jarboter_V_2_1/Firmware/Interface_uC_PMD/C/c-motion.c **** 		value |= ((bit & nibbleMask) << 8) | ((state & nibbleMask) << 12);
 982:C:/Jarboter_V_2_1/Firmware/Interface_uC_PMD/C/c-motion.c **** 		break;
 983:C:/Jarboter_V_2_1/Firmware/Interface_uC_PMD/C/c-motion.c **** 	default:
 984:C:/Jarboter_V_2_1/Firmware/Interface_uC_PMD/C/c-motion.c **** 		break;
 985:C:/Jarboter_V_2_1/Firmware/Interface_uC_PMD/C/c-motion.c **** 	}
 986:C:/Jarboter_V_2_1/Firmware/Interface_uC_PMD/C/c-motion.c **** 	result = SendCommandWord(axis_handle, PMDOPSetTraceStop, value);
 987:C:/Jarboter_V_2_1/Firmware/Interface_uC_PMD/C/c-motion.c **** 
 988:C:/Jarboter_V_2_1/Firmware/Interface_uC_PMD/C/c-motion.c **** 	axis_handle->axis = axis;
 989:C:/Jarboter_V_2_1/Firmware/Interface_uC_PMD/C/c-motion.c **** 
 990:C:/Jarboter_V_2_1/Firmware/Interface_uC_PMD/C/c-motion.c **** 	return result;
 991:C:/Jarboter_V_2_1/Firmware/Interface_uC_PMD/C/c-motion.c **** }
 992:C:/Jarboter_V_2_1/Firmware/Interface_uC_PMD/C/c-motion.c **** 
 993:C:/Jarboter_V_2_1/Firmware/Interface_uC_PMD/C/c-motion.c **** PMDresult PMDGetTraceStop(PMDAxisHandle* axis_handle, PMDAxis *traceAxis, PMDuint8* condition, PMDu
 994:C:/Jarboter_V_2_1/Firmware/Interface_uC_PMD/C/c-motion.c **** {
 995:C:/Jarboter_V_2_1/Firmware/Interface_uC_PMD/C/c-motion.c **** 	PMDuint16 result;
 996:C:/Jarboter_V_2_1/Firmware/Interface_uC_PMD/C/c-motion.c **** 	PMDuint16 value;
 997:C:/Jarboter_V_2_1/Firmware/Interface_uC_PMD/C/c-motion.c **** 	PMDAxis axis = axis_handle->axis;
 998:C:/Jarboter_V_2_1/Firmware/Interface_uC_PMD/C/c-motion.c **** 
 999:C:/Jarboter_V_2_1/Firmware/Interface_uC_PMD/C/c-motion.c **** 	// set the axis number to zero
1000:C:/Jarboter_V_2_1/Firmware/Interface_uC_PMD/C/c-motion.c **** 	axis_handle->axis = 0;
1001:C:/Jarboter_V_2_1/Firmware/Interface_uC_PMD/C/c-motion.c **** 
1002:C:/Jarboter_V_2_1/Firmware/Interface_uC_PMD/C/c-motion.c **** 	result = SendCommandGetWord(axis_handle, PMDOPGetTraceStop, &value);
1003:C:/Jarboter_V_2_1/Firmware/Interface_uC_PMD/C/c-motion.c **** 	*traceAxis = (PMDAxis)((value & nibbleMask));
1004:C:/Jarboter_V_2_1/Firmware/Interface_uC_PMD/C/c-motion.c **** 	*condition = (PMDuint8)((value >> 4) & nibbleMask);
1005:C:/Jarboter_V_2_1/Firmware/Interface_uC_PMD/C/c-motion.c **** 	*bit = (PMDuint8)((value >> 8) & nibbleMask);
1006:C:/Jarboter_V_2_1/Firmware/Interface_uC_PMD/C/c-motion.c **** 	*state = (PMDuint8)((value >> 12) & nibbleMask);
1007:C:/Jarboter_V_2_1/Firmware/Interface_uC_PMD/C/c-motion.c **** 
1008:C:/Jarboter_V_2_1/Firmware/Interface_uC_PMD/C/c-motion.c **** 	axis_handle->axis = axis;
1009:C:/Jarboter_V_2_1/Firmware/Interface_uC_PMD/C/c-motion.c **** 
1010:C:/Jarboter_V_2_1/Firmware/Interface_uC_PMD/C/c-motion.c **** 	return result;
1011:C:/Jarboter_V_2_1/Firmware/Interface_uC_PMD/C/c-motion.c **** }
1012:C:/Jarboter_V_2_1/Firmware/Interface_uC_PMD/C/c-motion.c **** 
1013:C:/Jarboter_V_2_1/Firmware/Interface_uC_PMD/C/c-motion.c **** 
1014:C:/Jarboter_V_2_1/Firmware/Interface_uC_PMD/C/c-motion.c **** PMDresult PMDGetTraceStatus(PMDAxisHandle* axis_handle, PMDuint16* status)
1015:C:/Jarboter_V_2_1/Firmware/Interface_uC_PMD/C/c-motion.c **** {
1016:C:/Jarboter_V_2_1/Firmware/Interface_uC_PMD/C/c-motion.c **** 	PMDAxis axis = axis_handle->axis;
1017:C:/Jarboter_V_2_1/Firmware/Interface_uC_PMD/C/c-motion.c **** 	PMDuint16 result;
1018:C:/Jarboter_V_2_1/Firmware/Interface_uC_PMD/C/c-motion.c **** 
1019:C:/Jarboter_V_2_1/Firmware/Interface_uC_PMD/C/c-motion.c **** 	// set the axis number to zero
1020:C:/Jarboter_V_2_1/Firmware/Interface_uC_PMD/C/c-motion.c **** 	axis_handle->axis = 0;
1021:C:/Jarboter_V_2_1/Firmware/Interface_uC_PMD/C/c-motion.c **** 
1022:C:/Jarboter_V_2_1/Firmware/Interface_uC_PMD/C/c-motion.c **** 	result = SendCommandGetWord(axis_handle, PMDOPGetTraceStatus, status);
1023:C:/Jarboter_V_2_1/Firmware/Interface_uC_PMD/C/c-motion.c **** 
1024:C:/Jarboter_V_2_1/Firmware/Interface_uC_PMD/C/c-motion.c **** 	axis_handle->axis = axis;
1025:C:/Jarboter_V_2_1/Firmware/Interface_uC_PMD/C/c-motion.c **** 
1026:C:/Jarboter_V_2_1/Firmware/Interface_uC_PMD/C/c-motion.c **** 	return result;
1027:C:/Jarboter_V_2_1/Firmware/Interface_uC_PMD/C/c-motion.c **** }
1028:C:/Jarboter_V_2_1/Firmware/Interface_uC_PMD/C/c-motion.c **** 
1029:C:/Jarboter_V_2_1/Firmware/Interface_uC_PMD/C/c-motion.c **** PMDresult PMDGetTraceCount(PMDAxisHandle* axis_handle, PMDuint32* count)
1030:C:/Jarboter_V_2_1/Firmware/Interface_uC_PMD/C/c-motion.c **** {
1031:C:/Jarboter_V_2_1/Firmware/Interface_uC_PMD/C/c-motion.c **** 	PMDAxis axis = axis_handle->axis;
1032:C:/Jarboter_V_2_1/Firmware/Interface_uC_PMD/C/c-motion.c **** 	PMDuint16 result;
1033:C:/Jarboter_V_2_1/Firmware/Interface_uC_PMD/C/c-motion.c **** 
1034:C:/Jarboter_V_2_1/Firmware/Interface_uC_PMD/C/c-motion.c **** 	// set the axis number to zero
1035:C:/Jarboter_V_2_1/Firmware/Interface_uC_PMD/C/c-motion.c **** 	axis_handle->axis = 0;
1036:C:/Jarboter_V_2_1/Firmware/Interface_uC_PMD/C/c-motion.c **** 
1037:C:/Jarboter_V_2_1/Firmware/Interface_uC_PMD/C/c-motion.c **** 	result = SendCommandGetLong(axis_handle, PMDOPGetTraceCount, count);
1038:C:/Jarboter_V_2_1/Firmware/Interface_uC_PMD/C/c-motion.c **** 
1039:C:/Jarboter_V_2_1/Firmware/Interface_uC_PMD/C/c-motion.c **** 	axis_handle->axis = axis;
1040:C:/Jarboter_V_2_1/Firmware/Interface_uC_PMD/C/c-motion.c **** 
1041:C:/Jarboter_V_2_1/Firmware/Interface_uC_PMD/C/c-motion.c **** 	return result;
1042:C:/Jarboter_V_2_1/Firmware/Interface_uC_PMD/C/c-motion.c **** }
1043:C:/Jarboter_V_2_1/Firmware/Interface_uC_PMD/C/c-motion.c **** 
1044:C:/Jarboter_V_2_1/Firmware/Interface_uC_PMD/C/c-motion.c **** 
1045:C:/Jarboter_V_2_1/Firmware/Interface_uC_PMD/C/c-motion.c **** // Miscellaneous
1046:C:/Jarboter_V_2_1/Firmware/Interface_uC_PMD/C/c-motion.c **** PMDresult PMDSetAxisMode(PMDAxisHandle* axis_handle, PMDuint16 mode)
1047:C:/Jarboter_V_2_1/Firmware/Interface_uC_PMD/C/c-motion.c **** {
1048:C:/Jarboter_V_2_1/Firmware/Interface_uC_PMD/C/c-motion.c **** 	return SendCommandWord(axis_handle, PMDOPSetAxisMode, mode);
1049:C:/Jarboter_V_2_1/Firmware/Interface_uC_PMD/C/c-motion.c **** }
1050:C:/Jarboter_V_2_1/Firmware/Interface_uC_PMD/C/c-motion.c **** 
1051:C:/Jarboter_V_2_1/Firmware/Interface_uC_PMD/C/c-motion.c **** PMDresult PMDGetAxisMode(PMDAxisHandle* axis_handle, PMDuint16* mode)
1052:C:/Jarboter_V_2_1/Firmware/Interface_uC_PMD/C/c-motion.c **** {
1053:C:/Jarboter_V_2_1/Firmware/Interface_uC_PMD/C/c-motion.c **** 	return SendCommandGetWord(axis_handle, PMDOPGetAxisMode, mode);
1054:C:/Jarboter_V_2_1/Firmware/Interface_uC_PMD/C/c-motion.c **** }
1055:C:/Jarboter_V_2_1/Firmware/Interface_uC_PMD/C/c-motion.c **** 
1056:C:/Jarboter_V_2_1/Firmware/Interface_uC_PMD/C/c-motion.c **** PMDresult PMDSetAxisOutSource(PMDAxisHandle* axis_handle, PMDAxis sourceAxis, PMDuint8 bit, PMDuint
1057:C:/Jarboter_V_2_1/Firmware/Interface_uC_PMD/C/c-motion.c **** {
1058:C:/Jarboter_V_2_1/Firmware/Interface_uC_PMD/C/c-motion.c **** 	PMDuint16 value = (PMDuint16)((sourceAxis & nibbleMask) | ((bit & nibbleMask) << 4) 
1059:C:/Jarboter_V_2_1/Firmware/Interface_uC_PMD/C/c-motion.c **** 		| ((sourceRegister & nibbleMask) << 8));
1060:C:/Jarboter_V_2_1/Firmware/Interface_uC_PMD/C/c-motion.c **** 		
1061:C:/Jarboter_V_2_1/Firmware/Interface_uC_PMD/C/c-motion.c **** 	return SendCommandWord(axis_handle, PMDOPSetAxisOutSource, value);
1062:C:/Jarboter_V_2_1/Firmware/Interface_uC_PMD/C/c-motion.c **** }
1063:C:/Jarboter_V_2_1/Firmware/Interface_uC_PMD/C/c-motion.c **** 
1064:C:/Jarboter_V_2_1/Firmware/Interface_uC_PMD/C/c-motion.c **** PMDresult PMDGetAxisOutSource(PMDAxisHandle* axis_handle, PMDAxis* sourceAxis, PMDuint8* bit, PMDui
1065:C:/Jarboter_V_2_1/Firmware/Interface_uC_PMD/C/c-motion.c **** {
1066:C:/Jarboter_V_2_1/Firmware/Interface_uC_PMD/C/c-motion.c **** 	PMDuint16 result;
1067:C:/Jarboter_V_2_1/Firmware/Interface_uC_PMD/C/c-motion.c **** 	PMDuint16 value;
1068:C:/Jarboter_V_2_1/Firmware/Interface_uC_PMD/C/c-motion.c **** 
1069:C:/Jarboter_V_2_1/Firmware/Interface_uC_PMD/C/c-motion.c **** 	result = SendCommandGetWord(axis_handle, PMDOPGetAxisOutSource, &value);
1070:C:/Jarboter_V_2_1/Firmware/Interface_uC_PMD/C/c-motion.c **** 
1071:C:/Jarboter_V_2_1/Firmware/Interface_uC_PMD/C/c-motion.c **** 	*sourceAxis = (PMDAxis)(value & nibbleMask);
1072:C:/Jarboter_V_2_1/Firmware/Interface_uC_PMD/C/c-motion.c **** 
1073:C:/Jarboter_V_2_1/Firmware/Interface_uC_PMD/C/c-motion.c **** 	value = (PMDuint16)(value >> 4);
1074:C:/Jarboter_V_2_1/Firmware/Interface_uC_PMD/C/c-motion.c **** 	*bit = (PMDuint8)(value & nibbleMask);
1075:C:/Jarboter_V_2_1/Firmware/Interface_uC_PMD/C/c-motion.c **** 
1076:C:/Jarboter_V_2_1/Firmware/Interface_uC_PMD/C/c-motion.c **** 	value = (PMDuint16)(value >> 4);
1077:C:/Jarboter_V_2_1/Firmware/Interface_uC_PMD/C/c-motion.c **** 	*sourceRegister = (PMDuint8)(value & nibbleMask);
1078:C:/Jarboter_V_2_1/Firmware/Interface_uC_PMD/C/c-motion.c **** 
1079:C:/Jarboter_V_2_1/Firmware/Interface_uC_PMD/C/c-motion.c **** 	return result;
1080:C:/Jarboter_V_2_1/Firmware/Interface_uC_PMD/C/c-motion.c **** }
1081:C:/Jarboter_V_2_1/Firmware/Interface_uC_PMD/C/c-motion.c **** 
1082:C:/Jarboter_V_2_1/Firmware/Interface_uC_PMD/C/c-motion.c **** PMDresult PMDWriteIO(PMDAxisHandle* axis_handle, PMDuint16 address, PMDuint16 data)
1083:C:/Jarboter_V_2_1/Firmware/Interface_uC_PMD/C/c-motion.c **** {
1084:C:/Jarboter_V_2_1/Firmware/Interface_uC_PMD/C/c-motion.c **** 	return SendCommandWordWord(axis_handle, PMDOPWriteIO, address, data);
1085:C:/Jarboter_V_2_1/Firmware/Interface_uC_PMD/C/c-motion.c **** }
1086:C:/Jarboter_V_2_1/Firmware/Interface_uC_PMD/C/c-motion.c **** 
1087:C:/Jarboter_V_2_1/Firmware/Interface_uC_PMD/C/c-motion.c **** PMDresult PMDReadIO(PMDAxisHandle* axis_handle, PMDuint16 address, PMDuint16* data)
1088:C:/Jarboter_V_2_1/Firmware/Interface_uC_PMD/C/c-motion.c **** {
1089:C:/Jarboter_V_2_1/Firmware/Interface_uC_PMD/C/c-motion.c **** 	return SendCommandWordGetWord(axis_handle, PMDOPReadIO, address, data);
1090:C:/Jarboter_V_2_1/Firmware/Interface_uC_PMD/C/c-motion.c **** }
1091:C:/Jarboter_V_2_1/Firmware/Interface_uC_PMD/C/c-motion.c **** 
1092:C:/Jarboter_V_2_1/Firmware/Interface_uC_PMD/C/c-motion.c **** PMDresult PMDReadAnalog(PMDAxisHandle* axis_handle, PMDuint16 analogID, PMDuint16* data)
1093:C:/Jarboter_V_2_1/Firmware/Interface_uC_PMD/C/c-motion.c **** {
1094:C:/Jarboter_V_2_1/Firmware/Interface_uC_PMD/C/c-motion.c **** 	return SendCommandWordGetWord(axis_handle, PMDOPReadAnalog, analogID, data);
1095:C:/Jarboter_V_2_1/Firmware/Interface_uC_PMD/C/c-motion.c **** }
1096:C:/Jarboter_V_2_1/Firmware/Interface_uC_PMD/C/c-motion.c **** 
1097:C:/Jarboter_V_2_1/Firmware/Interface_uC_PMD/C/c-motion.c **** PMDresult PMDReset(PMDAxisHandle* axis_handle)
1098:C:/Jarboter_V_2_1/Firmware/Interface_uC_PMD/C/c-motion.c **** {
1099:C:/Jarboter_V_2_1/Firmware/Interface_uC_PMD/C/c-motion.c ****     PMDAxis	axis = axis_handle->axis;
1100:C:/Jarboter_V_2_1/Firmware/Interface_uC_PMD/C/c-motion.c **** 	PMDuint16 result;
1101:C:/Jarboter_V_2_1/Firmware/Interface_uC_PMD/C/c-motion.c **** 
1102:C:/Jarboter_V_2_1/Firmware/Interface_uC_PMD/C/c-motion.c **** 	// for the reset command, the axis number MUST be zero
1103:C:/Jarboter_V_2_1/Firmware/Interface_uC_PMD/C/c-motion.c **** 	axis_handle->axis = 0;
1104:C:/Jarboter_V_2_1/Firmware/Interface_uC_PMD/C/c-motion.c **** 
1105:C:/Jarboter_V_2_1/Firmware/Interface_uC_PMD/C/c-motion.c **** 	result = SendCommand(axis_handle, PMDOPReset);
1106:C:/Jarboter_V_2_1/Firmware/Interface_uC_PMD/C/c-motion.c **** 
1107:C:/Jarboter_V_2_1/Firmware/Interface_uC_PMD/C/c-motion.c **** 	axis_handle->axis = axis;
1108:C:/Jarboter_V_2_1/Firmware/Interface_uC_PMD/C/c-motion.c **** 
1109:C:/Jarboter_V_2_1/Firmware/Interface_uC_PMD/C/c-motion.c **** 	return result;
1110:C:/Jarboter_V_2_1/Firmware/Interface_uC_PMD/C/c-motion.c **** 	
1111:C:/Jarboter_V_2_1/Firmware/Interface_uC_PMD/C/c-motion.c **** }
1112:C:/Jarboter_V_2_1/Firmware/Interface_uC_PMD/C/c-motion.c **** 
1113:C:/Jarboter_V_2_1/Firmware/Interface_uC_PMD/C/c-motion.c **** PMDresult PMDNoOperation(PMDAxisHandle* axis_handle)
1114:C:/Jarboter_V_2_1/Firmware/Interface_uC_PMD/C/c-motion.c **** {
1115:C:/Jarboter_V_2_1/Firmware/Interface_uC_PMD/C/c-motion.c **** 	return SendCommand(axis_handle, PMDOPNoOperation);
1116:C:/Jarboter_V_2_1/Firmware/Interface_uC_PMD/C/c-motion.c **** }
1117:C:/Jarboter_V_2_1/Firmware/Interface_uC_PMD/C/c-motion.c **** 
1118:C:/Jarboter_V_2_1/Firmware/Interface_uC_PMD/C/c-motion.c **** PMDresult PMDGetVersion(PMDAxisHandle* axis_handle, PMDuint16 *generation, PMDuint16 *motorType, 
1119:C:/Jarboter_V_2_1/Firmware/Interface_uC_PMD/C/c-motion.c **** 						PMDuint16 *numberAxes, PMDuint16 *special,
1120:C:/Jarboter_V_2_1/Firmware/Interface_uC_PMD/C/c-motion.c **** 						PMDuint16 *custom, PMDuint16 *major, PMDuint16 *minor)
1121:C:/Jarboter_V_2_1/Firmware/Interface_uC_PMD/C/c-motion.c **** {
1122:C:/Jarboter_V_2_1/Firmware/Interface_uC_PMD/C/c-motion.c **** 	PMDuint16 chip = 0, software = 0;
1123:C:/Jarboter_V_2_1/Firmware/Interface_uC_PMD/C/c-motion.c **** 	PMDuint16 result;
1124:C:/Jarboter_V_2_1/Firmware/Interface_uC_PMD/C/c-motion.c **** 
1125:C:/Jarboter_V_2_1/Firmware/Interface_uC_PMD/C/c-motion.c **** 	result = SendCommandGetWordWord(axis_handle, PMDOPGetVersion, &chip, &software);
1126:C:/Jarboter_V_2_1/Firmware/Interface_uC_PMD/C/c-motion.c **** 
1127:C:/Jarboter_V_2_1/Firmware/Interface_uC_PMD/C/c-motion.c **** 	*generation = (PMDuint16)((chip & 0xF000) >> 12);
1128:C:/Jarboter_V_2_1/Firmware/Interface_uC_PMD/C/c-motion.c **** 	*motorType = (PMDuint16)((chip & 0x0F00) >> 8);
1129:C:/Jarboter_V_2_1/Firmware/Interface_uC_PMD/C/c-motion.c **** 	*numberAxes = (PMDuint16)((chip & 0x00F0) >> 4);
1130:C:/Jarboter_V_2_1/Firmware/Interface_uC_PMD/C/c-motion.c **** 	*special = (PMDuint16)(chip & 0x000F);
1131:C:/Jarboter_V_2_1/Firmware/Interface_uC_PMD/C/c-motion.c **** 
1132:C:/Jarboter_V_2_1/Firmware/Interface_uC_PMD/C/c-motion.c **** 	*custom = (PMDuint16)((software & 0xFF00) >> 8);
1133:C:/Jarboter_V_2_1/Firmware/Interface_uC_PMD/C/c-motion.c **** 	*major = (PMDuint16)((software & 0x00F0) >> 4);
1134:C:/Jarboter_V_2_1/Firmware/Interface_uC_PMD/C/c-motion.c **** 	*minor = (PMDuint16)(software & 0x000F);
1135:C:/Jarboter_V_2_1/Firmware/Interface_uC_PMD/C/c-motion.c **** 
1136:C:/Jarboter_V_2_1/Firmware/Interface_uC_PMD/C/c-motion.c **** 	return result;
1137:C:/Jarboter_V_2_1/Firmware/Interface_uC_PMD/C/c-motion.c **** }
1138:C:/Jarboter_V_2_1/Firmware/Interface_uC_PMD/C/c-motion.c **** 
1139:C:/Jarboter_V_2_1/Firmware/Interface_uC_PMD/C/c-motion.c **** PMDresult PMDGetHostIOError(PMDAxisHandle* axis_handle, PMDuint16 *hostIOError)
1140:C:/Jarboter_V_2_1/Firmware/Interface_uC_PMD/C/c-motion.c **** {
1141:C:/Jarboter_V_2_1/Firmware/Interface_uC_PMD/C/c-motion.c **** 	return SendCommandGetWord(axis_handle, PMDOPGetHostIOError, hostIOError);
1142:C:/Jarboter_V_2_1/Firmware/Interface_uC_PMD/C/c-motion.c **** }
1143:C:/Jarboter_V_2_1/Firmware/Interface_uC_PMD/C/c-motion.c **** 
1144:C:/Jarboter_V_2_1/Firmware/Interface_uC_PMD/C/c-motion.c **** PMDresult PMDSetSerialPortMode(PMDAxisHandle* axis_handle, PMDuint8 baud, PMDuint8 parity, 
1145:C:/Jarboter_V_2_1/Firmware/Interface_uC_PMD/C/c-motion.c **** 					PMDuint8 stopBits, PMDuint8 protocol, PMDuint8 multiDropID)
1146:C:/Jarboter_V_2_1/Firmware/Interface_uC_PMD/C/c-motion.c **** {
1147:C:/Jarboter_V_2_1/Firmware/Interface_uC_PMD/C/c-motion.c **** 	PMDuint16 serialData;
1148:C:/Jarboter_V_2_1/Firmware/Interface_uC_PMD/C/c-motion.c **** 
1149:C:/Jarboter_V_2_1/Firmware/Interface_uC_PMD/C/c-motion.c **** 	serialData = (PMDuint16)(baud | (parity << 4) | (stopBits << 6) | 
1150:C:/Jarboter_V_2_1/Firmware/Interface_uC_PMD/C/c-motion.c **** 		(protocol << 7) | 
1151:C:/Jarboter_V_2_1/Firmware/Interface_uC_PMD/C/c-motion.c **** 		// bits 9 and 10 are resereved for future use
1152:C:/Jarboter_V_2_1/Firmware/Interface_uC_PMD/C/c-motion.c **** 		(multiDropID << 11));
1153:C:/Jarboter_V_2_1/Firmware/Interface_uC_PMD/C/c-motion.c **** 	return SendCommandWord(axis_handle, PMDOPSetSerialPortMode, serialData);
1154:C:/Jarboter_V_2_1/Firmware/Interface_uC_PMD/C/c-motion.c **** }
1155:C:/Jarboter_V_2_1/Firmware/Interface_uC_PMD/C/c-motion.c **** 
1156:C:/Jarboter_V_2_1/Firmware/Interface_uC_PMD/C/c-motion.c **** PMDresult PMDGetSerialPortMode(PMDAxisHandle* axis_handle, PMDuint8* baud, PMDuint8* parity, 
1157:C:/Jarboter_V_2_1/Firmware/Interface_uC_PMD/C/c-motion.c **** 					PMDuint8* stopBits, PMDuint8* protocol, PMDuint8* multiDropID)
1158:C:/Jarboter_V_2_1/Firmware/Interface_uC_PMD/C/c-motion.c **** {
1159:C:/Jarboter_V_2_1/Firmware/Interface_uC_PMD/C/c-motion.c **** 	PMDuint16 serialData;
1160:C:/Jarboter_V_2_1/Firmware/Interface_uC_PMD/C/c-motion.c **** 	PMDuint16 result;
1161:C:/Jarboter_V_2_1/Firmware/Interface_uC_PMD/C/c-motion.c **** 
1162:C:/Jarboter_V_2_1/Firmware/Interface_uC_PMD/C/c-motion.c **** 	result = SendCommandGetWord(axis_handle, PMDOPGetSerialPortMode, &serialData);
1163:C:/Jarboter_V_2_1/Firmware/Interface_uC_PMD/C/c-motion.c **** 
1164:C:/Jarboter_V_2_1/Firmware/Interface_uC_PMD/C/c-motion.c **** 	*baud = (PMDuint8)(serialData & 0x000F);
1165:C:/Jarboter_V_2_1/Firmware/Interface_uC_PMD/C/c-motion.c **** 	*parity = (PMDuint8)((serialData & 0x0030) >> 4);
1166:C:/Jarboter_V_2_1/Firmware/Interface_uC_PMD/C/c-motion.c **** 	*stopBits = (PMDuint8)((serialData & 0x0040) >> 6);
1167:C:/Jarboter_V_2_1/Firmware/Interface_uC_PMD/C/c-motion.c **** 	*protocol = (PMDuint8)((serialData & 0x0180) >> 7);
1168:C:/Jarboter_V_2_1/Firmware/Interface_uC_PMD/C/c-motion.c **** 	*multiDropID = (PMDuint8)((serialData & 0xF800) >> 11);
1169:C:/Jarboter_V_2_1/Firmware/Interface_uC_PMD/C/c-motion.c **** 
1170:C:/Jarboter_V_2_1/Firmware/Interface_uC_PMD/C/c-motion.c **** 	return result;
1171:C:/Jarboter_V_2_1/Firmware/Interface_uC_PMD/C/c-motion.c **** }
1172:C:/Jarboter_V_2_1/Firmware/Interface_uC_PMD/C/c-motion.c **** 
1173:C:/Jarboter_V_2_1/Firmware/Interface_uC_PMD/C/c-motion.c **** PMDresult PMDSetDiagnosticPortMode(PMDAxisHandle* axis_handle, PMDuint16 mode)
1174:C:/Jarboter_V_2_1/Firmware/Interface_uC_PMD/C/c-motion.c **** {
1175:C:/Jarboter_V_2_1/Firmware/Interface_uC_PMD/C/c-motion.c **** 	return SendCommandWord(axis_handle, PMDOPSetDiagnosticPortMode, mode);
1176:C:/Jarboter_V_2_1/Firmware/Interface_uC_PMD/C/c-motion.c **** }
1177:C:/Jarboter_V_2_1/Firmware/Interface_uC_PMD/C/c-motion.c **** 
1178:C:/Jarboter_V_2_1/Firmware/Interface_uC_PMD/C/c-motion.c **** PMDresult PMDGetDiagnosticPortMode(PMDAxisHandle* axis_handle, PMDuint16* mode)
1179:C:/Jarboter_V_2_1/Firmware/Interface_uC_PMD/C/c-motion.c **** {
1180:C:/Jarboter_V_2_1/Firmware/Interface_uC_PMD/C/c-motion.c **** 	return SendCommandGetWord(axis_handle, PMDOPGetDiagnosticPortMode, mode);
1181:C:/Jarboter_V_2_1/Firmware/Interface_uC_PMD/C/c-motion.c **** }
1182:C:/Jarboter_V_2_1/Firmware/Interface_uC_PMD/C/c-motion.c **** 
1183:C:/Jarboter_V_2_1/Firmware/Interface_uC_PMD/C/c-motion.c **** PMDresult PMDGetTime(PMDAxisHandle* axis_handle, PMDuint32* numberChipCycles)
1184:C:/Jarboter_V_2_1/Firmware/Interface_uC_PMD/C/c-motion.c **** {
1185:C:/Jarboter_V_2_1/Firmware/Interface_uC_PMD/C/c-motion.c **** 	return SendCommandGetLong(axis_handle, PMDOPGetTime, numberChipCycles);
1186:C:/Jarboter_V_2_1/Firmware/Interface_uC_PMD/C/c-motion.c **** }
1187:C:/Jarboter_V_2_1/Firmware/Interface_uC_PMD/C/c-motion.c **** 
1188:C:/Jarboter_V_2_1/Firmware/Interface_uC_PMD/C/c-motion.c **** PMDresult PMDGetChecksum(PMDAxisHandle* axis_handle, PMDuint32* checksum)
1189:C:/Jarboter_V_2_1/Firmware/Interface_uC_PMD/C/c-motion.c **** {
1190:C:/Jarboter_V_2_1/Firmware/Interface_uC_PMD/C/c-motion.c **** 	return SendCommandGetLong(axis_handle, PMDOPGetChecksum, checksum);
1191:C:/Jarboter_V_2_1/Firmware/Interface_uC_PMD/C/c-motion.c **** }
1192:C:/Jarboter_V_2_1/Firmware/Interface_uC_PMD/C/c-motion.c **** 
1193:C:/Jarboter_V_2_1/Firmware/Interface_uC_PMD/C/c-motion.c **** PMDresult PMDSetStepRange(PMDAxisHandle* axis_handle, PMDuint16 range)
1194:C:/Jarboter_V_2_1/Firmware/Interface_uC_PMD/C/c-motion.c **** {
1195:C:/Jarboter_V_2_1/Firmware/Interface_uC_PMD/C/c-motion.c **** 	return SendCommandWord(axis_handle, PMDOPSetStepRange, range);
1196:C:/Jarboter_V_2_1/Firmware/Interface_uC_PMD/C/c-motion.c **** }
1197:C:/Jarboter_V_2_1/Firmware/Interface_uC_PMD/C/c-motion.c **** 
1198:C:/Jarboter_V_2_1/Firmware/Interface_uC_PMD/C/c-motion.c **** PMDresult PMDGetStepRange(PMDAxisHandle* axis_handle, PMDuint16* range)
1199:C:/Jarboter_V_2_1/Firmware/Interface_uC_PMD/C/c-motion.c **** {
1200:C:/Jarboter_V_2_1/Firmware/Interface_uC_PMD/C/c-motion.c **** 	return SendCommandGetWord(axis_handle, PMDOPGetStepRange, range);
1201:C:/Jarboter_V_2_1/Firmware/Interface_uC_PMD/C/c-motion.c **** }
1202:C:/Jarboter_V_2_1/Firmware/Interface_uC_PMD/C/c-motion.c **** 
1203:C:/Jarboter_V_2_1/Firmware/Interface_uC_PMD/C/c-motion.c **** PMDresult PMDSetSynchronizationMode(PMDAxisHandle* axis_handle, PMDuint16 mode)
1204:C:/Jarboter_V_2_1/Firmware/Interface_uC_PMD/C/c-motion.c **** {
1205:C:/Jarboter_V_2_1/Firmware/Interface_uC_PMD/C/c-motion.c **** 	return SendCommandWord(axis_handle, PMDOPSetSynchronizationMode, mode);
1206:C:/Jarboter_V_2_1/Firmware/Interface_uC_PMD/C/c-motion.c **** }
1207:C:/Jarboter_V_2_1/Firmware/Interface_uC_PMD/C/c-motion.c **** 
1208:C:/Jarboter_V_2_1/Firmware/Interface_uC_PMD/C/c-motion.c **** PMDresult PMDGetSynchronizationMode(PMDAxisHandle* axis_handle, PMDuint16* mode)
1209:C:/Jarboter_V_2_1/Firmware/Interface_uC_PMD/C/c-motion.c **** {
1210:C:/Jarboter_V_2_1/Firmware/Interface_uC_PMD/C/c-motion.c **** 	return SendCommandGetWord(axis_handle, PMDOPGetSynchronizationMode, mode);
1211:C:/Jarboter_V_2_1/Firmware/Interface_uC_PMD/C/c-motion.c **** }
1212:C:/Jarboter_V_2_1/Firmware/Interface_uC_PMD/C/c-motion.c **** 
1213:C:/Jarboter_V_2_1/Firmware/Interface_uC_PMD/C/c-motion.c **** 
1214:C:/Jarboter_V_2_1/Firmware/Interface_uC_PMD/C/c-motion.c **** // C-Motion provided functions
1215:C:/Jarboter_V_2_1/Firmware/Interface_uC_PMD/C/c-motion.c **** 
1216:C:/Jarboter_V_2_1/Firmware/Interface_uC_PMD/C/c-motion.c **** PMDresult PMDGetStatus(PMDAxisHandle* axis_handle)
1217:C:/Jarboter_V_2_1/Firmware/Interface_uC_PMD/C/c-motion.c **** {
 223               	217,.LM0-.LFBB1
 224               	.LM0:
 225               	.LFBB1:
 226               	/* prologue: function */
 227               	/* frame size = 0 */
 228 0000 FC01      		movw r30,r24
1218:C:/Jarboter_V_2_1/Firmware/Interface_uC_PMD/C/c-motion.c **** 	return axis_handle->transport.GetStatus(axis_handle->transport_data);
 229               	n	68,0,1218,.LM1-.LFBB1
 230               	.LM1:
 231 0002 DC01      		movw r26,r24
 232 0004 A25A      		subi r26,lo8(-(94))
 233 0006 BF4F      		sbci r27,hi8(-(94))
 234 0008 EC5A      		subi r30,lo8(-(84))
 235 000a FF4F      		sbci r31,hi8(-(84))
 236 000c 0190      		ld __tmp_reg__,Z+
 237 000e F081      		ld r31,Z
 238 0010 E02D      		mov r30,__tmp_reg__
 239 0012 8D91      		ld r24,X+
 240 0014 9C91      		ld r25,X
 241 0016 0995      		icall
 242               	/* epilogue start */
1219:C:/Jarboter_V_2_1/Firmware/Interface_uC_PMD/C/c-motion.c **** }
 243               	219,.LM2-.LFBB1
 244               	.LM2:
 245 0018 0895      		ret
 247               	.Lscope1:
 250               	.global	PMDHasError
 252               	PMDHasError:
1220:C:/Jarboter_V_2_1/Firmware/Interface_uC_PMD/C/c-motion.c **** 
1221:C:/Jarboter_V_2_1/Firmware/Interface_uC_PMD/C/c-motion.c **** PMDresult PMDHasError(PMDAxisHandle* axis_handle)
1222:C:/Jarboter_V_2_1/Firmware/Interface_uC_PMD/C/c-motion.c **** {
 253               	,0,1222,.LM3-.LFBB2
 254               	.LM3:
 255               	.LFBB2:
 256               	/* prologue: function */
 257               	/* frame size = 0 */
 258 001a FC01      		movw r30,r24
1223:C:/Jarboter_V_2_1/Firmware/Interface_uC_PMD/C/c-motion.c **** 	return axis_handle->transport.HasError(axis_handle->transport_data);
 259               	n	68,0,1223,.LM4-.LFBB2
 260               	.LM4:
 261 001c DC01      		movw r26,r24
 262 001e A25A      		subi r26,lo8(-(94))
 263 0020 BF4F      		sbci r27,hi8(-(94))
 264 0022 E65A      		subi r30,lo8(-(90))
 265 0024 FF4F      		sbci r31,hi8(-(90))
 266 0026 0190      		ld __tmp_reg__,Z+
 267 0028 F081      		ld r31,Z
 268 002a E02D      		mov r30,__tmp_reg__
 269 002c 8D91      		ld r24,X+
 270 002e 9C91      		ld r25,X
 271 0030 0995      		icall
 272               	/* epilogue start */
1224:C:/Jarboter_V_2_1/Firmware/Interface_uC_PMD/C/c-motion.c **** }
 273               	224,.LM5-.LFBB2
 274               	.LM5:
 275 0032 0895      		ret
 277               	.Lscope2:
 280               	.global	PMDIsReady
 282               	PMDIsReady:
1225:C:/Jarboter_V_2_1/Firmware/Interface_uC_PMD/C/c-motion.c **** 
1226:C:/Jarboter_V_2_1/Firmware/Interface_uC_PMD/C/c-motion.c **** PMDresult PMDIsReady(PMDAxisHandle* axis_handle)
1227:C:/Jarboter_V_2_1/Firmware/Interface_uC_PMD/C/c-motion.c **** {
 283               	,0,1227,.LM6-.LFBB3
 284               	.LM6:
 285               	.LFBB3:
 286               	/* prologue: function */
 287               	/* frame size = 0 */
 288 0034 FC01      		movw r30,r24
1228:C:/Jarboter_V_2_1/Firmware/Interface_uC_PMD/C/c-motion.c **** 	return axis_handle->transport.IsReady(axis_handle->transport_data);
 289               	n	68,0,1228,.LM7-.LFBB3
 290               	.LM7:
 291 0036 DC01      		movw r26,r24
 292 0038 A25A      		subi r26,lo8(-(94))
 293 003a BF4F      		sbci r27,hi8(-(94))
 294 003c EA5A      		subi r30,lo8(-(86))
 295 003e FF4F      		sbci r31,hi8(-(86))
 296 0040 0190      		ld __tmp_reg__,Z+
 297 0042 F081      		ld r31,Z
 298 0044 E02D      		mov r30,__tmp_reg__
 299 0046 8D91      		ld r24,X+
 300 0048 9C91      		ld r25,X
 301 004a 0995      		icall
 302               	/* epilogue start */
1229:C:/Jarboter_V_2_1/Firmware/Interface_uC_PMD/C/c-motion.c **** }
 303               	229,.LM8-.LFBB3
 304               	.LM8:
 305 004c 0895      		ret
 307               	.Lscope3:
 310               	.global	PMDHasInterrupt
 312               	PMDHasInterrupt:
1230:C:/Jarboter_V_2_1/Firmware/Interface_uC_PMD/C/c-motion.c **** 
1231:C:/Jarboter_V_2_1/Firmware/Interface_uC_PMD/C/c-motion.c **** PMDresult PMDHasInterrupt(PMDAxisHandle* axis_handle)
1232:C:/Jarboter_V_2_1/Firmware/Interface_uC_PMD/C/c-motion.c **** {
 313               	,0,1232,.LM9-.LFBB4
 314               	.LM9:
 315               	.LFBB4:
 316               	/* prologue: function */
 317               	/* frame size = 0 */
 318 004e FC01      		movw r30,r24
1233:C:/Jarboter_V_2_1/Firmware/Interface_uC_PMD/C/c-motion.c **** 	return axis_handle->transport.HasInterrupt(axis_handle->transport_data);
 319               	n	68,0,1233,.LM10-.LFBB4
 320               	.LM10:
 321 0050 DC01      		movw r26,r24
 322 0052 A25A      		subi r26,lo8(-(94))
 323 0054 BF4F      		sbci r27,hi8(-(94))
 324 0056 E85A      		subi r30,lo8(-(88))
 325 0058 FF4F      		sbci r31,hi8(-(88))
 326 005a 0190      		ld __tmp_reg__,Z+
 327 005c F081      		ld r31,Z
 328 005e E02D      		mov r30,__tmp_reg__
 329 0060 8D91      		ld r24,X+
 330 0062 9C91      		ld r25,X
 331 0064 0995      		icall
 332               	/* epilogue start */
1234:C:/Jarboter_V_2_1/Firmware/Interface_uC_PMD/C/c-motion.c **** }
 333               	234,.LM11-.LFBB4
 334               	.LM11:
 335 0066 0895      		ret
 337               	.Lscope4:
 340               	.global	PMDHardReset
 342               	PMDHardReset:
1235:C:/Jarboter_V_2_1/Firmware/Interface_uC_PMD/C/c-motion.c **** 
1236:C:/Jarboter_V_2_1/Firmware/Interface_uC_PMD/C/c-motion.c **** PMDresult PMDHardReset(PMDAxisHandle* axis_handle)
1237:C:/Jarboter_V_2_1/Firmware/Interface_uC_PMD/C/c-motion.c **** {  //Se invoca la funcion asociada a axis_handle->transport.HardReset
 343               	,0,1237,.LM12-.LFBB5
 344               	.LM12:
 345               	.LFBB5:
 346               	/* prologue: function */
 347               	/* frame size = 0 */
 348 0068 FC01      		movw r30,r24
1238:C:/Jarboter_V_2_1/Firmware/Interface_uC_PMD/C/c-motion.c ****    //com parametros axis_handle->transport_data
1239:C:/Jarboter_V_2_1/Firmware/Interface_uC_PMD/C/c-motion.c ****    //que es PMDParallel_HardReset (void* transport_data)
1240:C:/Jarboter_V_2_1/Firmware/Interface_uC_PMD/C/c-motion.c ****    //luego esta funcion toma transport_data y ejecuta una de las funciones asocioadas
1241:C:/Jarboter_V_2_1/Firmware/Interface_uC_PMD/C/c-motion.c ****    //mediante PIOtransport_data->Hard();
1242:C:/Jarboter_V_2_1/Firmware/Interface_uC_PMD/C/c-motion.c ****    //que si se ha sido corretamente inicializada sera OutP8BitHard(void)
1243:C:/Jarboter_V_2_1/Firmware/Interface_uC_PMD/C/c-motion.c ****    //esta llama writePMDreset() en basicio.c
1244:C:/Jarboter_V_2_1/Firmware/Interface_uC_PMD/C/c-motion.c ****    //la cual finalmente hace el reset por hardaware y mana comandos de reset sin esperar PMDready.
1245:C:/Jarboter_V_2_1/Firmware/Interface_uC_PMD/C/c-motion.c **** 	return axis_handle->transport.HardReset(axis_handle->transport_data);
 349               	n	68,0,1245,.LM13-.LFBB5
 350               	.LM13:
 351 006a DC01      		movw r26,r24
 352 006c A25A      		subi r26,lo8(-(94))
 353 006e BF4F      		sbci r27,hi8(-(94))
 354 0070 E45A      		subi r30,lo8(-(92))
 355 0072 FF4F      		sbci r31,hi8(-(92))
 356 0074 0190      		ld __tmp_reg__,Z+
 357 0076 F081      		ld r31,Z
 358 0078 E02D      		mov r30,__tmp_reg__
 359 007a 8D91      		ld r24,X+
 360 007c 9C91      		ld r25,X
 361 007e 0995      		icall
 362               	/* epilogue start */
1246:C:/Jarboter_V_2_1/Firmware/Interface_uC_PMD/C/c-motion.c **** }
 363               	246,.LM14-.LFBB5
 364               	.LM14:
 365 0080 0895      		ret
 367               	.Lscope5:
 370               	.global	PMDCloseAxisInterface
 372               	PMDCloseAxisInterface:
1247:C:/Jarboter_V_2_1/Firmware/Interface_uC_PMD/C/c-motion.c **** 
1248:C:/Jarboter_V_2_1/Firmware/Interface_uC_PMD/C/c-motion.c **** void PMDCloseAxisInterface(PMDAxisHandle* axis_handle)
1249:C:/Jarboter_V_2_1/Firmware/Interface_uC_PMD/C/c-motion.c **** {
 373               	,0,1249,.LM15-.LFBB6
 374               	.LM15:
 375               	.LFBB6:
 376               	/* prologue: function */
 377               	/* frame size = 0 */
 378 0082 FC01      		movw r30,r24
1250:C:/Jarboter_V_2_1/Firmware/Interface_uC_PMD/C/c-motion.c **** 	axis_handle->transport.Close(axis_handle->transport_data);
 379               	n	68,0,1250,.LM16-.LFBB6
 380               	.LM16:
 381 0084 DC01      		movw r26,r24
 382 0086 A25A      		subi r26,lo8(-(94))
 383 0088 BF4F      		sbci r27,hi8(-(94))
 384 008a EE5A      		subi r30,lo8(-(82))
 385 008c FF4F      		sbci r31,hi8(-(82))
 386 008e 0190      		ld __tmp_reg__,Z+
 387 0090 F081      		ld r31,Z
 388 0092 E02D      		mov r30,__tmp_reg__
 389 0094 8D91      		ld r24,X+
 390 0096 9C91      		ld r25,X
 391 0098 0995      		icall
 392               	/* epilogue start */
1251:C:/Jarboter_V_2_1/Firmware/Interface_uC_PMD/C/c-motion.c **** }
 393               	251,.LM17-.LFBB6
 394               	.LM17:
 395 009a 0895      		ret
 397               	.Lscope6:
 401               	.global	PMDGetCMotionVersion
 403               	PMDGetCMotionVersion:
1252:C:/Jarboter_V_2_1/Firmware/Interface_uC_PMD/C/c-motion.c **** 
1253:C:/Jarboter_V_2_1/Firmware/Interface_uC_PMD/C/c-motion.c **** void PMDGetCMotionVersion(PMDuint8* MajorVersion, PMDuint8* MinorVersion)
1254:C:/Jarboter_V_2_1/Firmware/Interface_uC_PMD/C/c-motion.c **** {
 404               	0,1254,.LM18-.LFBB7
 405               	.LM18:
 406               	.LFBB7:
 407               	/* prologue: function */
 408               	/* frame size = 0 */
 409 009c FC01      		movw r30,r24
 410 009e DB01      		movw r26,r22
1255:C:/Jarboter_V_2_1/Firmware/Interface_uC_PMD/C/c-motion.c **** 	*MajorVersion = CMOTION_MAJOR_VERSION;
 411               		68,0,1255,.LM19-.LFBB7
 412               	.LM19:
 413 00a0 81E0      		ldi r24,lo8(1)
 414 00a2 8083      		st Z,r24
1256:C:/Jarboter_V_2_1/Firmware/Interface_uC_PMD/C/c-motion.c **** 	*MinorVersion = CMOTION_MINOR_VERSION;
 415               	abn	68,0,1256,.LM20-.LFBB7
 416               	.LM20:
 417 00a4 85E0      		ldi r24,lo8(5)
 418 00a6 8C93      		st X,r24
 419               	/* epilogue start */
1257:C:/Jarboter_V_2_1/Firmware/Interface_uC_PMD/C/c-motion.c **** }
 420               	bn	68,0,1257,.LM21-.LFBB7
 421               	.LM21:
 422 00a8 0895      		ret
 424               	.Lscope7:
 428               	.global	PMDGetSynchronizationMode
 430               	PMDGetSynchronizationMode:
 432               	.LM22:
 433               	.LFBB8:
 434               	/* prologue: function */
 435               	/* frame size = 0 */
 436 00aa AB01      		movw r20,r22
 438               	.LM23:
 439 00ac 63EF      		ldi r22,lo8(243)
 440 00ae 70E0      		ldi r23,hi8(243)
 441 00b0 0E94 0000 		call SendCommandGetWord
 442               	/* epilogue start */
 444               	.LM24:
 445 00b4 0895      		ret
 447               	.Lscope8:
 451               	.global	PMDGetStepRange
 453               	PMDGetStepRange:
 455               	.LM25:
 456               	.LFBB9:
 457               	/* prologue: function */
 458               	/* frame size = 0 */
 459 00b6 AB01      		movw r20,r22
 461               	.LM26:
 462 00b8 6EEC      		ldi r22,lo8(206)
 463 00ba 70E0      		ldi r23,hi8(206)
 464 00bc 0E94 0000 		call SendCommandGetWord
 465               	/* epilogue start */
 467               	.LM27:
 468 00c0 0895      		ret
 470               	.Lscope9:
 474               	.global	PMDGetDiagnosticPortMode
 476               	PMDGetDiagnosticPortMode:
 478               	.LM28:
 479               	.LFBB10:
 480               	/* prologue: function */
 481               	/* frame size = 0 */
 482 00c2 AB01      		movw r20,r22
 484               	.LM29:
 485 00c4 6AE8      		ldi r22,lo8(138)
 486 00c6 70E0      		ldi r23,hi8(138)
 487 00c8 0E94 0000 		call SendCommandGetWord
 488               	/* epilogue start */
 490               	.LM30:
 491 00cc 0895      		ret
 493               	.Lscope10:
 501               	.global	PMDGetSerialPortMode
 503               	PMDGetSerialPortMode:
 505               	.LM31:
 506               	.LFBB11:
 507 00ce 8F92      		push r8
 508 00d0 9F92      		push r9
 509 00d2 AF92      		push r10
 510 00d4 BF92      		push r11
 511 00d6 CF92      		push r12
 512 00d8 DF92      		push r13
 513 00da EF92      		push r14
 514 00dc FF92      		push r15
 515 00de 0F93      		push r16
 516 00e0 1F93      		push r17
 517 00e2 DF93      		push r29
 518 00e4 CF93      		push r28
 519 00e6 00D0      		rcall .
 520 00e8 CDB7      		in r28,__SP_L__
 521 00ea DEB7      		in r29,__SP_H__
 522               	/* prologue: function */
 523               	/* frame size = 2 */
 524 00ec 6B01      		movw r12,r22
 525 00ee 5A01      		movw r10,r20
 526 00f0 4901      		movw r8,r18
 528               	.LM32:
 529 00f2 6CE8      		ldi r22,lo8(140)
 530 00f4 70E0      		ldi r23,hi8(140)
 531 00f6 AE01      		movw r20,r28
 532 00f8 4F5F      		subi r20,lo8(-(1))
 533 00fa 5F4F      		sbci r21,hi8(-(1))
 534 00fc 0E94 0000 		call SendCommandGetWord
 536               	.LM33:
 537 0100 2981      		ldd r18,Y+1
 538 0102 2F70      		andi r18,lo8(15)
 539 0104 F601      		movw r30,r12
 540 0106 2083      		st Z,r18
 542               	.LM34:
 543 0108 4981      		ldd r20,Y+1
 544 010a 5A81      		ldd r21,Y+2
 545 010c 9A01      		movw r18,r20
 546 010e 2073      		andi r18,lo8(48)
 547 0110 3070      		andi r19,hi8(48)
 548 0112 74E0      		ldi r23,4
 549 0114 3695      	1:	lsr r19
 550 0116 2795      		ror r18
 551 0118 7A95      		dec r23
 552 011a 01F4      		brne 1b
 553 011c F501      		movw r30,r10
 554 011e 2083      		st Z,r18
 556               	.LM35:
 557 0120 9A01      		movw r18,r20
 558 0122 2074      		andi r18,lo8(64)
 559 0124 3070      		andi r19,hi8(64)
 560 0126 66E0      		ldi r22,6
 561 0128 3695      	1:	lsr r19
 562 012a 2795      		ror r18
 563 012c 6A95      		dec r22
 564 012e 01F4      		brne 1b
 565 0130 F401      		movw r30,r8
 566 0132 2083      		st Z,r18
 568               	.LM36:
 569 0134 4078      		andi r20,lo8(384)
 570 0136 5170      		andi r21,hi8(384)
 571 0138 440F      		lsl r20
 572 013a 452F      		mov r20,r21
 573 013c 441F      		rol r20
 574 013e 550B      		sbc r21,r21
 575 0140 5195      		neg r21
 576 0142 F801      		movw r30,r16
 577 0144 4083      		st Z,r20
 579               	.LM37:
 580 0146 2A81      		ldd r18,Y+2
 581 0148 2695      		lsr r18
 582 014a 2695      		lsr r18
 583 014c 2695      		lsr r18
 584 014e F701      		movw r30,r14
 585 0150 2083      		st Z,r18
 586               	/* epilogue start */
 588               	.LM38:
 589 0152 0F90      		pop __tmp_reg__
 590 0154 0F90      		pop __tmp_reg__
 591 0156 CF91      		pop r28
 592 0158 DF91      		pop r29
 593 015a 1F91      		pop r17
 594 015c 0F91      		pop r16
 595 015e FF90      		pop r15
 596 0160 EF90      		pop r14
 597 0162 DF90      		pop r13
 598 0164 CF90      		pop r12
 599 0166 BF90      		pop r11
 600 0168 AF90      		pop r10
 601 016a 9F90      		pop r9
 602 016c 8F90      		pop r8
 603 016e 0895      		ret
 608               	.Lscope11:
 612               	.global	PMDGetHostIOError
 614               	PMDGetHostIOError:
 616               	.LM39:
 617               	.LFBB12:
 618               	/* prologue: function */
 619               	/* frame size = 0 */
 620 0170 AB01      		movw r20,r22
 622               	.LM40:
 623 0172 65EA      		ldi r22,lo8(165)
 624 0174 70E0      		ldi r23,hi8(165)
 625 0176 0E94 0000 		call SendCommandGetWord
 626               	/* epilogue start */
 628               	.LM41:
 629 017a 0895      		ret
 631               	.Lscope12:
 637               	.global	PMDGetAxisOutSource
 639               	PMDGetAxisOutSource:
 641               	.LM42:
 642               	.LFBB13:
 643 017c CF92      		push r12
 644 017e DF92      		push r13
 645 0180 EF92      		push r14
 646 0182 FF92      		push r15
 647 0184 0F93      		push r16
 648 0186 1F93      		push r17
 649 0188 DF93      		push r29
 650 018a CF93      		push r28
 651 018c 00D0      		rcall .
 652 018e CDB7      		in r28,__SP_L__
 653 0190 DEB7      		in r29,__SP_H__
 654               	/* prologue: function */
 655               	/* frame size = 2 */
 656 0192 8B01      		movw r16,r22
 657 0194 7A01      		movw r14,r20
 658 0196 6901      		movw r12,r18
 660               	.LM43:
 661 0198 6EEE      		ldi r22,lo8(238)
 662 019a 70E0      		ldi r23,hi8(238)
 663 019c AE01      		movw r20,r28
 664 019e 4F5F      		subi r20,lo8(-(1))
 665 01a0 5F4F      		sbci r21,hi8(-(1))
 666 01a2 0E94 0000 		call SendCommandGetWord
 668               	.LM44:
 669 01a6 2981      		ldd r18,Y+1
 670 01a8 3A81      		ldd r19,Y+2
 671 01aa A901      		movw r20,r18
 672 01ac 4F70      		andi r20,lo8(15)
 673 01ae 5070      		andi r21,hi8(15)
 674 01b0 F801      		movw r30,r16
 675 01b2 5183      		std Z+1,r21
 676 01b4 4083      		st Z,r20
 678               	.LM45:
 679 01b6 F4E0      		ldi r31,4
 680 01b8 3695      	1:	lsr r19
 681 01ba 2795      		ror r18
 682 01bc FA95      		dec r31
 683 01be 01F4      		brne 1b
 685               	.LM46:
 686 01c0 422F      		mov r20,r18
 687 01c2 4F70      		andi r20,lo8(15)
 688 01c4 F701      		movw r30,r14
 689 01c6 4083      		st Z,r20
 691               	.LM47:
 692 01c8 E4E0      		ldi r30,4
 693 01ca 3695      	1:	lsr r19
 694 01cc 2795      		ror r18
 695 01ce EA95      		dec r30
 696 01d0 01F4      		brne 1b
 698               	.LM48:
 699 01d2 2F70      		andi r18,lo8(15)
 700 01d4 F601      		movw r30,r12
 701 01d6 2083      		st Z,r18
 702               	/* epilogue start */
 704               	.LM49:
 705 01d8 0F90      		pop __tmp_reg__
 706 01da 0F90      		pop __tmp_reg__
 707 01dc CF91      		pop r28
 708 01de DF91      		pop r29
 709 01e0 1F91      		pop r17
 710 01e2 0F91      		pop r16
 711 01e4 FF90      		pop r15
 712 01e6 EF90      		pop r14
 713 01e8 DF90      		pop r13
 714 01ea CF90      		pop r12
 715 01ec 0895      		ret
 720               	.Lscope13:
 724               	.global	PMDGetAxisMode
 726               	PMDGetAxisMode:
 728               	.LM50:
 729               	.LFBB14:
 730               	/* prologue: function */
 731               	/* frame size = 0 */
 732 01ee AB01      		movw r20,r22
 734               	.LM51:
 735 01f0 68E8      		ldi r22,lo8(136)
 736 01f2 70E0      		ldi r23,hi8(136)
 737 01f4 0E94 0000 		call SendCommandGetWord
 738               	/* epilogue start */
 740               	.LM52:
 741 01f8 0895      		ret
 743               	.Lscope14:
 747               	.global	PMDGetTraceStatus
 749               	PMDGetTraceStatus:
 751               	.LM53:
 752               	.LFBB15:
 753 01fa EF92      		push r14
 754 01fc FF92      		push r15
 755 01fe 0F93      		push r16
 756 0200 1F93      		push r17
 757               	/* prologue: function */
 758               	/* frame size = 0 */
 759 0202 8C01      		movw r16,r24
 760 0204 AB01      		movw r20,r22
 762               	.LM54:
 763 0206 FC01      		movw r30,r24
 764 0208 E280      		ldd r14,Z+2
 765 020a F380      		ldd r15,Z+3
 767               	.LM55:
 768 020c 1382      		std Z+3,__zero_reg__
 769 020e 1282      		std Z+2,__zero_reg__
 771               	.LM56:
 772 0210 6AEB      		ldi r22,lo8(186)
 773 0212 70E0      		ldi r23,hi8(186)
 774 0214 0E94 0000 		call SendCommandGetWord
 776               	.LM57:
 777 0218 F801      		movw r30,r16
 778 021a F382      		std Z+3,r15
 779 021c E282      		std Z+2,r14
 780               	/* epilogue start */
 782               	.LM58:
 783 021e 1F91      		pop r17
 784 0220 0F91      		pop r16
 785 0222 FF90      		pop r15
 786 0224 EF90      		pop r14
 787 0226 0895      		ret
 792               	.Lscope15:
 799               	.global	PMDGetTraceStop
 801               	PMDGetTraceStop:
 803               	.LM59:
 804               	.LFBB16:
 805 0228 6F92      		push r6
 806 022a 7F92      		push r7
 807 022c 8F92      		push r8
 808 022e 9F92      		push r9
 809 0230 AF92      		push r10
 810 0232 BF92      		push r11
 811 0234 CF92      		push r12
 812 0236 DF92      		push r13
 813 0238 EF92      		push r14
 814 023a FF92      		push r15
 815 023c 0F93      		push r16
 816 023e 1F93      		push r17
 817 0240 DF93      		push r29
 818 0242 CF93      		push r28
 819 0244 00D0      		rcall .
 820 0246 CDB7      		in r28,__SP_L__
 821 0248 DEB7      		in r29,__SP_H__
 822               	/* prologue: function */
 823               	/* frame size = 2 */
 824 024a 7C01      		movw r14,r24
 825 024c 6B01      		movw r12,r22
 826 024e 5A01      		movw r10,r20
 827 0250 4901      		movw r8,r18
 829               	.LM60:
 830 0252 FC01      		movw r30,r24
 831 0254 6280      		ldd r6,Z+2
 832 0256 7380      		ldd r7,Z+3
 834               	.LM61:
 835 0258 1382      		std Z+3,__zero_reg__
 836 025a 1282      		std Z+2,__zero_reg__
 838               	.LM62:
 839 025c 65EB      		ldi r22,lo8(181)
 840 025e 70E0      		ldi r23,hi8(181)
 841 0260 AE01      		movw r20,r28
 842 0262 4F5F      		subi r20,lo8(-(1))
 843 0264 5F4F      		sbci r21,hi8(-(1))
 844 0266 0E94 0000 		call SendCommandGetWord
 846               	.LM63:
 847 026a 2981      		ldd r18,Y+1
 848 026c 3A81      		ldd r19,Y+2
 849 026e A901      		movw r20,r18
 850 0270 4F70      		andi r20,lo8(15)
 851 0272 5070      		andi r21,hi8(15)
 852 0274 F601      		movw r30,r12
 853 0276 5183      		std Z+1,r21
 854 0278 4083      		st Z,r20
 856               	.LM64:
 857 027a A4E0      		ldi r26,4
 858 027c 3695      	1:	lsr r19
 859 027e 2795      		ror r18
 860 0280 AA95      		dec r26
 861 0282 01F4      		brne 1b
 862 0284 2F70      		andi r18,lo8(15)
 863 0286 F501      		movw r30,r10
 864 0288 2083      		st Z,r18
 866               	.LM65:
 867 028a 2A81      		ldd r18,Y+2
 868 028c 322F      		mov r19,r18
 869 028e 3F70      		andi r19,lo8(15)
 870 0290 F401      		movw r30,r8
 871 0292 3083      		st Z,r19
 873               	.LM66:
 874 0294 2295      		swap r18
 875 0296 2F70      		andi r18,lo8(15)
 876 0298 F801      		movw r30,r16
 877 029a 2083      		st Z,r18
 879               	.LM67:
 880 029c F701      		movw r30,r14
 881 029e 7382      		std Z+3,r7
 882 02a0 6282      		std Z+2,r6
 883               	/* epilogue start */
 885               	.LM68:
 886 02a2 0F90      		pop __tmp_reg__
 887 02a4 0F90      		pop __tmp_reg__
 888 02a6 CF91      		pop r28
 889 02a8 DF91      		pop r29
 890 02aa 1F91      		pop r17
 891 02ac 0F91      		pop r16
 892 02ae FF90      		pop r15
 893 02b0 EF90      		pop r14
 894 02b2 DF90      		pop r13
 895 02b4 CF90      		pop r12
 896 02b6 BF90      		pop r11
 897 02b8 AF90      		pop r10
 898 02ba 9F90      		pop r9
 899 02bc 8F90      		pop r8
 900 02be 7F90      		pop r7
 901 02c0 6F90      		pop r6
 902 02c2 0895      		ret
 908               	.Lscope16:
 915               	.global	PMDGetTraceStart
 917               	PMDGetTraceStart:
 919               	.LM69:
 920               	.LFBB17:
 921 02c4 6F92      		push r6
 922 02c6 7F92      		push r7
 923 02c8 8F92      		push r8
 924 02ca 9F92      		push r9
 925 02cc AF92      		push r10
 926 02ce BF92      		push r11
 927 02d0 CF92      		push r12
 928 02d2 DF92      		push r13
 929 02d4 EF92      		push r14
 930 02d6 FF92      		push r15
 931 02d8 0F93      		push r16
 932 02da 1F93      		push r17
 933 02dc DF93      		push r29
 934 02de CF93      		push r28
 935 02e0 00D0      		rcall .
 936 02e2 CDB7      		in r28,__SP_L__
 937 02e4 DEB7      		in r29,__SP_H__
 938               	/* prologue: function */
 939               	/* frame size = 2 */
 940 02e6 7C01      		movw r14,r24
 941 02e8 6B01      		movw r12,r22
 942 02ea 5A01      		movw r10,r20
 943 02ec 4901      		movw r8,r18
 945               	.LM70:
 946 02ee FC01      		movw r30,r24
 947 02f0 6280      		ldd r6,Z+2
 948 02f2 7380      		ldd r7,Z+3
 950               	.LM71:
 951 02f4 1382      		std Z+3,__zero_reg__
 952 02f6 1282      		std Z+2,__zero_reg__
 954               	.LM72:
 955 02f8 63EB      		ldi r22,lo8(179)
 956 02fa 70E0      		ldi r23,hi8(179)
 957 02fc AE01      		movw r20,r28
 958 02fe 4F5F      		subi r20,lo8(-(1))
 959 0300 5F4F      		sbci r21,hi8(-(1))
 960 0302 0E94 0000 		call SendCommandGetWord
 962               	.LM73:
 963 0306 2981      		ldd r18,Y+1
 964 0308 3A81      		ldd r19,Y+2
 965 030a A901      		movw r20,r18
 966 030c 4F70      		andi r20,lo8(15)
 967 030e 5070      		andi r21,hi8(15)
 968 0310 F601      		movw r30,r12
 969 0312 5183      		std Z+1,r21
 970 0314 4083      		st Z,r20
 972               	.LM74:
 973 0316 B4E0      		ldi r27,4
 974 0318 3695      	1:	lsr r19
 975 031a 2795      		ror r18
 976 031c BA95      		dec r27
 977 031e 01F4      		brne 1b
 978 0320 2F70      		andi r18,lo8(15)
 979 0322 F501      		movw r30,r10
 980 0324 2083      		st Z,r18
 982               	.LM75:
 983 0326 2A81      		ldd r18,Y+2
 984 0328 322F      		mov r19,r18
 985 032a 3F70      		andi r19,lo8(15)
 986 032c F401      		movw r30,r8
 987 032e 3083      		st Z,r19
 989               	.LM76:
 990 0330 2295      		swap r18
 991 0332 2F70      		andi r18,lo8(15)
 992 0334 F801      		movw r30,r16
 993 0336 2083      		st Z,r18
 995               	.LM77:
 996 0338 F701      		movw r30,r14
 997 033a 7382      		std Z+3,r7
 998 033c 6282      		std Z+2,r6
 999               	/* epilogue start */
 1001               	.LM78:
 1002 033e 0F90      		pop __tmp_reg__
 1003 0340 0F90      		pop __tmp_reg__
 1004 0342 CF91      		pop r28
 1005 0344 DF91      		pop r29
 1006 0346 1F91      		pop r17
 1007 0348 0F91      		pop r16
 1008 034a FF90      		pop r15
 1009 034c EF90      		pop r14
 1010 034e DF90      		pop r13
 1011 0350 CF90      		pop r12
 1012 0352 BF90      		pop r11
 1013 0354 AF90      		pop r10
 1014 0356 9F90      		pop r9
 1015 0358 8F90      		pop r8
 1016 035a 7F90      		pop r7
 1017 035c 6F90      		pop r6
 1018 035e 0895      		ret
 1024               	.Lscope17:
 1028               	.global	PMDGetTracePeriod
 1030               	PMDGetTracePeriod:
 1032               	.LM79:
 1033               	.LFBB18:
 1034 0360 EF92      		push r14
 1035 0362 FF92      		push r15
 1036 0364 0F93      		push r16
 1037 0366 1F93      		push r17
 1038               	/* prologue: function */
 1039               	/* frame size = 0 */
 1040 0368 8C01      		movw r16,r24
 1041 036a AB01      		movw r20,r22
 1043               	.LM80:
 1044 036c FC01      		movw r30,r24
 1045 036e E280      		ldd r14,Z+2
 1046 0370 F380      		ldd r15,Z+3
 1048               	.LM81:
 1049 0372 1382      		std Z+3,__zero_reg__
 1050 0374 1282      		std Z+2,__zero_reg__
 1052               	.LM82:
 1053 0376 69EB      		ldi r22,lo8(185)
 1054 0378 70E0      		ldi r23,hi8(185)
 1055 037a 0E94 0000 		call SendCommandGetWord
 1057               	.LM83:
 1058 037e F801      		movw r30,r16
 1059 0380 F382      		std Z+3,r15
 1060 0382 E282      		std Z+2,r14
 1061               	/* epilogue start */
 1063               	.LM84:
 1064 0384 1F91      		pop r17
 1065 0386 0F91      		pop r16
 1066 0388 FF90      		pop r15
 1067 038a EF90      		pop r14
 1068 038c 0895      		ret
 1073               	.Lscope18:
 1077               	.global	PMDGetTraceMode
 1079               	PMDGetTraceMode:
 1081               	.LM85:
 1082               	.LFBB19:
 1083 038e EF92      		push r14
 1084 0390 FF92      		push r15
 1085 0392 0F93      		push r16
 1086 0394 1F93      		push r17
 1087               	/* prologue: function */
 1088               	/* frame size = 0 */
 1089 0396 8C01      		movw r16,r24
 1090 0398 AB01      		movw r20,r22
 1092               	.LM86:
 1093 039a FC01      		movw r30,r24
 1094 039c E280      		ldd r14,Z+2
 1095 039e F380      		ldd r15,Z+3
 1097               	.LM87:
 1098 03a0 1382      		std Z+3,__zero_reg__
 1099 03a2 1282      		std Z+2,__zero_reg__
 1101               	.LM88:
 1102 03a4 61EB      		ldi r22,lo8(177)
 1103 03a6 70E0      		ldi r23,hi8(177)
 1104 03a8 0E94 0000 		call SendCommandGetWord
 1106               	.LM89:
 1107 03ac F801      		movw r30,r16
 1108 03ae F382      		std Z+3,r15
 1109 03b0 E282      		std Z+2,r14
 1110               	/* epilogue start */
 1112               	.LM90:
 1113 03b2 1F91      		pop r17
 1114 03b4 0F91      		pop r16
 1115 03b6 FF90      		pop r15
 1116 03b8 EF90      		pop r14
 1117 03ba 0895      		ret
 1122               	.Lscope19:
 1126               	.global	PMDGetPhaseCorrectionMode
 1128               	PMDGetPhaseCorrectionMode:
 1130               	.LM91:
 1131               	.LFBB20:
 1132               	/* prologue: function */
 1133               	/* frame size = 0 */
 1134 03bc AB01      		movw r20,r22
 1136               	.LM92:
 1137 03be 69EE      		ldi r22,lo8(233)
 1138 03c0 70E0      		ldi r23,hi8(233)
 1139 03c2 0E94 0000 		call SendCommandGetWord
 1140               	/* epilogue start */
 1142               	.LM93:
 1143 03c6 0895      		ret
 1145               	.Lscope20:
 1149               	.global	PMDGetPhaseAngle
 1151               	PMDGetPhaseAngle:
 1153               	.LM94:
 1154               	.LFBB21:
 1155               	/* prologue: function */
 1156               	/* frame size = 0 */
 1157 03c8 AB01      		movw r20,r22
 1159               	.LM95:
 1160 03ca 6CE2      		ldi r22,lo8(44)
 1161 03cc 70E0      		ldi r23,hi8(44)
 1162 03ce 0E94 0000 		call SendCommandGetWord
 1163               	/* epilogue start */
 1165               	.LM96:
 1166 03d2 0895      		ret
 1168               	.Lscope21:
 1172               	.global	PMDGetPhaseOffset
 1174               	PMDGetPhaseOffset:
 1176               	.LM97:
 1177               	.LFBB22:
 1178               	/* prologue: function */
 1179               	/* frame size = 0 */
 1180 03d4 AB01      		movw r20,r22
 1182               	.LM98:
 1183 03d6 6BE7      		ldi r22,lo8(123)
 1184 03d8 70E0      		ldi r23,hi8(123)
 1185 03da 0E94 0000 		call SendCommandGetWord
 1186               	/* epilogue start */
 1188               	.LM99:
 1189 03de 0895      		ret
 1191               	.Lscope22:
 1195               	.global	PMDGetPhaseInitializeTime
 1197               	PMDGetPhaseInitializeTime:
 1199               	.LM100:
 1200               	.LFBB23:
 1201               	/* prologue: function */
 1202               	/* frame size = 0 */
 1203 03e0 AB01      		movw r20,r22
 1205               	.LM101:
 1206 03e2 6CE7      		ldi r22,lo8(124)
 1207 03e4 70E0      		ldi r23,hi8(124)
 1208 03e6 0E94 0000 		call SendCommandGetWord
 1209               	/* epilogue start */
 1211               	.LM102:
 1212 03ea 0895      		ret
 1214               	.Lscope23:
 1218               	.global	PMDGetPhaseCounts
 1220               	PMDGetPhaseCounts:
 1222               	.LM103:
 1223               	.LFBB24:
 1224               	/* prologue: function */
 1225               	/* frame size = 0 */
 1226 03ec AB01      		movw r20,r22
 1228               	.LM104:
 1229 03ee 6DE7      		ldi r22,lo8(125)
 1230 03f0 70E0      		ldi r23,hi8(125)
 1231 03f2 0E94 0000 		call SendCommandGetWord
 1232               	/* epilogue start */
 1234               	.LM105:
 1235 03f6 0895      		ret
 1237               	.Lscope24:
 1241               	.global	PMDGetPhasePrescale
 1243               	PMDGetPhasePrescale:
 1245               	.LM106:
 1246               	.LFBB25:
 1247               	/* prologue: function */
 1248               	/* frame size = 0 */
 1249 03f8 AB01      		movw r20,r22
 1251               	.LM107:
 1252 03fa 67EE      		ldi r22,lo8(231)
 1253 03fc 70E0      		ldi r23,hi8(231)
 1254 03fe 0E94 0000 		call SendCommandGetWord
 1255               	/* epilogue start */
 1257               	.LM108:
 1258 0402 0895      		ret
 1260               	.Lscope25:
 1264               	.global	PMDGetPhaseInitializeMode
 1266               	PMDGetPhaseInitializeMode:
 1268               	.LM109:
 1269               	.LFBB26:
 1270               	/* prologue: function */
 1271               	/* frame size = 0 */
 1272 0404 AB01      		movw r20,r22
 1274               	.LM110:
 1275 0406 65EE      		ldi r22,lo8(229)
 1276 0408 70E0      		ldi r23,hi8(229)
 1277 040a 0E94 0000 		call SendCommandGetWord
 1278               	/* epilogue start */
 1280               	.LM111:
 1281 040e 0895      		ret
 1283               	.Lscope26:
 1287               	.global	PMDGetNumberPhases
 1289               	PMDGetNumberPhases:
 1291               	.LM112:
 1292               	.LFBB27:
 1293               	/* prologue: function */
 1294               	/* frame size = 0 */
 1295 0410 AB01      		movw r20,r22
 1297               	.LM113:
 1298 0412 66E8      		ldi r22,lo8(134)
 1299 0414 70E0      		ldi r23,hi8(134)
 1300 0416 0E94 0000 		call SendCommandGetWord
 1301               	/* epilogue start */
 1303               	.LM114:
 1304 041a 0895      		ret
 1306               	.Lscope27:
 1310               	.global	PMDGetCommutationMode
 1312               	PMDGetCommutationMode:
 1314               	.LM115:
 1315               	.LFBB28:
 1316               	/* prologue: function */
 1317               	/* frame size = 0 */
 1318 041c AB01      		movw r20,r22
 1320               	.LM116:
 1321 041e 63EE      		ldi r22,lo8(227)
 1322 0420 70E0      		ldi r23,hi8(227)
 1323 0422 0E94 0000 		call SendCommandGetWord
 1324               	/* epilogue start */
 1326               	.LM117:
 1327 0426 0895      		ret
 1329               	.Lscope28:
 1333               	.global	PMDGetCurrentMotorCommand
 1335               	PMDGetCurrentMotorCommand:
 1337               	.LM118:
 1338               	.LFBB29:
 1339               	/* prologue: function */
 1340               	/* frame size = 0 */
 1341 0428 AB01      		movw r20,r22
 1343               	.LM119:
 1344 042a 6AE3      		ldi r22,lo8(58)
 1345 042c 70E0      		ldi r23,hi8(58)
 1346 042e 0E94 0000 		call SendCommandGetWord
 1347               	/* epilogue start */
 1349               	.LM120:
 1350 0432 0895      		ret
 1352               	.Lscope29:
 1356               	.global	PMDGetMotorCommand
 1358               	PMDGetMotorCommand:
 1360               	.LM121:
 1361               	.LFBB30:
 1362               	/* prologue: function */
 1363               	/* frame size = 0 */
 1364 0434 AB01      		movw r20,r22
 1366               	.LM122:
 1367 0436 69E6      		ldi r22,lo8(105)
 1368 0438 70E0      		ldi r23,hi8(105)
 1369 043a 0E94 0000 		call SendCommandGetWord
 1370               	/* epilogue start */
 1372               	.LM123:
 1373 043e 0895      		ret
 1375               	.Lscope30:
 1379               	.global	PMDGetMotorMode
 1381               	PMDGetMotorMode:
 1383               	.LM124:
 1384               	.LFBB31:
 1385               	/* prologue: function */
 1386               	/* frame size = 0 */
 1387 0440 AB01      		movw r20,r22
 1389               	.LM125:
 1390 0442 6DED      		ldi r22,lo8(221)
 1391 0444 70E0      		ldi r23,hi8(221)
 1392 0446 0E94 0000 		call SendCommandGetWord
 1393               	/* epilogue start */
 1395               	.LM126:
 1396 044a 0895      		ret
 1398               	.Lscope31:
 1402               	.global	PMDGetOutputMode
 1404               	PMDGetOutputMode:
 1406               	.LM127:
 1407               	.LFBB32:
 1408               	/* prologue: function */
 1409               	/* frame size = 0 */
 1410 044c AB01      		movw r20,r22
 1412               	.LM128:
 1413 044e 6EE6      		ldi r22,lo8(110)
 1414 0450 70E0      		ldi r23,hi8(110)
 1415 0452 0E94 0000 		call SendCommandGetWord
 1416               	/* epilogue start */
 1418               	.LM129:
 1419 0456 0895      		ret
 1421               	.Lscope32:
 1425               	.global	PMDGetEncoderModulus
 1427               	PMDGetEncoderModulus:
 1429               	.LM130:
 1430               	.LFBB33:
 1431               	/* prologue: function */
 1432               	/* frame size = 0 */
 1433 0458 AB01      		movw r20,r22
 1435               	.LM131:
 1436 045a 6EE8      		ldi r22,lo8(142)
 1437 045c 70E0      		ldi r23,hi8(142)
 1438 045e 0E94 0000 		call SendCommandGetWord
 1439               	/* epilogue start */
 1441               	.LM132:
 1442 0462 0895      		ret
 1444               	.Lscope33:
 1448               	.global	PMDGetEncoderSource
 1450               	PMDGetEncoderSource:
 1452               	.LM133:
 1453               	.LFBB34:
 1454               	/* prologue: function */
 1455               	/* frame size = 0 */
 1456 0464 AB01      		movw r20,r22
 1458               	.LM134:
 1459 0466 6BED      		ldi r22,lo8(219)
 1460 0468 70E0      		ldi r23,hi8(219)
 1461 046a 0E94 0000 		call SendCommandGetWord
 1462               	/* epilogue start */
 1464               	.LM135:
 1465 046e 0895      		ret
 1467               	.Lscope34:
 1471               	.global	PMDGetCaptureSource
 1473               	PMDGetCaptureSource:
 1475               	.LM136:
 1476               	.LFBB35:
 1477               	/* prologue: function */
 1478               	/* frame size = 0 */
 1479 0470 AB01      		movw r20,r22
 1481               	.LM137:
 1482 0472 69ED      		ldi r22,lo8(217)
 1483 0474 70E0      		ldi r23,hi8(217)
 1484 0476 0E94 0000 		call SendCommandGetWord
 1485               	/* epilogue start */
 1487               	.LM138:
 1488 047a 0895      		ret
 1490               	.Lscope35:
 1494               	.global	PMDGetActualPositionUnits
 1496               	PMDGetActualPositionUnits:
 1498               	.LM139:
 1499               	.LFBB36:
 1500               	/* prologue: function */
 1501               	/* frame size = 0 */
 1502 047c AB01      		movw r20,r22
 1504               	.LM140:
 1505 047e 6FEB      		ldi r22,lo8(191)
 1506 0480 70E0      		ldi r23,hi8(191)
 1507 0482 0E94 0000 		call SendCommandGetWord
 1508               	/* epilogue start */
 1510               	.LM141:
 1511 0486 0895      		ret
 1513               	.Lscope36:
 1517               	.global	PMDGetSignalStatus
 1519               	PMDGetSignalStatus:
 1521               	.LM142:
 1522               	.LFBB37:
 1523               	/* prologue: function */
 1524               	/* frame size = 0 */
 1525 0488 AB01      		movw r20,r22
 1527               	.LM143:
 1528 048a 64EA      		ldi r22,lo8(164)
 1529 048c 70E0      		ldi r23,hi8(164)
 1530 048e 0E94 0000 		call SendCommandGetWord
 1531               	/* epilogue start */
 1533               	.LM144:
 1534 0492 0895      		ret
 1536               	.Lscope37:
 1540               	.global	PMDGetSignalSense
 1542               	PMDGetSignalSense:
 1544               	.LM145:
 1545               	.LFBB38:
 1546               	/* prologue: function */
 1547               	/* frame size = 0 */
 1548 0494 AB01      		movw r20,r22
 1550               	.LM146:
 1551 0496 63EA      		ldi r22,lo8(163)
 1552 0498 70E0      		ldi r23,hi8(163)
 1553 049a 0E94 0000 		call SendCommandGetWord
 1554               	/* epilogue start */
 1556               	.LM147:
 1557 049e 0895      		ret
 1559               	.Lscope38:
 1563               	.global	PMDGetActivityStatus
 1565               	PMDGetActivityStatus:
 1567               	.LM148:
 1568               	.LFBB39:
 1569               	/* prologue: function */
 1570               	/* frame size = 0 */
 1571 04a0 AB01      		movw r20,r22
 1573               	.LM149:
 1574 04a2 66EA      		ldi r22,lo8(166)
 1575 04a4 70E0      		ldi r23,hi8(166)
 1576 04a6 0E94 0000 		call SendCommandGetWord
 1577               	/* epilogue start */
 1579               	.LM150:
 1580 04aa 0895      		ret
 1582               	.Lscope39:
 1586               	.global	PMDGetEventStatus
 1588               	PMDGetEventStatus:
 1590               	.LM151:
 1591               	.LFBB40:
 1592               	/* prologue: function */
 1593               	/* frame size = 0 */
 1594 04ac AB01      		movw r20,r22
 1596               	.LM152:
 1597 04ae 61E3      		ldi r22,lo8(49)
 1598 04b0 70E0      		ldi r23,hi8(49)
 1599 04b2 0E94 0000 		call SendCommandGetWord
 1600               	/* epilogue start */
 1602               	.LM153:
 1603 04b6 0895      		ret
 1605               	.Lscope40:
 1609               	.global	PMDGetInterruptAxis
 1611               	PMDGetInterruptAxis:
 1613               	.LM154:
 1614               	.LFBB41:
 1615               	/* prologue: function */
 1616               	/* frame size = 0 */
 1617 04b8 AB01      		movw r20,r22
 1619               	.LM155:
 1620 04ba 61EE      		ldi r22,lo8(225)
 1621 04bc 70E0      		ldi r23,hi8(225)
 1622 04be 0E94 0000 		call SendCommandGetWord
 1623               	/* epilogue start */
 1625               	.LM156:
 1626 04c2 0895      		ret
 1628               	.Lscope41:
 1632               	.global	PMDGetInterruptMask
 1634               	PMDGetInterruptMask:
 1636               	.LM157:
 1637               	.LFBB42:
 1638               	/* prologue: function */
 1639               	/* frame size = 0 */
 1640 04c4 AB01      		movw r20,r22
 1642               	.LM158:
 1643 04c6 66E5      		ldi r22,lo8(86)
 1644 04c8 70E0      		ldi r23,hi8(86)
 1645 04ca 0E94 0000 		call SendCommandGetWord
 1646               	/* epilogue start */
 1648               	.LM159:
 1649 04ce 0895      		ret
 1651               	.Lscope42:
 1655               	.global	PMDGetSampleTime
 1657               	PMDGetSampleTime:
 1659               	.LM160:
 1660               	.LFBB43:
 1661               	/* prologue: function */
 1662               	/* frame size = 0 */
 1663 04d0 AB01      		movw r20,r22
 1665               	.LM161:
 1666 04d2 61E6      		ldi r22,lo8(97)
 1667 04d4 70E0      		ldi r23,hi8(97)
 1668 04d6 0E94 0000 		call SendCommandGetWord
 1669               	/* epilogue start */
 1671               	.LM162:
 1672 04da 0895      		ret
 1674               	.Lscope43:
 1678               	.global	PMDGetDerivative
 1680               	PMDGetDerivative:
 1682               	.LM163:
 1683               	.LFBB44:
 1684               	/* prologue: function */
 1685               	/* frame size = 0 */
 1686 04dc AB01      		movw r20,r22
 1688               	.LM164:
 1689 04de 6BE9      		ldi r22,lo8(155)
 1690 04e0 70E0      		ldi r23,hi8(155)
 1691 04e2 0E94 0000 		call SendCommandGetWord
 1692               	/* epilogue start */
 1694               	.LM165:
 1695 04e6 0895      		ret
 1697               	.Lscope44:
 1701               	.global	PMDGetMotionCompleteMode
 1703               	PMDGetMotionCompleteMode:
 1705               	.LM166:
 1706               	.LFBB45:
 1707               	/* prologue: function */
 1708               	/* frame size = 0 */
 1709 04e8 AB01      		movw r20,r22
 1711               	.LM167:
 1712 04ea 6CEE      		ldi r22,lo8(236)
 1713 04ec 70E0      		ldi r23,hi8(236)
 1714 04ee 0E94 0000 		call SendCommandGetWord
 1715               	/* epilogue start */
 1717               	.LM168:
 1718 04f2 0895      		ret
 1720               	.Lscope45:
 1724               	.global	PMDGetTrackingWindow
 1726               	PMDGetTrackingWindow:
 1728               	.LM169:
 1729               	.LFBB46:
 1730               	/* prologue: function */
 1731               	/* frame size = 0 */
 1732 04f4 AB01      		movw r20,r22
 1734               	.LM170:
 1735 04f6 69EA      		ldi r22,lo8(169)
 1736 04f8 70E0      		ldi r23,hi8(169)
 1737 04fa 0E94 0000 		call SendCommandGetWord
 1738               	/* epilogue start */
 1740               	.LM171:
 1741 04fe 0895      		ret
 1743               	.Lscope46:
 1747               	.global	PMDGetSettleWindow
 1749               	PMDGetSettleWindow:
 1751               	.LM172:
 1752               	.LFBB47:
 1753               	/* prologue: function */
 1754               	/* frame size = 0 */
 1755 0500 AB01      		movw r20,r22
 1757               	.LM173:
 1758 0502 6DEB      		ldi r22,lo8(189)
 1759 0504 70E0      		ldi r23,hi8(189)
 1760 0506 0E94 0000 		call SendCommandGetWord
 1761               	/* epilogue start */
 1763               	.LM174:
 1764 050a 0895      		ret
 1766               	.Lscope47:
 1770               	.global	PMDGetSettleTime
 1772               	PMDGetSettleTime:
 1774               	.LM175:
 1775               	.LFBB48:
 1776               	/* prologue: function */
 1777               	/* frame size = 0 */
 1778 050c AB01      		movw r20,r22
 1780               	.LM176:
 1781 050e 6BEA      		ldi r22,lo8(171)
 1782 0510 70E0      		ldi r23,hi8(171)
 1783 0512 0E94 0000 		call SendCommandGetWord
 1784               	/* epilogue start */
 1786               	.LM177:
 1787 0516 0895      		ret
 1789               	.Lscope48:
 1793               	.global	PMDGetDerivativeTime
 1795               	PMDGetDerivativeTime:
 1797               	.LM178:
 1798               	.LFBB49:
 1799               	/* prologue: function */
 1800               	/* frame size = 0 */
 1801 0518 AB01      		movw r20,r22
 1803               	.LM179:
 1804 051a 6DE9      		ldi r22,lo8(157)
 1805 051c 70E0      		ldi r23,hi8(157)
 1806 051e 0E94 0000 		call SendCommandGetWord
 1807               	/* epilogue start */
 1809               	.LM180:
 1810 0522 0895      		ret
 1812               	.Lscope49:
 1816               	.global	PMDGetAutoStopMode
 1818               	PMDGetAutoStopMode:
 1820               	.LM181:
 1821               	.LFBB50:
 1822               	/* prologue: function */
 1823               	/* frame size = 0 */
 1824 0524 AB01      		movw r20,r22
 1826               	.LM182:
 1827 0526 63ED      		ldi r22,lo8(211)
 1828 0528 70E0      		ldi r23,hi8(211)
 1829 052a 0E94 0000 		call SendCommandGetWord
 1830               	/* epilogue start */
 1832               	.LM183:
 1833 052e 0895      		ret
 1835               	.Lscope50:
 1839               	.global	PMDGetMotorBias
 1841               	PMDGetMotorBias:
 1843               	.LM184:
 1844               	.LFBB51:
 1845               	/* prologue: function */
 1846               	/* frame size = 0 */
 1847 0530 AB01      		movw r20,r22
 1849               	.LM185:
 1850 0532 6DE2      		ldi r22,lo8(45)
 1851 0534 70E0      		ldi r23,hi8(45)
 1852 0536 0E94 0000 		call SendCommandGetWord
 1853               	/* epilogue start */
 1855               	.LM186:
 1856 053a 0895      		ret
 1858               	.Lscope51:
 1862               	.global	PMDGetMotorLimit
 1864               	PMDGetMotorLimit:
 1866               	.LM187:
 1867               	.LFBB52:
 1868               	/* prologue: function */
 1869               	/* frame size = 0 */
 1870 053c AB01      		movw r20,r22
 1872               	.LM188:
 1873 053e 67E0      		ldi r22,lo8(7)
 1874 0540 70E0      		ldi r23,hi8(7)
 1875 0542 0E94 0000 		call SendCommandGetWord
 1876               	/* epilogue start */
 1878               	.LM189:
 1879 0546 0895      		ret
 1881               	.Lscope52:
 1885               	.global	PMDGetLimitSwitchMode
 1887               	PMDGetLimitSwitchMode:
 1889               	.LM190:
 1890               	.LFBB53:
 1891               	/* prologue: function */
 1892               	/* frame size = 0 */
 1893 0548 AB01      		movw r20,r22
 1895               	.LM191:
 1896 054a 61E8      		ldi r22,lo8(129)
 1897 054c 70E0      		ldi r23,hi8(129)
 1898 054e 0E94 0000 		call SendCommandGetWord
 1899               	/* epilogue start */
 1901               	.LM192:
 1902 0552 0895      		ret
 1904               	.Lscope53:
 1908               	.global	PMDGetKout
 1910               	PMDGetKout:
 1912               	.LM193:
 1913               	.LFBB54:
 1914               	/* prologue: function */
 1915               	/* frame size = 0 */
 1916 0554 AB01      		movw r20,r22
 1918               	.LM194:
 1919 0556 6FE9      		ldi r22,lo8(159)
 1920 0558 70E0      		ldi r23,hi8(159)
 1921 055a 0E94 0000 		call SendCommandGetWord
 1922               	/* epilogue start */
 1924               	.LM195:
 1925 055e 0895      		ret
 1927               	.Lscope54:
 1931               	.global	PMDGetKaff
 1933               	PMDGetKaff:
 1935               	.LM196:
 1936               	.LFBB55:
 1937               	/* prologue: function */
 1938               	/* frame size = 0 */
 1939 0560 AB01      		movw r20,r22
 1941               	.LM197:
 1942 0562 64E9      		ldi r22,lo8(148)
 1943 0564 70E0      		ldi r23,hi8(148)
 1944 0566 0E94 0000 		call SendCommandGetWord
 1945               	/* epilogue start */
 1947               	.LM198:
 1948 056a 0895      		ret
 1950               	.Lscope55:
 1954               	.global	PMDGetKvff
 1956               	PMDGetKvff:
 1958               	.LM199:
 1959               	.LFBB56:
 1960               	/* prologue: function */
 1961               	/* frame size = 0 */
 1962 056c AB01      		movw r20,r22
 1964               	.LM200:
 1965 056e 64E5      		ldi r22,lo8(84)
 1966 0570 70E0      		ldi r23,hi8(84)
 1967 0572 0E94 0000 		call SendCommandGetWord
 1968               	/* epilogue start */
 1970               	.LM201:
 1971 0576 0895      		ret
 1973               	.Lscope56:
 1977               	.global	PMDGetKi
 1979               	PMDGetKi:
 1981               	.LM202:
 1982               	.LFBB57:
 1983               	/* prologue: function */
 1984               	/* frame size = 0 */
 1985 0578 AB01      		movw r20,r22
 1987               	.LM203:
 1988 057a 61E5      		ldi r22,lo8(81)
 1989 057c 70E0      		ldi r23,hi8(81)
 1990 057e 0E94 0000 		call SendCommandGetWord
 1991               	/* epilogue start */
 1993               	.LM204:
 1994 0582 0895      		ret
 1996               	.Lscope57:
 2000               	.global	PMDGetKd
 2002               	PMDGetKd:
 2004               	.LM205:
 2005               	.LFBB58:
 2006               	/* prologue: function */
 2007               	/* frame size = 0 */
 2008 0584 AB01      		movw r20,r22
 2010               	.LM206:
 2011 0586 62E5      		ldi r22,lo8(82)
 2012 0588 70E0      		ldi r23,hi8(82)
 2013 058a 0E94 0000 		call SendCommandGetWord
 2014               	/* epilogue start */
 2016               	.LM207:
 2017 058e 0895      		ret
 2019               	.Lscope58:
 2023               	.global	PMDGetKp
 2025               	PMDGetKp:
 2027               	.LM208:
 2028               	.LFBB59:
 2029               	/* prologue: function */
 2030               	/* frame size = 0 */
 2031 0590 AB01      		movw r20,r22
 2033               	.LM209:
 2034 0592 60E5      		ldi r22,lo8(80)
 2035 0594 70E0      		ldi r23,hi8(80)
 2036 0596 0E94 0000 		call SendCommandGetWord
 2037               	/* epilogue start */
 2039               	.LM210:
 2040 059a 0895      		ret
 2042               	.Lscope59:
 2046               	.global	PMDGetStopMode
 2048               	PMDGetStopMode:
 2050               	.LM211:
 2051               	.LFBB60:
 2052               	/* prologue: function */
 2053               	/* frame size = 0 */
 2054 059c AB01      		movw r20,r22
 2056               	.LM212:
 2057 059e 61ED      		ldi r22,lo8(209)
 2058 05a0 70E0      		ldi r23,hi8(209)
 2059 05a2 0E94 0000 		call SendCommandGetWord
 2060               	/* epilogue start */
 2062               	.LM213:
 2063 05a6 0895      		ret
 2065               	.Lscope60:
 2070               	.global	PMDGetGearMaster
 2072               	PMDGetGearMaster:
 2074               	.LM214:
 2075               	.LFBB61:
 2076 05a8 EF92      		push r14
 2077 05aa FF92      		push r15
 2078 05ac 0F93      		push r16
 2079 05ae 1F93      		push r17
 2080 05b0 DF93      		push r29
 2081 05b2 CF93      		push r28
 2082 05b4 00D0      		rcall .
 2083 05b6 CDB7      		in r28,__SP_L__
 2084 05b8 DEB7      		in r29,__SP_H__
 2085               	/* prologue: function */
 2086               	/* frame size = 2 */
 2087 05ba 8B01      		movw r16,r22
 2088 05bc 7A01      		movw r14,r20
 2090               	.LM215:
 2091 05be 6FEA      		ldi r22,lo8(175)
 2092 05c0 70E0      		ldi r23,hi8(175)
 2093 05c2 AE01      		movw r20,r28
 2094 05c4 4F5F      		subi r20,lo8(-(1))
 2095 05c6 5F4F      		sbci r21,hi8(-(1))
 2096 05c8 0E94 0000 		call SendCommandGetWord
 2098               	.LM216:
 2099 05cc 2981      		ldd r18,Y+1
 2100 05ce 3A81      		ldd r19,Y+2
 2101 05d0 2F70      		andi r18,lo8(15)
 2102 05d2 3070      		andi r19,hi8(15)
 2103 05d4 F801      		movw r30,r16
 2104 05d6 3183      		std Z+1,r19
 2105 05d8 2083      		st Z,r18
 2107               	.LM217:
 2108 05da 2A81      		ldd r18,Y+2
 2109 05dc 2F70      		andi r18,lo8(15)
 2110 05de F701      		movw r30,r14
 2111 05e0 2083      		st Z,r18
 2112               	/* epilogue start */
 2114               	.LM218:
 2115 05e2 0F90      		pop __tmp_reg__
 2116 05e4 0F90      		pop __tmp_reg__
 2117 05e6 CF91      		pop r28
 2118 05e8 DF91      		pop r29
 2119 05ea 1F91      		pop r17
 2120 05ec 0F91      		pop r16
 2121 05ee FF90      		pop r15
 2122 05f0 EF90      		pop r14
 2123 05f2 0895      		ret
 2128               	.Lscope61:
 2132               	.global	PMDGetProfileMode
 2134               	PMDGetProfileMode:
 2136               	.LM219:
 2137               	.LFBB62:
 2138               	/* prologue: function */
 2139               	/* frame size = 0 */
 2140 05f4 AB01      		movw r20,r22
 2142               	.LM220:
 2143 05f6 61EA      		ldi r22,lo8(161)
 2144 05f8 70E0      		ldi r23,hi8(161)
 2145 05fa 0E94 0000 		call SendCommandGetWord
 2146               	/* epilogue start */
 2148               	.LM221:
 2149 05fe 0895      		ret
 2151               	.Lscope62:
 2155               	.global	PMDSetSynchronizationMode
 2157               	PMDSetSynchronizationMode:
 2159               	.LM222:
 2160               	.LFBB63:
 2161               	/* prologue: function */
 2162               	/* frame size = 0 */
 2163 0600 AB01      		movw r20,r22
 2165               	.LM223:
 2166 0602 62EF      		ldi r22,lo8(242)
 2167 0604 70E0      		ldi r23,hi8(242)
 2168 0606 0E94 0000 		call SendCommandWord
 2169               	/* epilogue start */
 2171               	.LM224:
 2172 060a 0895      		ret
 2174               	.Lscope63:
 2178               	.global	PMDSetStepRange
 2180               	PMDSetStepRange:
 2182               	.LM225:
 2183               	.LFBB64:
 2184               	/* prologue: function */
 2185               	/* frame size = 0 */
 2186 060c AB01      		movw r20,r22
 2188               	.LM226:
 2189 060e 6FEC      		ldi r22,lo8(207)
 2190 0610 70E0      		ldi r23,hi8(207)
 2191 0612 0E94 0000 		call SendCommandWord
 2192               	/* epilogue start */
 2194               	.LM227:
 2195 0616 0895      		ret
 2197               	.Lscope64:
 2201               	.global	PMDSetDiagnosticPortMode
 2203               	PMDSetDiagnosticPortMode:
 2205               	.LM228:
 2206               	.LFBB65:
 2207               	/* prologue: function */
 2208               	/* frame size = 0 */
 2209 0618 AB01      		movw r20,r22
 2211               	.LM229:
 2212 061a 69E8      		ldi r22,lo8(137)
 2213 061c 70E0      		ldi r23,hi8(137)
 2214 061e 0E94 0000 		call SendCommandWord
 2215               	/* epilogue start */
 2217               	.LM230:
 2218 0622 0895      		ret
 2220               	.Lscope65:
 2228               	.global	PMDSetSerialPortMode
 2230               	PMDSetSerialPortMode:
 2232               	.LM231:
 2233               	.LFBB66:
 2234 0624 EF92      		push r14
 2235 0626 0F93      		push r16
 2236 0628 1F93      		push r17
 2237               	/* prologue: function */
 2238               	/* frame size = 0 */
 2240               	.LM232:
 2241 062a 50E0      		ldi r21,lo8(0)
 2242 062c 74E0      		ldi r23,4
 2243 062e 440F      	1:	lsl r20
 2244 0630 551F      		rol r21
 2245 0632 7A95      		dec r23
 2246 0634 01F4      		brne 1b
 2247 0636 70E0      		ldi r23,lo8(0)
 2248 0638 462B      		or r20,r22
 2249 063a 572B      		or r21,r23
 2250 063c 30E0      		ldi r19,lo8(0)
 2251 063e 66E0      		ldi r22,6
 2252 0640 220F      	1:	lsl r18
 2253 0642 331F      		rol r19
 2254 0644 6A95      		dec r22
 2255 0646 01F4      		brne 1b
 2256 0648 422B      		or r20,r18
 2257 064a 532B      		or r21,r19
 2258 064c 10E0      		ldi r17,lo8(0)
 2259 064e 1695      		lsr r17
 2260 0650 102F      		mov r17,r16
 2261 0652 0027      		clr r16
 2262 0654 1795      		ror r17
 2263 0656 0795      		ror r16
 2264 0658 402B      		or r20,r16
 2265 065a 512B      		or r21,r17
 2266 065c 3E2D      		mov r19,r14
 2267 065e 330F      		lsl r19
 2268 0660 330F      		lsl r19
 2269 0662 330F      		lsl r19
 2270 0664 20E0      		ldi r18,lo8(0)
 2271 0666 422B      		or r20,r18
 2272 0668 532B      		or r21,r19
 2273 066a 6BE8      		ldi r22,lo8(139)
 2274 066c 70E0      		ldi r23,hi8(139)
 2275 066e 0E94 0000 		call SendCommandWord
 2276               	/* epilogue start */
 2278               	.LM233:
 2279 0672 1F91      		pop r17
 2280 0674 0F91      		pop r16
 2281 0676 EF90      		pop r14
 2282 0678 0895      		ret
 2284               	.Lscope66:
 2290               	.global	PMDSetAxisOutSource
 2292               	PMDSetAxisOutSource:
 2294               	.LM234:
 2295               	.LFBB67:
 2296               	/* prologue: function */
 2297               	/* frame size = 0 */
 2299               	.LM235:
 2300 067a 50E0      		ldi r21,lo8(0)
 2301 067c F4E0      		ldi r31,4
 2302 067e 440F      	1:	lsl r20
 2303 0680 551F      		rol r21
 2304 0682 FA95      		dec r31
 2305 0684 01F4      		brne 1b
 2306 0686 5070      		andi r21,hi8(255)
 2307 0688 6F70      		andi r22,lo8(15)
 2308 068a 7070      		andi r23,hi8(15)
 2309 068c 462B      		or r20,r22
 2310 068e 572B      		or r21,r23
 2311 0690 30E0      		ldi r19,lo8(0)
 2312 0692 2F70      		andi r18,lo8(15)
 2313 0694 3070      		andi r19,hi8(15)
 2314 0696 322F      		mov r19,r18
 2315 0698 2227      		clr r18
 2316 069a 422B      		or r20,r18
 2317 069c 532B      		or r21,r19
 2318 069e 6DEE      		ldi r22,lo8(237)
 2319 06a0 70E0      		ldi r23,hi8(237)
 2320 06a2 0E94 0000 		call SendCommandWord
 2321               	/* epilogue start */
 2323               	.LM236:
 2324 06a6 0895      		ret
 2326               	.Lscope67:
 2330               	.global	PMDSetAxisMode
 2332               	PMDSetAxisMode:
 2334               	.LM237:
 2335               	.LFBB68:
 2336               	/* prologue: function */
 2337               	/* frame size = 0 */
 2338 06a8 AB01      		movw r20,r22
 2340               	.LM238:
 2341 06aa 67E8      		ldi r22,lo8(135)
 2342 06ac 70E0      		ldi r23,hi8(135)
 2343 06ae 0E94 0000 		call SendCommandWord
 2344               	/* epilogue start */
 2346               	.LM239:
 2347 06b2 0895      		ret
 2349               	.Lscope68:
 2356               	.global	PMDSetTraceStop
 2358               	PMDSetTraceStop:
 2360               	.LM240:
 2361               	.LFBB69:
 2362 06b4 0F93      		push r16
 2363 06b6 1F93      		push r17
 2364 06b8 CF93      		push r28
 2365 06ba DF93      		push r29
 2366               	/* prologue: function */
 2367               	/* frame size = 0 */
 2368 06bc EC01      		movw r28,r24
 2369 06be 822F      		mov r24,r18
 2370 06c0 502F      		mov r21,r16
 2372               	.LM241:
 2373 06c2 E42F      		mov r30,r20
 2374 06c4 F0E0      		ldi r31,lo8(0)
 2375 06c6 B4E0      		ldi r27,4
 2376 06c8 EE0F      	1:	lsl r30
 2377 06ca FF1F      		rol r31
 2378 06cc BA95      		dec r27
 2379 06ce 01F4      		brne 1b
 2380 06d0 F070      		andi r31,hi8(255)
 2381 06d2 6F70      		andi r22,lo8(15)
 2382 06d4 7070      		andi r23,hi8(15)
 2383 06d6 E62B      		or r30,r22
 2384 06d8 F72B      		or r31,r23
 2386               	.LM242:
 2387 06da 0A81      		ldd r16,Y+2
 2388 06dc 1B81      		ldd r17,Y+3
 2390               	.LM243:
 2391 06de 1B82      		std Y+3,__zero_reg__
 2392 06e0 1A82      		std Y+2,__zero_reg__
 2394               	.LM244:
 2395 06e2 4250      		subi r20,lo8(-(-2))
 2396 06e4 4330      		cpi r20,lo8(3)
 2397 06e6 00F4      		brsh .L138
 2399               	.LM245:
 2400 06e8 352F      		mov r19,r21
 2401 06ea 3295      		swap r19
 2402 06ec 307F      		andi r19,lo8(-16)
 2403 06ee 20E0      		ldi r18,lo8(0)
 2404 06f0 90E0      		ldi r25,lo8(0)
 2405 06f2 8F70      		andi r24,lo8(15)
 2406 06f4 9070      		andi r25,hi8(15)
 2407 06f6 982F      		mov r25,r24
 2408 06f8 8827      		clr r24
 2409 06fa 282B      		or r18,r24
 2410 06fc 392B      		or r19,r25
 2411 06fe E22B      		or r30,r18
 2412 0700 F32B      		or r31,r19
 2413               	.L138:
 2415               	.LM246:
 2416 0702 CE01      		movw r24,r28
 2417 0704 64EB      		ldi r22,lo8(180)
 2418 0706 70E0      		ldi r23,hi8(180)
 2419 0708 AF01      		movw r20,r30
 2420 070a 0E94 0000 		call SendCommandWord
 2422               	.LM247:
 2423 070e 1B83      		std Y+3,r17
 2424 0710 0A83      		std Y+2,r16
 2425               	/* epilogue start */
 2427               	.LM248:
 2428 0712 DF91      		pop r29
 2429 0714 CF91      		pop r28
 2430 0716 1F91      		pop r17
 2431 0718 0F91      		pop r16
 2432 071a 0895      		ret
 2438               	.Lscope69:
 2445               	.global	PMDSetTraceStart
 2447               	PMDSetTraceStart:
 2449               	.LM249:
 2450               	.LFBB70:
 2451 071c 0F93      		push r16
 2452 071e 1F93      		push r17
 2453 0720 CF93      		push r28
 2454 0722 DF93      		push r29
 2455               	/* prologue: function */
 2456               	/* frame size = 0 */
 2457 0724 EC01      		movw r28,r24
 2458 0726 822F      		mov r24,r18
 2459 0728 502F      		mov r21,r16
 2461               	.LM250:
 2462 072a E42F      		mov r30,r20
 2463 072c F0E0      		ldi r31,lo8(0)
 2464 072e A4E0      		ldi r26,4
 2465 0730 EE0F      	1:	lsl r30
 2466 0732 FF1F      		rol r31
 2467 0734 AA95      		dec r26
 2468 0736 01F4      		brne 1b
 2469 0738 F070      		andi r31,hi8(255)
 2470 073a 6F70      		andi r22,lo8(15)
 2471 073c 7070      		andi r23,hi8(15)
 2472 073e E62B      		or r30,r22
 2473 0740 F72B      		or r31,r23
 2475               	.LM251:
 2476 0742 0A81      		ldd r16,Y+2
 2477 0744 1B81      		ldd r17,Y+3
 2479               	.LM252:
 2480 0746 1B82      		std Y+3,__zero_reg__
 2481 0748 1A82      		std Y+2,__zero_reg__
 2483               	.LM253:
 2484 074a 4250      		subi r20,lo8(-(-2))
 2485 074c 4330      		cpi r20,lo8(3)
 2486 074e 00F4      		brsh .L142
 2488               	.LM254:
 2489 0750 352F      		mov r19,r21
 2490 0752 3295      		swap r19
 2491 0754 307F      		andi r19,lo8(-16)
 2492 0756 20E0      		ldi r18,lo8(0)
 2493 0758 90E0      		ldi r25,lo8(0)
 2494 075a 8F70      		andi r24,lo8(15)
 2495 075c 9070      		andi r25,hi8(15)
 2496 075e 982F      		mov r25,r24
 2497 0760 8827      		clr r24
 2498 0762 282B      		or r18,r24
 2499 0764 392B      		or r19,r25
 2500 0766 E22B      		or r30,r18
 2501 0768 F32B      		or r31,r19
 2502               	.L142:
 2504               	.LM255:
 2505 076a CE01      		movw r24,r28
 2506 076c 62EB      		ldi r22,lo8(178)
 2507 076e 70E0      		ldi r23,hi8(178)
 2508 0770 AF01      		movw r20,r30
 2509 0772 0E94 0000 		call SendCommandWord
 2511               	.LM256:
 2512 0776 1B83      		std Y+3,r17
 2513 0778 0A83      		std Y+2,r16
 2514               	/* epilogue start */
 2516               	.LM257:
 2517 077a DF91      		pop r29
 2518 077c CF91      		pop r28
 2519 077e 1F91      		pop r17
 2520 0780 0F91      		pop r16
 2521 0782 0895      		ret
 2527               	.Lscope70:
 2531               	.global	PMDSetTracePeriod
 2533               	PMDSetTracePeriod:
 2535               	.LM258:
 2536               	.LFBB71:
 2537 0784 EF92      		push r14
 2538 0786 FF92      		push r15
 2539 0788 0F93      		push r16
 2540 078a 1F93      		push r17
 2541               	/* prologue: function */
 2542               	/* frame size = 0 */
 2543 078c 8C01      		movw r16,r24
 2544 078e AB01      		movw r20,r22
 2546               	.LM259:
 2547 0790 FC01      		movw r30,r24
 2548 0792 E280      		ldd r14,Z+2
 2549 0794 F380      		ldd r15,Z+3
 2551               	.LM260:
 2552 0796 1382      		std Z+3,__zero_reg__
 2553 0798 1282      		std Z+2,__zero_reg__
 2555               	.LM261:
 2556 079a 68EB      		ldi r22,lo8(184)
 2557 079c 70E0      		ldi r23,hi8(184)
 2558 079e 0E94 0000 		call SendCommandWord
 2560               	.LM262:
 2561 07a2 F801      		movw r30,r16
 2562 07a4 F382      		std Z+3,r15
 2563 07a6 E282      		std Z+2,r14
 2564               	/* epilogue start */
 2566               	.LM263:
 2567 07a8 1F91      		pop r17
 2568 07aa 0F91      		pop r16
 2569 07ac FF90      		pop r15
 2570 07ae EF90      		pop r14
 2571 07b0 0895      		ret
 2576               	.Lscope71:
 2580               	.global	PMDSetTraceMode
 2582               	PMDSetTraceMode:
 2584               	.LM264:
 2585               	.LFBB72:
 2586 07b2 EF92      		push r14
 2587 07b4 FF92      		push r15
 2588 07b6 0F93      		push r16
 2589 07b8 1F93      		push r17
 2590               	/* prologue: function */
 2591               	/* frame size = 0 */
 2592 07ba 8C01      		movw r16,r24
 2593 07bc AB01      		movw r20,r22
 2595               	.LM265:
 2596 07be FC01      		movw r30,r24
 2597 07c0 E280      		ldd r14,Z+2
 2598 07c2 F380      		ldd r15,Z+3
 2600               	.LM266:
 2601 07c4 1382      		std Z+3,__zero_reg__
 2602 07c6 1282      		std Z+2,__zero_reg__
 2604               	.LM267:
 2605 07c8 60EB      		ldi r22,lo8(176)
 2606 07ca 70E0      		ldi r23,hi8(176)
 2607 07cc 0E94 0000 		call SendCommandWord
 2609               	.LM268:
 2610 07d0 F801      		movw r30,r16
 2611 07d2 F382      		std Z+3,r15
 2612 07d4 E282      		std Z+2,r14
 2613               	/* epilogue start */
 2615               	.LM269:
 2616 07d6 1F91      		pop r17
 2617 07d8 0F91      		pop r16
 2618 07da FF90      		pop r15
 2619 07dc EF90      		pop r14
 2620 07de 0895      		ret
 2625               	.Lscope72:
 2629               	.global	PMDSetPhaseCorrectionMode
 2631               	PMDSetPhaseCorrectionMode:
 2633               	.LM270:
 2634               	.LFBB73:
 2635               	/* prologue: function */
 2636               	/* frame size = 0 */
 2637 07e0 AB01      		movw r20,r22
 2639               	.LM271:
 2640 07e2 68EE      		ldi r22,lo8(232)
 2641 07e4 70E0      		ldi r23,hi8(232)
 2642 07e6 0E94 0000 		call SendCommandWord
 2643               	/* epilogue start */
 2645               	.LM272:
 2646 07ea 0895      		ret
 2648               	.Lscope73:
 2652               	.global	PMDSetPhaseAngle
 2654               	PMDSetPhaseAngle:
 2656               	.LM273:
 2657               	.LFBB74:
 2658               	/* prologue: function */
 2659               	/* frame size = 0 */
 2660 07ec AB01      		movw r20,r22
 2662               	.LM274:
 2663 07ee 64E8      		ldi r22,lo8(132)
 2664 07f0 70E0      		ldi r23,hi8(132)
 2665 07f2 0E94 0000 		call SendCommandWord
 2666               	/* epilogue start */
 2668               	.LM275:
 2669 07f6 0895      		ret
 2671               	.Lscope74:
 2675               	.global	PMDSetPhaseOffset
 2677               	PMDSetPhaseOffset:
 2679               	.LM276:
 2680               	.LFBB75:
 2681               	/* prologue: function */
 2682               	/* frame size = 0 */
 2683 07f8 AB01      		movw r20,r22
 2685               	.LM277:
 2686 07fa 66E7      		ldi r22,lo8(118)
 2687 07fc 70E0      		ldi r23,hi8(118)
 2688 07fe 0E94 0000 		call SendCommandWord
 2689               	/* epilogue start */
 2691               	.LM278:
 2692 0802 0895      		ret
 2694               	.Lscope75:
 2698               	.global	PMDSetPhaseInitializeTime
 2700               	PMDSetPhaseInitializeTime:
 2702               	.LM279:
 2703               	.LFBB76:
 2704               	/* prologue: function */
 2705               	/* frame size = 0 */
 2706 0804 AB01      		movw r20,r22
 2708               	.LM280:
 2709 0806 62E7      		ldi r22,lo8(114)
 2710 0808 70E0      		ldi r23,hi8(114)
 2711 080a 0E94 0000 		call SendCommandWord
 2712               	/* epilogue start */
 2714               	.LM281:
 2715 080e 0895      		ret
 2717               	.Lscope76:
 2721               	.global	PMDSetPhaseCounts
 2723               	PMDSetPhaseCounts:
 2725               	.LM282:
 2726               	.LFBB77:
 2727               	/* prologue: function */
 2728               	/* frame size = 0 */
 2729 0810 AB01      		movw r20,r22
 2731               	.LM283:
 2732 0812 65E7      		ldi r22,lo8(117)
 2733 0814 70E0      		ldi r23,hi8(117)
 2734 0816 0E94 0000 		call SendCommandWord
 2735               	/* epilogue start */
 2737               	.LM284:
 2738 081a 0895      		ret
 2740               	.Lscope77:
 2744               	.global	PMDSetPhasePrescale
 2746               	PMDSetPhasePrescale:
 2748               	.LM285:
 2749               	.LFBB78:
 2750               	/* prologue: function */
 2751               	/* frame size = 0 */
 2752 081c AB01      		movw r20,r22
 2754               	.LM286:
 2755 081e 66EE      		ldi r22,lo8(230)
 2756 0820 70E0      		ldi r23,hi8(230)
 2757 0822 0E94 0000 		call SendCommandWord
 2758               	/* epilogue start */
 2760               	.LM287:
 2761 0826 0895      		ret
 2763               	.Lscope78:
 2767               	.global	PMDSetPhaseInitializeMode
 2769               	PMDSetPhaseInitializeMode:
 2771               	.LM288:
 2772               	.LFBB79:
 2773               	/* prologue: function */
 2774               	/* frame size = 0 */
 2775 0828 AB01      		movw r20,r22
 2777               	.LM289:
 2778 082a 64EE      		ldi r22,lo8(228)
 2779 082c 70E0      		ldi r23,hi8(228)
 2780 082e 0E94 0000 		call SendCommandWord
 2781               	/* epilogue start */
 2783               	.LM290:
 2784 0832 0895      		ret
 2786               	.Lscope79:
 2790               	.global	PMDSetNumberPhases
 2792               	PMDSetNumberPhases:
 2794               	.LM291:
 2795               	.LFBB80:
 2796               	/* prologue: function */
 2797               	/* frame size = 0 */
 2798 0834 AB01      		movw r20,r22
 2800               	.LM292:
 2801 0836 65E8      		ldi r22,lo8(133)
 2802 0838 70E0      		ldi r23,hi8(133)
 2803 083a 0E94 0000 		call SendCommandWord
 2804               	/* epilogue start */
 2806               	.LM293:
 2807 083e 0895      		ret
 2809               	.Lscope80:
 2813               	.global	PMDSetCommutationMode
 2815               	PMDSetCommutationMode:
 2817               	.LM294:
 2818               	.LFBB81:
 2819               	/* prologue: function */
 2820               	/* frame size = 0 */
 2821 0840 AB01      		movw r20,r22
 2823               	.LM295:
 2824 0842 62EE      		ldi r22,lo8(226)
 2825 0844 70E0      		ldi r23,hi8(226)
 2826 0846 0E94 0000 		call SendCommandWord
 2827               	/* epilogue start */
 2829               	.LM296:
 2830 084a 0895      		ret
 2832               	.Lscope81:
 2836               	.global	PMDSetMotorCommand
 2838               	PMDSetMotorCommand:
 2840               	.LM297:
 2841               	.LFBB82:
 2842               	/* prologue: function */
 2843               	/* frame size = 0 */
 2844 084c AB01      		movw r20,r22
 2846               	.LM298:
 2847 084e 67E7      		ldi r22,lo8(119)
 2848 0850 70E0      		ldi r23,hi8(119)
 2849 0852 0E94 0000 		call SendCommandWord
 2850               	/* epilogue start */
 2852               	.LM299:
 2853 0856 0895      		ret
 2855               	.Lscope82:
 2859               	.global	PMDSetMotorMode
 2861               	PMDSetMotorMode:
 2863               	.LM300:
 2864               	.LFBB83:
 2865               	/* prologue: function */
 2866               	/* frame size = 0 */
 2867 0858 AB01      		movw r20,r22
 2869               	.LM301:
 2870 085a 6CED      		ldi r22,lo8(220)
 2871 085c 70E0      		ldi r23,hi8(220)
 2872 085e 0E94 0000 		call SendCommandWord
 2873               	/* epilogue start */
 2875               	.LM302:
 2876 0862 0895      		ret
 2878               	.Lscope83:
 2882               	.global	PMDSetOutputMode
 2884               	PMDSetOutputMode:
 2886               	.LM303:
 2887               	.LFBB84:
 2888               	/* prologue: function */
 2889               	/* frame size = 0 */
 2890 0864 AB01      		movw r20,r22
 2892               	.LM304:
 2893 0866 60EE      		ldi r22,lo8(224)
 2894 0868 70E0      		ldi r23,hi8(224)
 2895 086a 0E94 0000 		call SendCommandWord
 2896               	/* epilogue start */
 2898               	.LM305:
 2899 086e 0895      		ret
 2901               	.Lscope84:
 2905               	.global	PMDSetEncoderModulus
 2907               	PMDSetEncoderModulus:
 2909               	.LM306:
 2910               	.LFBB85:
 2911               	/* prologue: function */
 2912               	/* frame size = 0 */
 2913 0870 AB01      		movw r20,r22
 2915               	.LM307:
 2916 0872 6DE8      		ldi r22,lo8(141)
 2917 0874 70E0      		ldi r23,hi8(141)
 2918 0876 0E94 0000 		call SendCommandWord
 2919               	/* epilogue start */
 2921               	.LM308:
 2922 087a 0895      		ret
 2924               	.Lscope85:
 2928               	.global	PMDSetEncoderSource
 2930               	PMDSetEncoderSource:
 2932               	.LM309:
 2933               	.LFBB86:
 2934               	/* prologue: function */
 2935               	/* frame size = 0 */
 2936 087c AB01      		movw r20,r22
 2938               	.LM310:
 2939 087e 6AED      		ldi r22,lo8(218)
 2940 0880 70E0      		ldi r23,hi8(218)
 2941 0882 0E94 0000 		call SendCommandWord
 2942               	/* epilogue start */
 2944               	.LM311:
 2945 0886 0895      		ret
 2947               	.Lscope86:
 2951               	.global	PMDSetCaptureSource
 2953               	PMDSetCaptureSource:
 2955               	.LM312:
 2956               	.LFBB87:
 2957               	/* prologue: function */
 2958               	/* frame size = 0 */
 2959 0888 AB01      		movw r20,r22
 2961               	.LM313:
 2962 088a 68ED      		ldi r22,lo8(216)
 2963 088c 70E0      		ldi r23,hi8(216)
 2964 088e 0E94 0000 		call SendCommandWord
 2965               	/* epilogue start */
 2967               	.LM314:
 2968 0892 0895      		ret
 2970               	.Lscope87:
 2974               	.global	PMDSetActualPositionUnits
 2976               	PMDSetActualPositionUnits:
 2978               	.LM315:
 2979               	.LFBB88:
 2980               	/* prologue: function */
 2981               	/* frame size = 0 */
 2982 0894 AB01      		movw r20,r22
 2984               	.LM316:
 2985 0896 6EEB      		ldi r22,lo8(190)
 2986 0898 70E0      		ldi r23,hi8(190)
 2987 089a 0E94 0000 		call SendCommandWord
 2988               	/* epilogue start */
 2990               	.LM317:
 2991 089e 0895      		ret
 2993               	.Lscope88:
 2997               	.global	PMDSetSignalSense
 2999               	PMDSetSignalSense:
 3001               	.LM318:
 3002               	.LFBB89:
 3003               	/* prologue: function */
 3004               	/* frame size = 0 */
 3005 08a0 AB01      		movw r20,r22
 3007               	.LM319:
 3008 08a2 62EA      		ldi r22,lo8(162)
 3009 08a4 70E0      		ldi r23,hi8(162)
 3010 08a6 0E94 0000 		call SendCommandWord
 3011               	/* epilogue start */
 3013               	.LM320:
 3014 08aa 0895      		ret
 3016               	.Lscope89:
 3020               	.global	PMDResetEventStatus
 3022               	PMDResetEventStatus:
 3024               	.LM321:
 3025               	.LFBB90:
 3026               	/* prologue: function */
 3027               	/* frame size = 0 */
 3028 08ac AB01      		movw r20,r22
 3030               	.LM322:
 3031 08ae 64E3      		ldi r22,lo8(52)
 3032 08b0 70E0      		ldi r23,hi8(52)
 3033 08b2 0E94 0000 		call SendCommandWord
 3034               	/* epilogue start */
 3036               	.LM323:
 3037 08b6 0895      		ret
 3039               	.Lscope90:
 3043               	.global	PMDSetInterruptMask
 3045               	PMDSetInterruptMask:
 3047               	.LM324:
 3048               	.LFBB91:
 3049               	/* prologue: function */
 3050               	/* frame size = 0 */
 3051 08b8 AB01      		movw r20,r22
 3053               	.LM325:
 3054 08ba 6FE2      		ldi r22,lo8(47)
 3055 08bc 70E0      		ldi r23,hi8(47)
 3056 08be 0E94 0000 		call SendCommandWord
 3057               	/* epilogue start */
 3059               	.LM326:
 3060 08c2 0895      		ret
 3062               	.Lscope91:
 3066               	.global	PMDMultiUpdate
 3068               	PMDMultiUpdate:
 3070               	.LM327:
 3071               	.LFBB92:
 3072               	/* prologue: function */
 3073               	/* frame size = 0 */
 3074 08c4 AB01      		movw r20,r22
 3076               	.LM328:
 3077 08c6 6BE5      		ldi r22,lo8(91)
 3078 08c8 70E0      		ldi r23,hi8(91)
 3079 08ca 0E94 0000 		call SendCommandWord
 3080               	/* epilogue start */
 3082               	.LM329:
 3083 08ce 0895      		ret
 3085               	.Lscope92:
 3089               	.global	PMDSetSampleTime
 3091               	PMDSetSampleTime:
 3093               	.LM330:
 3094               	.LFBB93:
 3095               	/* prologue: function */
 3096               	/* frame size = 0 */
 3097 08d0 AB01      		movw r20,r22
 3099               	.LM331:
 3100 08d2 68E3      		ldi r22,lo8(56)
 3101 08d4 70E0      		ldi r23,hi8(56)
 3102 08d6 0E94 0000 		call SendCommandWord
 3103               	/* epilogue start */
 3105               	.LM332:
 3106 08da 0895      		ret
 3108               	.Lscope93:
 3112               	.global	PMDSetMotionCompleteMode
 3114               	PMDSetMotionCompleteMode:
 3116               	.LM333:
 3117               	.LFBB94:
 3118               	/* prologue: function */
 3119               	/* frame size = 0 */
 3120 08dc AB01      		movw r20,r22
 3122               	.LM334:
 3123 08de 6BEE      		ldi r22,lo8(235)
 3124 08e0 70E0      		ldi r23,hi8(235)
 3125 08e2 0E94 0000 		call SendCommandWord
 3126               	/* epilogue start */
 3128               	.LM335:
 3129 08e6 0895      		ret
 3131               	.Lscope94:
 3135               	.global	PMDSetTrackingWindow
 3137               	PMDSetTrackingWindow:
 3139               	.LM336:
 3140               	.LFBB95:
 3141               	/* prologue: function */
 3142               	/* frame size = 0 */
 3143 08e8 AB01      		movw r20,r22
 3145               	.LM337:
 3146 08ea 68EA      		ldi r22,lo8(168)
 3147 08ec 70E0      		ldi r23,hi8(168)
 3148 08ee 0E94 0000 		call SendCommandWord
 3149               	/* epilogue start */
 3151               	.LM338:
 3152 08f2 0895      		ret
 3154               	.Lscope95:
 3158               	.global	PMDSetSettleWindow
 3160               	PMDSetSettleWindow:
 3162               	.LM339:
 3163               	.LFBB96:
 3164               	/* prologue: function */
 3165               	/* frame size = 0 */
 3166 08f4 AB01      		movw r20,r22
 3168               	.LM340:
 3169 08f6 6CEB      		ldi r22,lo8(188)
 3170 08f8 70E0      		ldi r23,hi8(188)
 3171 08fa 0E94 0000 		call SendCommandWord
 3172               	/* epilogue start */
 3174               	.LM341:
 3175 08fe 0895      		ret
 3177               	.Lscope96:
 3181               	.global	PMDSetSettleTime
 3183               	PMDSetSettleTime:
 3185               	.LM342:
 3186               	.LFBB97:
 3187               	/* prologue: function */
 3188               	/* frame size = 0 */
 3189 0900 AB01      		movw r20,r22
 3191               	.LM343:
 3192 0902 6AEA      		ldi r22,lo8(170)
 3193 0904 70E0      		ldi r23,hi8(170)
 3194 0906 0E94 0000 		call SendCommandWord
 3195               	/* epilogue start */
 3197               	.LM344:
 3198 090a 0895      		ret
 3200               	.Lscope97:
 3204               	.global	PMDSetDerivativeTime
 3206               	PMDSetDerivativeTime:
 3208               	.LM345:
 3209               	.LFBB98:
 3210               	/* prologue: function */
 3211               	/* frame size = 0 */
 3212 090c AB01      		movw r20,r22
 3214               	.LM346:
 3215 090e 6CE9      		ldi r22,lo8(156)
 3216 0910 70E0      		ldi r23,hi8(156)
 3217 0912 0E94 0000 		call SendCommandWord
 3218               	/* epilogue start */
 3220               	.LM347:
 3221 0916 0895      		ret
 3223               	.Lscope98:
 3227               	.global	PMDSetAutoStopMode
 3229               	PMDSetAutoStopMode:
 3231               	.LM348:
 3232               	.LFBB99:
 3233               	/* prologue: function */
 3234               	/* frame size = 0 */
 3235 0918 AB01      		movw r20,r22
 3237               	.LM349:
 3238 091a 62ED      		ldi r22,lo8(210)
 3239 091c 70E0      		ldi r23,hi8(210)
 3240 091e 0E94 0000 		call SendCommandWord
 3241               	/* epilogue start */
 3243               	.LM350:
 3244 0922 0895      		ret
 3246               	.Lscope99:
 3250               	.global	PMDSetMotorBias
 3252               	PMDSetMotorBias:
 3254               	.LM351:
 3255               	.LFBB100:
 3256               	/* prologue: function */
 3257               	/* frame size = 0 */
 3258 0924 AB01      		movw r20,r22
 3260               	.LM352:
 3261 0926 6FE0      		ldi r22,lo8(15)
 3262 0928 70E0      		ldi r23,hi8(15)
 3263 092a 0E94 0000 		call SendCommandWord
 3264               	/* epilogue start */
 3266               	.LM353:
 3267 092e 0895      		ret
 3269               	.Lscope100:
 3273               	.global	PMDSetMotorLimit
 3275               	PMDSetMotorLimit:
 3277               	.LM354:
 3278               	.LFBB101:
 3279               	/* prologue: function */
 3280               	/* frame size = 0 */
 3281 0930 AB01      		movw r20,r22
 3283               	.LM355:
 3284 0932 66E0      		ldi r22,lo8(6)
 3285 0934 70E0      		ldi r23,hi8(6)
 3286 0936 0E94 0000 		call SendCommandWord
 3287               	/* epilogue start */
 3289               	.LM356:
 3290 093a 0895      		ret
 3292               	.Lscope101:
 3296               	.global	PMDSetLimitSwitchMode
 3298               	PMDSetLimitSwitchMode:
 3300               	.LM357:
 3301               	.LFBB102:
 3302               	/* prologue: function */
 3303               	/* frame size = 0 */
 3304 093c AB01      		movw r20,r22
 3306               	.LM358:
 3307 093e 60E8      		ldi r22,lo8(128)
 3308 0940 70E0      		ldi r23,hi8(128)
 3309 0942 0E94 0000 		call SendCommandWord
 3310               	/* epilogue start */
 3312               	.LM359:
 3313 0946 0895      		ret
 3315               	.Lscope102:
 3319               	.global	PMDSetKout
 3321               	PMDSetKout:
 3323               	.LM360:
 3324               	.LFBB103:
 3325               	/* prologue: function */
 3326               	/* frame size = 0 */
 3327 0948 AB01      		movw r20,r22
 3329               	.LM361:
 3330 094a 6EE9      		ldi r22,lo8(158)
 3331 094c 70E0      		ldi r23,hi8(158)
 3332 094e 0E94 0000 		call SendCommandWord
 3333               	/* epilogue start */
 3335               	.LM362:
 3336 0952 0895      		ret
 3338               	.Lscope103:
 3342               	.global	PMDSetKaff
 3344               	PMDSetKaff:
 3346               	.LM363:
 3347               	.LFBB104:
 3348               	/* prologue: function */
 3349               	/* frame size = 0 */
 3350 0954 AB01      		movw r20,r22
 3352               	.LM364:
 3353 0956 63E9      		ldi r22,lo8(147)
 3354 0958 70E0      		ldi r23,hi8(147)
 3355 095a 0E94 0000 		call SendCommandWord
 3356               	/* epilogue start */
 3358               	.LM365:
 3359 095e 0895      		ret
 3361               	.Lscope104:
 3365               	.global	PMDSetKvff
 3367               	PMDSetKvff:
 3369               	.LM366:
 3370               	.LFBB105:
 3371               	/* prologue: function */
 3372               	/* frame size = 0 */
 3373 0960 AB01      		movw r20,r22
 3375               	.LM367:
 3376 0962 6BE2      		ldi r22,lo8(43)
 3377 0964 70E0      		ldi r23,hi8(43)
 3378 0966 0E94 0000 		call SendCommandWord
 3379               	/* epilogue start */
 3381               	.LM368:
 3382 096a 0895      		ret
 3384               	.Lscope105:
 3388               	.global	PMDSetKi
 3390               	PMDSetKi:
 3392               	.LM369:
 3393               	.LFBB106:
 3394               	/* prologue: function */
 3395               	/* frame size = 0 */
 3396 096c AB01      		movw r20,r22
 3398               	.LM370:
 3399 096e 66E2      		ldi r22,lo8(38)
 3400 0970 70E0      		ldi r23,hi8(38)
 3401 0972 0E94 0000 		call SendCommandWord
 3402               	/* epilogue start */
 3404               	.LM371:
 3405 0976 0895      		ret
 3407               	.Lscope106:
 3411               	.global	PMDSetKd
 3413               	PMDSetKd:
 3415               	.LM372:
 3416               	.LFBB107:
 3417               	/* prologue: function */
 3418               	/* frame size = 0 */
 3419 0978 AB01      		movw r20,r22
 3421               	.LM373:
 3422 097a 67E2      		ldi r22,lo8(39)
 3423 097c 70E0      		ldi r23,hi8(39)
 3424 097e 0E94 0000 		call SendCommandWord
 3425               	/* epilogue start */
 3427               	.LM374:
 3428 0982 0895      		ret
 3430               	.Lscope107:
 3434               	.global	PMDSetKp
 3436               	PMDSetKp:
 3438               	.LM375:
 3439               	.LFBB108:
 3440               	/* prologue: function */
 3441               	/* frame size = 0 */
 3442 0984 AB01      		movw r20,r22
 3444               	.LM376:
 3445 0986 65E2      		ldi r22,lo8(37)
 3446 0988 70E0      		ldi r23,hi8(37)
 3447 098a 0E94 0000 		call SendCommandWord
 3448               	/* epilogue start */
 3450               	.LM377:
 3451 098e 0895      		ret
 3453               	.Lscope108:
 3457               	.global	PMDSetStopMode
 3459               	PMDSetStopMode:
 3461               	.LM378:
 3462               	.LFBB109:
 3463               	/* prologue: function */
 3464               	/* frame size = 0 */
 3465 0990 AB01      		movw r20,r22
 3467               	.LM379:
 3468 0992 60ED      		ldi r22,lo8(208)
 3469 0994 70E0      		ldi r23,hi8(208)
 3470 0996 0E94 0000 		call SendCommandWord
 3471               	/* epilogue start */
 3473               	.LM380:
 3474 099a 0895      		ret
 3476               	.Lscope109:
 3481               	.global	PMDSetGearMaster
 3483               	PMDSetGearMaster:
 3485               	.LM381:
 3486               	.LFBB110:
 3487               	/* prologue: function */
 3488               	/* frame size = 0 */
 3490               	.LM382:
 3491 099c 50E0      		ldi r21,lo8(0)
 3492 099e 4F70      		andi r20,lo8(15)
 3493 09a0 5070      		andi r21,hi8(15)
 3494 09a2 542F      		mov r21,r20
 3495 09a4 4427      		clr r20
 3496 09a6 6F70      		andi r22,lo8(15)
 3497 09a8 7070      		andi r23,hi8(15)
 3498 09aa 462B      		or r20,r22
 3499 09ac 572B      		or r21,r23
 3500 09ae 6EEA      		ldi r22,lo8(174)
 3501 09b0 70E0      		ldi r23,hi8(174)
 3502 09b2 0E94 0000 		call SendCommandWord
 3503               	/* epilogue start */
 3505               	.LM383:
 3506 09b6 0895      		ret
 3508               	.Lscope110:
 3512               	.global	PMDSetProfileMode
 3514               	PMDSetProfileMode:
 3516               	.LM384:
 3517               	.LFBB111:
 3518               	/* prologue: function */
 3519               	/* frame size = 0 */
 3520 09b8 AB01      		movw r20,r22
 3522               	.LM385:
 3523 09ba 60EA      		ldi r22,lo8(160)
 3524 09bc 70E0      		ldi r23,hi8(160)
 3525 09be 0E94 0000 		call SendCommandWord
 3526               	/* epilogue start */
 3528               	.LM386:
 3529 09c2 0895      		ret
 3531               	.Lscope111:
 3535               	.global	PMDGetChecksum
 3537               	PMDGetChecksum:
 3539               	.LM387:
 3540               	.LFBB112:
 3541               	/* prologue: function */
 3542               	/* frame size = 0 */
 3543 09c4 AB01      		movw r20,r22
 3545               	.LM388:
 3546 09c6 68EF      		ldi r22,lo8(248)
 3547 09c8 70E0      		ldi r23,hi8(248)
 3548 09ca 0E94 0000 		call SendCommandGetLong
 3549               	/* epilogue start */
 3551               	.LM389:
 3552 09ce 0895      		ret
 3554               	.Lscope112:
 3558               	.global	PMDGetTime
 3560               	PMDGetTime:
 3562               	.LM390:
 3563               	.LFBB113:
 3564               	/* prologue: function */
 3565               	/* frame size = 0 */
 3566 09d0 AB01      		movw r20,r22
 3568               	.LM391:
 3569 09d2 6EE3      		ldi r22,lo8(62)
 3570 09d4 70E0      		ldi r23,hi8(62)
 3571 09d6 0E94 0000 		call SendCommandGetLong
 3572               	/* epilogue start */
 3574               	.LM392:
 3575 09da 0895      		ret
 3577               	.Lscope113:
 3581               	.global	PMDGetTraceCount
 3583               	PMDGetTraceCount:
 3585               	.LM393:
 3586               	.LFBB114:
 3587 09dc EF92      		push r14
 3588 09de FF92      		push r15
 3589 09e0 0F93      		push r16
 3590 09e2 1F93      		push r17
 3591               	/* prologue: function */
 3592               	/* frame size = 0 */
 3593 09e4 8C01      		movw r16,r24
 3594 09e6 AB01      		movw r20,r22
 3596               	.LM394:
 3597 09e8 FC01      		movw r30,r24
 3598 09ea E280      		ldd r14,Z+2
 3599 09ec F380      		ldd r15,Z+3
 3601               	.LM395:
 3602 09ee 1382      		std Z+3,__zero_reg__
 3603 09f0 1282      		std Z+2,__zero_reg__
 3605               	.LM396:
 3606 09f2 6BEB      		ldi r22,lo8(187)
 3607 09f4 70E0      		ldi r23,hi8(187)
 3608 09f6 0E94 0000 		call SendCommandGetLong
 3610               	.LM397:
 3611 09fa F801      		movw r30,r16
 3612 09fc F382      		std Z+3,r15
 3613 09fe E282      		std Z+2,r14
 3614               	/* epilogue start */
 3616               	.LM398:
 3617 0a00 1F91      		pop r17
 3618 0a02 0F91      		pop r16
 3619 0a04 FF90      		pop r15
 3620 0a06 EF90      		pop r14
 3621 0a08 0895      		ret
 3626               	.Lscope114:
 3630               	.global	PMDGetCaptureValue
 3632               	PMDGetCaptureValue:
 3634               	.LM399:
 3635               	.LFBB115:
 3636               	/* prologue: function */
 3637               	/* frame size = 0 */
 3638 0a0a AB01      		movw r20,r22
 3640               	.LM400:
 3641 0a0c 66E3      		ldi r22,lo8(54)
 3642 0a0e 70E0      		ldi r23,hi8(54)
 3643 0a10 0E94 0000 		call SendCommandGetLong
 3644               	/* epilogue start */
 3646               	.LM401:
 3647 0a14 0895      		ret
 3649               	.Lscope115:
 3653               	.global	PMDGetActualVelocity
 3655               	PMDGetActualVelocity:
 3657               	.LM402:
 3658               	.LFBB116:
 3659               	/* prologue: function */
 3660               	/* frame size = 0 */
 3661 0a16 AB01      		movw r20,r22
 3663               	.LM403:
 3664 0a18 6DEA      		ldi r22,lo8(173)
 3665 0a1a 70E0      		ldi r23,hi8(173)
 3666 0a1c 0E94 0000 		call SendCommandGetLong
 3667               	/* epilogue start */
 3669               	.LM404:
 3670 0a20 0895      		ret
 3672               	.Lscope116:
 3676               	.global	PMDGetActualPosition
 3678               	PMDGetActualPosition:
 3680               	.LM405:
 3681               	.LFBB117:
 3682               	/* prologue: function */
 3683               	/* frame size = 0 */
 3684 0a22 AB01      		movw r20,r22
 3686               	.LM406:
 3687 0a24 67E3      		ldi r22,lo8(55)
 3688 0a26 70E0      		ldi r23,hi8(55)
 3689 0a28 0E94 0000 		call SendCommandGetLong
 3690               	/* epilogue start */
 3692               	.LM407:
 3693 0a2c 0895      		ret
 3695               	.Lscope117:
 3699               	.global	PMDGetPositionError
 3701               	PMDGetPositionError:
 3703               	.LM408:
 3704               	.LFBB118:
 3705               	/* prologue: function */
 3706               	/* frame size = 0 */
 3707 0a2e AB01      		movw r20,r22
 3709               	.LM409:
 3710 0a30 69E9      		ldi r22,lo8(153)
 3711 0a32 70E0      		ldi r23,hi8(153)
 3712 0a34 0E94 0000 		call SendCommandGetLong
 3713               	/* epilogue start */
 3715               	.LM410:
 3716 0a38 0895      		ret
 3718               	.Lscope118:
 3722               	.global	PMDGetIntegral
 3724               	PMDGetIntegral:
 3726               	.LM411:
 3727               	.LFBB119:
 3728               	/* prologue: function */
 3729               	/* frame size = 0 */
 3730 0a3a AB01      		movw r20,r22
 3732               	.LM412:
 3733 0a3c 6AE9      		ldi r22,lo8(154)
 3734 0a3e 70E0      		ldi r23,hi8(154)
 3735 0a40 0E94 0000 		call SendCommandGetLong
 3736               	/* epilogue start */
 3738               	.LM413:
 3739 0a44 0895      		ret
 3741               	.Lscope119:
 3745               	.global	PMDGetPositionErrorLimit
 3747               	PMDGetPositionErrorLimit:
 3749               	.LM414:
 3750               	.LFBB120:
 3751               	/* prologue: function */
 3752               	/* frame size = 0 */
 3753 0a46 AB01      		movw r20,r22
 3755               	.LM415:
 3756 0a48 68E9      		ldi r22,lo8(152)
 3757 0a4a 70E0      		ldi r23,hi8(152)
 3758 0a4c 0E94 0000 		call SendCommandGetLong
 3759               	/* epilogue start */
 3761               	.LM416:
 3762 0a50 0895      		ret
 3764               	.Lscope120:
 3768               	.global	PMDGetIntegrationLimit
 3770               	PMDGetIntegrationLimit:
 3772               	.LM417:
 3773               	.LFBB121:
 3774               	/* prologue: function */
 3775               	/* frame size = 0 */
 3776 0a52 AB01      		movw r20,r22
 3778               	.LM418:
 3779 0a54 66E9      		ldi r22,lo8(150)
 3780 0a56 70E0      		ldi r23,hi8(150)
 3781 0a58 0E94 0000 		call SendCommandGetLong
 3782               	/* epilogue start */
 3784               	.LM419:
 3785 0a5c 0895      		ret
 3787               	.Lscope121:
 3791               	.global	PMDGetCommandedAcceleration
 3793               	PMDGetCommandedAcceleration:
 3795               	.LM420:
 3796               	.LFBB122:
 3797               	/* prologue: function */
 3798               	/* frame size = 0 */
 3799 0a5e AB01      		movw r20,r22
 3801               	.LM421:
 3802 0a60 67EA      		ldi r22,lo8(167)
 3803 0a62 70E0      		ldi r23,hi8(167)
 3804 0a64 0E94 0000 		call SendCommandGetLong
 3805               	/* epilogue start */
 3807               	.LM422:
 3808 0a68 0895      		ret
 3810               	.Lscope122:
 3814               	.global	PMDGetCommandedVelocity
 3816               	PMDGetCommandedVelocity:
 3818               	.LM423:
 3819               	.LFBB123:
 3820               	/* prologue: function */
 3821               	/* frame size = 0 */
 3822 0a6a AB01      		movw r20,r22
 3824               	.LM424:
 3825 0a6c 6EE1      		ldi r22,lo8(30)
 3826 0a6e 70E0      		ldi r23,hi8(30)
 3827 0a70 0E94 0000 		call SendCommandGetLong
 3828               	/* epilogue start */
 3830               	.LM425:
 3831 0a74 0895      		ret
 3833               	.Lscope123:
 3837               	.global	PMDGetCommandedPosition
 3839               	PMDGetCommandedPosition:
 3841               	.LM426:
 3842               	.LFBB124:
 3843               	/* prologue: function */
 3844               	/* frame size = 0 */
 3845 0a76 AB01      		movw r20,r22
 3847               	.LM427:
 3848 0a78 6DE1      		ldi r22,lo8(29)
 3849 0a7a 70E0      		ldi r23,hi8(29)
 3850 0a7c 0E94 0000 		call SendCommandGetLong
 3851               	/* epilogue start */
 3853               	.LM428:
 3854 0a80 0895      		ret
 3856               	.Lscope124:
 3860               	.global	PMDGetGearRatio
 3862               	PMDGetGearRatio:
 3864               	.LM429:
 3865               	.LFBB125:
 3866               	/* prologue: function */
 3867               	/* frame size = 0 */
 3868 0a82 AB01      		movw r20,r22
 3870               	.LM430:
 3871 0a84 69E5      		ldi r22,lo8(89)
 3872 0a86 70E0      		ldi r23,hi8(89)
 3873 0a88 0E94 0000 		call SendCommandGetLong
 3874               	/* epilogue start */
 3876               	.LM431:
 3877 0a8c 0895      		ret
 3879               	.Lscope125:
 3883               	.global	PMDGetJerk
 3885               	PMDGetJerk:
 3887               	.LM432:
 3888               	.LFBB126:
 3889               	/* prologue: function */
 3890               	/* frame size = 0 */
 3891 0a8e AB01      		movw r20,r22
 3893               	.LM433:
 3894 0a90 68E5      		ldi r22,lo8(88)
 3895 0a92 70E0      		ldi r23,hi8(88)
 3896 0a94 0E94 0000 		call SendCommandGetLong
 3897               	/* epilogue start */
 3899               	.LM434:
 3900 0a98 0895      		ret
 3902               	.Lscope126:
 3906               	.global	PMDGetDeceleration
 3908               	PMDGetDeceleration:
 3910               	.LM435:
 3911               	.LFBB127:
 3912               	/* prologue: function */
 3913               	/* frame size = 0 */
 3914 0a9a AB01      		movw r20,r22
 3916               	.LM436:
 3917 0a9c 62E9      		ldi r22,lo8(146)
 3918 0a9e 70E0      		ldi r23,hi8(146)
 3919 0aa0 0E94 0000 		call SendCommandGetLong
 3920               	/* epilogue start */
 3922               	.LM437:
 3923 0aa4 0895      		ret
 3925               	.Lscope127:
 3929               	.global	PMDGetAcceleration
 3931               	PMDGetAcceleration:
 3933               	.LM438:
 3934               	.LFBB128:
 3935               	/* prologue: function */
 3936               	/* frame size = 0 */
 3937 0aa6 AB01      		movw r20,r22
 3939               	.LM439:
 3940 0aa8 6CE4      		ldi r22,lo8(76)
 3941 0aaa 70E0      		ldi r23,hi8(76)
 3942 0aac 0E94 0000 		call SendCommandGetLong
 3943               	/* epilogue start */
 3945               	.LM440:
 3946 0ab0 0895      		ret
 3948               	.Lscope128:
 3952               	.global	PMDGetStartVelocity
 3954               	PMDGetStartVelocity:
 3956               	.LM441:
 3957               	.LFBB129:
 3958               	/* prologue: function */
 3959               	/* frame size = 0 */
 3960 0ab2 AB01      		movw r20,r22
 3962               	.LM442:
 3963 0ab4 6BE6      		ldi r22,lo8(107)
 3964 0ab6 70E0      		ldi r23,hi8(107)
 3965 0ab8 0E94 0000 		call SendCommandGetLong
 3966               	/* epilogue start */
 3968               	.LM443:
 3969 0abc 0895      		ret
 3971               	.Lscope129:
 3975               	.global	PMDGetVelocity
 3977               	PMDGetVelocity:
 3979               	.LM444:
 3980               	.LFBB130:
 3981               	/* prologue: function */
 3982               	/* frame size = 0 */
 3983 0abe AB01      		movw r20,r22
 3985               	.LM445:
 3986 0ac0 6BE4      		ldi r22,lo8(75)
 3987 0ac2 70E0      		ldi r23,hi8(75)
 3988 0ac4 0E94 0000 		call SendCommandGetLong
 3989               	/* epilogue start */
 3991               	.LM446:
 3992 0ac8 0895      		ret
 3994               	.Lscope130:
 3998               	.global	PMDGetPosition
 4000               	PMDGetPosition:
 4002               	.LM447:
 4003               	.LFBB131:
 4004               	/* prologue: function */
 4005               	/* frame size = 0 */
 4006 0aca AB01      		movw r20,r22
 4008               	.LM448:
 4009 0acc 6AE4      		ldi r22,lo8(74)
 4010 0ace 70E0      		ldi r23,hi8(74)
 4011 0ad0 0E94 0000 		call SendCommandGetLong
 4012               	/* epilogue start */
 4014               	.LM449:
 4015 0ad4 0895      		ret
 4017               	.Lscope131:
 4027               	.global	PMDGetVersion
 4029               	PMDGetVersion:
 4031               	.LM450:
 4032               	.LFBB132:
 4033 0ad6 2F92      		push r2
 4034 0ad8 3F92      		push r3
 4035 0ada 4F92      		push r4
 4036 0adc 5F92      		push r5
 4037 0ade 6F92      		push r6
 4038 0ae0 7F92      		push r7
 4039 0ae2 8F92      		push r8
 4040 0ae4 9F92      		push r9
 4041 0ae6 AF92      		push r10
 4042 0ae8 BF92      		push r11
 4043 0aea CF92      		push r12
 4044 0aec DF92      		push r13
 4045 0aee EF92      		push r14
 4046 0af0 FF92      		push r15
 4047 0af2 0F93      		push r16
 4048 0af4 1F93      		push r17
 4049 0af6 DF93      		push r29
 4050 0af8 CF93      		push r28
 4051 0afa 00D0      		rcall .
 4052 0afc 00D0      		rcall .
 4053 0afe CDB7      		in r28,__SP_L__
 4054 0b00 DEB7      		in r29,__SP_H__
 4055               	/* prologue: function */
 4056               	/* frame size = 4 */
 4057 0b02 4B01      		movw r8,r22
 4058 0b04 3A01      		movw r6,r20
 4059 0b06 2901      		movw r4,r18
 4060 0b08 1801      		movw r2,r16
 4061 0b0a 8701      		movw r16,r14
 4062 0b0c 7601      		movw r14,r12
 4064               	.LM451:
 4065 0b0e 1A82      		std Y+2,__zero_reg__
 4066 0b10 1982      		std Y+1,__zero_reg__
 4067 0b12 1C82      		std Y+4,__zero_reg__
 4068 0b14 1B82      		std Y+3,__zero_reg__
 4070               	.LM452:
 4071 0b16 6FE8      		ldi r22,lo8(143)
 4072 0b18 70E0      		ldi r23,hi8(143)
 4073 0b1a AE01      		movw r20,r28
 4074 0b1c 4F5F      		subi r20,lo8(-(1))
 4075 0b1e 5F4F      		sbci r21,hi8(-(1))
 4076 0b20 9E01      		movw r18,r28
 4077 0b22 2D5F      		subi r18,lo8(-(3))
 4078 0b24 3F4F      		sbci r19,hi8(-(3))
 4079 0b26 0E94 0000 		call SendCommandGetWordWord
 4081               	.LM453:
 4082 0b2a 2A81      		ldd r18,Y+2
 4083 0b2c 2295      		swap r18
 4084 0b2e 2F70      		andi r18,lo8(15)
 4085 0b30 F401      		movw r30,r8
 4086 0b32 2083      		st Z,r18
 4087 0b34 1182      		std Z+1,__zero_reg__
 4089               	.LM454:
 4090 0b36 4981      		ldd r20,Y+1
 4091 0b38 5A81      		ldd r21,Y+2
 4092 0b3a 9A01      		movw r18,r20
 4093 0b3c 2070      		andi r18,lo8(3840)
 4094 0b3e 3F70      		andi r19,hi8(3840)
 4095 0b40 F301      		movw r30,r6
 4096 0b42 3083      		st Z,r19
 4097 0b44 1182      		std Z+1,__zero_reg__
 4099               	.LM455:
 4100 0b46 9A01      		movw r18,r20
 4101 0b48 207F      		andi r18,lo8(240)
 4102 0b4a 3070      		andi r19,hi8(240)
 4103 0b4c 64E0      		ldi r22,4
 4104 0b4e 3695      	1:	lsr r19
 4105 0b50 2795      		ror r18
 4106 0b52 6A95      		dec r22
 4107 0b54 01F4      		brne 1b
 4108 0b56 F201      		movw r30,r4
 4109 0b58 3183      		std Z+1,r19
 4110 0b5a 2083      		st Z,r18
 4112               	.LM456:
 4113 0b5c 4F70      		andi r20,lo8(15)
 4114 0b5e 5070      		andi r21,hi8(15)
 4115 0b60 F101      		movw r30,r2
 4116 0b62 5183      		std Z+1,r21
 4117 0b64 4083      		st Z,r20
 4119               	.LM457:
 4120 0b66 2C81      		ldd r18,Y+4
 4121 0b68 F801      		movw r30,r16
 4122 0b6a 2083      		st Z,r18
 4123 0b6c 1182      		std Z+1,__zero_reg__
 4125               	.LM458:
 4126 0b6e 4B81      		ldd r20,Y+3
 4127 0b70 5C81      		ldd r21,Y+4
 4128 0b72 9A01      		movw r18,r20
 4129 0b74 207F      		andi r18,lo8(240)
 4130 0b76 3070      		andi r19,hi8(240)
 4131 0b78 14E0      		ldi r17,4
 4132 0b7a 3695      	1:	lsr r19
 4133 0b7c 2795      		ror r18
 4134 0b7e 1A95      		dec r17
 4135 0b80 01F4      		brne 1b
 4136 0b82 F701      		movw r30,r14
 4137 0b84 3183      		std Z+1,r19
 4138 0b86 2083      		st Z,r18
 4140               	.LM459:
 4141 0b88 4F70      		andi r20,lo8(15)
 4142 0b8a 5070      		andi r21,hi8(15)
 4143 0b8c F501      		movw r30,r10
 4144 0b8e 5183      		std Z+1,r21
 4145 0b90 4083      		st Z,r20
 4146               	/* epilogue start */
 4148               	.LM460:
 4149 0b92 0F90      		pop __tmp_reg__
 4150 0b94 0F90      		pop __tmp_reg__
 4151 0b96 0F90      		pop __tmp_reg__
 4152 0b98 0F90      		pop __tmp_reg__
 4153 0b9a CF91      		pop r28
 4154 0b9c DF91      		pop r29
 4155 0b9e 1F91      		pop r17
 4156 0ba0 0F91      		pop r16
 4157 0ba2 FF90      		pop r15
 4158 0ba4 EF90      		pop r14
 4159 0ba6 DF90      		pop r13
 4160 0ba8 CF90      		pop r12
 4161 0baa BF90      		pop r11
 4162 0bac AF90      		pop r10
 4163 0bae 9F90      		pop r9
 4164 0bb0 8F90      		pop r8
 4165 0bb2 7F90      		pop r7
 4166 0bb4 6F90      		pop r6
 4167 0bb6 5F90      		pop r5
 4168 0bb8 4F90      		pop r4
 4169 0bba 3F90      		pop r3
 4170 0bbc 2F90      		pop r2
 4171 0bbe 0895      		ret
 4177               	.Lscope132:
 4182               	.global	PMDGetEncoderToStepRatio
 4184               	PMDGetEncoderToStepRatio:
 4186               	.LM461:
 4187               	.LFBB133:
 4188               	/* prologue: function */
 4189               	/* frame size = 0 */
 4190 0bc0 FB01      		movw r30,r22
 4191 0bc2 9A01      		movw r18,r20
 4193               	.LM462:
 4194 0bc4 6FED      		ldi r22,lo8(223)
 4195 0bc6 70E0      		ldi r23,hi8(223)
 4196 0bc8 AF01      		movw r20,r30
 4197 0bca 0E94 0000 		call SendCommandGetWordWord
 4198               	/* epilogue start */
 4200               	.LM463:
 4201 0bce 0895      		ret
 4203               	.Lscope133:
 4206               	.global	PMDNoOperation
 4208               	PMDNoOperation:
 4210               	.LM464:
 4211               	.LFBB134:
 4212               	/* prologue: function */
 4213               	/* frame size = 0 */
 4215               	.LM465:
 4216 0bd0 60E0      		ldi r22,lo8(0)
 4217 0bd2 70E0      		ldi r23,hi8(0)
 4218 0bd4 0E94 0000 		call SendCommand
 4219               	/* epilogue start */
 4221               	.LM466:
 4222 0bd8 0895      		ret
 4224               	.Lscope134:
 4227               	.global	PMDReset
 4229               	PMDReset:
 4231               	.LM467:
 4232               	.LFBB135:
 4233 0bda EF92      		push r14
 4234 0bdc FF92      		push r15
 4235 0bde 0F93      		push r16
 4236 0be0 1F93      		push r17
 4237               	/* prologue: function */
 4238               	/* frame size = 0 */
 4239 0be2 8C01      		movw r16,r24
 4241               	.LM468:
 4242 0be4 FC01      		movw r30,r24
 4243 0be6 E280      		ldd r14,Z+2
 4244 0be8 F380      		ldd r15,Z+3
 4246               	.LM469:
 4247 0bea 1382      		std Z+3,__zero_reg__
 4248 0bec 1282      		std Z+2,__zero_reg__
 4250               	.LM470:
 4251 0bee 69E3      		ldi r22,lo8(57)
 4252 0bf0 70E0      		ldi r23,hi8(57)
 4253 0bf2 0E94 0000 		call SendCommand
 4255               	.LM471:
 4256 0bf6 F801      		movw r30,r16
 4257 0bf8 F382      		std Z+3,r15
 4258 0bfa E282      		std Z+2,r14
 4259               	/* epilogue start */
 4261               	.LM472:
 4262 0bfc 1F91      		pop r17
 4263 0bfe 0F91      		pop r16
 4264 0c00 FF90      		pop r15
 4265 0c02 EF90      		pop r14
 4266 0c04 0895      		ret
 4271               	.Lscope135:
 4274               	.global	PMDInitializePhase
 4276               	PMDInitializePhase:
 4278               	.LM473:
 4279               	.LFBB136:
 4280               	/* prologue: function */
 4281               	/* frame size = 0 */
 4283               	.LM474:
 4284 0c06 6AE7      		ldi r22,lo8(122)
 4285 0c08 70E0      		ldi r23,hi8(122)
 4286 0c0a 0E94 0000 		call SendCommand
 4287               	/* epilogue start */
 4289               	.LM475:
 4290 0c0e 0895      		ret
 4292               	.Lscope136:
 4295               	.global	PMDClearInterrupt
 4297               	PMDClearInterrupt:
 4299               	.LM476:
 4300               	.LFBB137:
 4301 0c10 EF92      		push r14
 4302 0c12 FF92      		push r15
 4303 0c14 0F93      		push r16
 4304 0c16 1F93      		push r17
 4305               	/* prologue: function */
 4306               	/* frame size = 0 */
 4307 0c18 8C01      		movw r16,r24
 4309               	.LM477:
 4310 0c1a FC01      		movw r30,r24
 4311 0c1c E280      		ldd r14,Z+2
 4312 0c1e F380      		ldd r15,Z+3
 4314               	.LM478:
 4315 0c20 1382      		std Z+3,__zero_reg__
 4316 0c22 1282      		std Z+2,__zero_reg__
 4318               	.LM479:
 4319 0c24 6CEA      		ldi r22,lo8(172)
 4320 0c26 70E0      		ldi r23,hi8(172)
 4321 0c28 0E94 0000 		call SendCommand
 4323               	.LM480:
 4324 0c2c F801      		movw r30,r16
 4325 0c2e F382      		std Z+3,r15
 4326 0c30 E282      		std Z+2,r14
 4327               	/* epilogue start */
 4329               	.LM481:
 4330 0c32 1F91      		pop r17
 4331 0c34 0F91      		pop r16
 4332 0c36 FF90      		pop r15
 4333 0c38 EF90      		pop r14
 4334 0c3a 0895      		ret
 4339               	.Lscope137:
 4342               	.global	PMDUpdate
 4344               	PMDUpdate:
 4346               	.LM482:
 4347               	.LFBB138:
 4348               	/* prologue: function */
 4349               	/* frame size = 0 */
 4351               	.LM483:
 4352 0c3c 6AE1      		ldi r22,lo8(26)
 4353 0c3e 70E0      		ldi r23,hi8(26)
 4354 0c40 0E94 0000 		call SendCommand
 4355               	/* epilogue start */
 4357               	.LM484:
 4358 0c44 0895      		ret
 4360               	.Lscope138:
 4363               	.global	PMDClearPositionError
 4365               	PMDClearPositionError:
 4367               	.LM485:
 4368               	.LFBB139:
 4369               	/* prologue: function */
 4370               	/* frame size = 0 */
 4372               	.LM486:
 4373 0c46 67E4      		ldi r22,lo8(71)
 4374 0c48 70E0      		ldi r23,hi8(71)
 4375 0c4a 0E94 0000 		call SendCommand
 4376               	/* epilogue start */
 4378               	.LM487:
 4379 0c4e 0895      		ret
 4381               	.Lscope139:
 4386               	.global	PMDReadAnalog
 4388               	PMDReadAnalog:
 4390               	.LM488:
 4391               	.LFBB140:
 4392               	/* prologue: function */
 4393               	/* frame size = 0 */
 4394 0c50 FB01      		movw r30,r22
 4395 0c52 9A01      		movw r18,r20
 4397               	.LM489:
 4398 0c54 6FEE      		ldi r22,lo8(239)
 4399 0c56 70E0      		ldi r23,hi8(239)
 4400 0c58 AF01      		movw r20,r30
 4401 0c5a 0E94 0000 		call SendCommandWordGetWord
 4402               	/* epilogue start */
 4404               	.LM490:
 4405 0c5e 0895      		ret
 4407               	.Lscope140:
 4412               	.global	PMDReadIO
 4414               	PMDReadIO:
 4416               	.LM491:
 4417               	.LFBB141:
 4418               	/* prologue: function */
 4419               	/* frame size = 0 */
 4420 0c60 FB01      		movw r30,r22
 4421 0c62 9A01      		movw r18,r20
 4423               	.LM492:
 4424 0c64 63E8      		ldi r22,lo8(131)
 4425 0c66 70E0      		ldi r23,hi8(131)
 4426 0c68 AF01      		movw r20,r30
 4427 0c6a 0E94 0000 		call SendCommandWordGetWord
 4428               	/* epilogue start */
 4430               	.LM493:
 4431 0c6e 0895      		ret
 4433               	.Lscope141:
 4439               	.global	PMDGetTraceVariable
 4441               	PMDGetTraceVariable:
 4443               	.LM494:
 4444               	.LFBB142:
 4445 0c70 AF92      		push r10
 4446 0c72 BF92      		push r11
 4447 0c74 CF92      		push r12
 4448 0c76 DF92      		push r13
 4449 0c78 EF92      		push r14
 4450 0c7a FF92      		push r15
 4451 0c7c 0F93      		push r16
 4452 0c7e 1F93      		push r17
 4453 0c80 DF93      		push r29
 4454 0c82 CF93      		push r28
 4455 0c84 00D0      		rcall .
 4456 0c86 CDB7      		in r28,__SP_L__
 4457 0c88 DEB7      		in r29,__SP_H__
 4458               	/* prologue: function */
 4459               	/* frame size = 2 */
 4460 0c8a 8C01      		movw r16,r24
 4461 0c8c FB01      		movw r30,r22
 4462 0c8e 7A01      		movw r14,r20
 4463 0c90 6901      		movw r12,r18
 4465               	.LM495:
 4466 0c92 DC01      		movw r26,r24
 4467 0c94 1296      		adiw r26,2
 4468 0c96 AD90      		ld r10,X+
 4469 0c98 BC90      		ld r11,X
 4470 0c9a 1397      		sbiw r26,2+1
 4472               	.LM496:
 4473 0c9c 1396      		adiw r26,2+1
 4474 0c9e 1C92      		st X,__zero_reg__
 4475 0ca0 1E92      		st -X,__zero_reg__
 4476 0ca2 1297      		sbiw r26,2
 4478               	.LM497:
 4479 0ca4 67EB      		ldi r22,lo8(183)
 4480 0ca6 70E0      		ldi r23,hi8(183)
 4481 0ca8 AF01      		movw r20,r30
 4482 0caa 9E01      		movw r18,r28
 4483 0cac 2F5F      		subi r18,lo8(-(1))
 4484 0cae 3F4F      		sbci r19,hi8(-(1))
 4485 0cb0 0E94 0000 		call SendCommandWordGetWord
 4487               	.LM498:
 4488 0cb4 2981      		ldd r18,Y+1
 4489 0cb6 3A81      		ldd r19,Y+2
 4490 0cb8 2F70      		andi r18,lo8(15)
 4491 0cba 3070      		andi r19,hi8(15)
 4492 0cbc F701      		movw r30,r14
 4493 0cbe 3183      		std Z+1,r19
 4494 0cc0 2083      		st Z,r18
 4496               	.LM499:
 4497 0cc2 2A81      		ldd r18,Y+2
 4498 0cc4 D601      		movw r26,r12
 4499 0cc6 2C93      		st X,r18
 4501               	.LM500:
 4502 0cc8 F801      		movw r30,r16
 4503 0cca B382      		std Z+3,r11
 4504 0ccc A282      		std Z+2,r10
 4505               	/* epilogue start */
 4507               	.LM501:
 4508 0cce 0F90      		pop __tmp_reg__
 4509 0cd0 0F90      		pop __tmp_reg__
 4510 0cd2 CF91      		pop r28
 4511 0cd4 DF91      		pop r29
 4512 0cd6 1F91      		pop r17
 4513 0cd8 0F91      		pop r16
 4514 0cda FF90      		pop r15
 4515 0cdc EF90      		pop r14
 4516 0cde DF90      		pop r13
 4517 0ce0 CF90      		pop r12
 4518 0ce2 BF90      		pop r11
 4519 0ce4 AF90      		pop r10
 4520 0ce6 0895      		ret
 4526               	.Lscope142:
 4531               	.global	PMDGetBufferFunction
 4533               	PMDGetBufferFunction:
 4535               	.LM502:
 4536               	.LFBB143:
 4537               	/* prologue: function */
 4538               	/* frame size = 0 */
 4539 0ce8 FB01      		movw r30,r22
 4540 0cea 9A01      		movw r18,r20
 4542               	.LM503:
 4543 0cec 6BEC      		ldi r22,lo8(203)
 4544 0cee 70E0      		ldi r23,hi8(203)
 4545 0cf0 AF01      		movw r20,r30
 4546 0cf2 0E94 0000 		call SendCommandWordGetWord
 4547               	/* epilogue start */
 4549               	.LM504:
 4550 0cf6 0895      		ret
 4552               	.Lscope143:
 4557               	.global	PMDGetPhaseCommand
 4559               	PMDGetPhaseCommand:
 4561               	.LM505:
 4562               	.LFBB144:
 4563               	/* prologue: function */
 4564               	/* frame size = 0 */
 4565 0cf8 FB01      		movw r30,r22
 4566 0cfa 9A01      		movw r18,r20
 4568               	.LM506:
 4569 0cfc 6AEE      		ldi r22,lo8(234)
 4570 0cfe 70E0      		ldi r23,hi8(234)
 4571 0d00 AF01      		movw r20,r30
 4572 0d02 0E94 0000 		call SendCommandWordGetWord
 4573               	/* epilogue start */
 4575               	.LM507:
 4576 0d06 0895      		ret
 4578               	.Lscope144:
 4585               	.global	PMDGetBreakpoint
 4587               	PMDGetBreakpoint:
 4589               	.LM508:
 4590               	.LFBB145:
 4591 0d08 CF92      		push r12
 4592 0d0a DF92      		push r13
 4593 0d0c EF92      		push r14
 4594 0d0e FF92      		push r15
 4595 0d10 0F93      		push r16
 4596 0d12 1F93      		push r17
 4597 0d14 DF93      		push r29
 4598 0d16 CF93      		push r28
 4599 0d18 00D0      		rcall .
 4600 0d1a CDB7      		in r28,__SP_L__
 4601 0d1c DEB7      		in r29,__SP_H__
 4602               	/* prologue: function */
 4603               	/* frame size = 2 */
 4604 0d1e FB01      		movw r30,r22
 4605 0d20 7A01      		movw r14,r20
 4606 0d22 6901      		movw r12,r18
 4608               	.LM509:
 4609 0d24 65ED      		ldi r22,lo8(213)
 4610 0d26 70E0      		ldi r23,hi8(213)
 4611 0d28 AF01      		movw r20,r30
 4612 0d2a 9E01      		movw r18,r28
 4613 0d2c 2F5F      		subi r18,lo8(-(1))
 4614 0d2e 3F4F      		sbci r19,hi8(-(1))
 4615 0d30 0E94 0000 		call SendCommandWordGetWord
 4617               	.LM510:
 4618 0d34 2981      		ldd r18,Y+1
 4619 0d36 3A81      		ldd r19,Y+2
 4620 0d38 A901      		movw r20,r18
 4621 0d3a 4F70      		andi r20,lo8(15)
 4622 0d3c 5070      		andi r21,hi8(15)
 4623 0d3e F701      		movw r30,r14
 4624 0d40 5183      		std Z+1,r21
 4625 0d42 4083      		st Z,r20
 4627               	.LM511:
 4628 0d44 74E0      		ldi r23,4
 4629 0d46 3695      	1:	lsr r19
 4630 0d48 2795      		ror r18
 4631 0d4a 7A95      		dec r23
 4632 0d4c 01F4      		brne 1b
 4633 0d4e 2F70      		andi r18,lo8(15)
 4634 0d50 F601      		movw r30,r12
 4635 0d52 2083      		st Z,r18
 4637               	.LM512:
 4638 0d54 2A81      		ldd r18,Y+2
 4639 0d56 F801      		movw r30,r16
 4640 0d58 2083      		st Z,r18
 4641               	/* epilogue start */
 4643               	.LM513:
 4644 0d5a 0F90      		pop __tmp_reg__
 4645 0d5c 0F90      		pop __tmp_reg__
 4646 0d5e CF91      		pop r28
 4647 0d60 DF91      		pop r29
 4648 0d62 1F91      		pop r17
 4649 0d64 0F91      		pop r16
 4650 0d66 FF90      		pop r15
 4651 0d68 EF90      		pop r14
 4652 0d6a DF90      		pop r13
 4653 0d6c CF90      		pop r12
 4654 0d6e 0895      		ret
 4659               	.Lscope145:
 4664               	.global	PMDWriteIO
 4666               	PMDWriteIO:
 4668               	.LM514:
 4669               	.LFBB146:
 4670               	/* prologue: function */
 4671               	/* frame size = 0 */
 4672 0d70 FB01      		movw r30,r22
 4673 0d72 9A01      		movw r18,r20
 4675               	.LM515:
 4676 0d74 62E8      		ldi r22,lo8(130)
 4677 0d76 70E0      		ldi r23,hi8(130)
 4678 0d78 AF01      		movw r20,r30
 4679 0d7a 0E94 0000 		call SendCommandWordWord
 4680               	/* epilogue start */
 4682               	.LM516:
 4683 0d7e 0895      		ret
 4685               	.Lscope146:
 4691               	.global	PMDSetTraceVariable
 4693               	PMDSetTraceVariable:
 4695               	.LM517:
 4696               	.LFBB147:
 4697 0d80 EF92      		push r14
 4698 0d82 FF92      		push r15
 4699 0d84 0F93      		push r16
 4700 0d86 1F93      		push r17
 4701               	/* prologue: function */
 4702               	/* frame size = 0 */
 4703 0d88 8C01      		movw r16,r24
 4704 0d8a FB01      		movw r30,r22
 4705 0d8c 822F      		mov r24,r18
 4707               	.LM518:
 4708 0d8e D801      		movw r26,r16
 4709 0d90 1296      		adiw r26,2
 4710 0d92 ED90      		ld r14,X+
 4711 0d94 FC90      		ld r15,X
 4712 0d96 1397      		sbiw r26,2+1
 4714               	.LM519:
 4715 0d98 1396      		adiw r26,2+1
 4716 0d9a 1C92      		st X,__zero_reg__
 4717 0d9c 1E92      		st -X,__zero_reg__
 4718 0d9e 1297      		sbiw r26,2
 4720               	.LM520:
 4721 0da0 382F      		mov r19,r24
 4722 0da2 20E0      		ldi r18,lo8(0)
 4723 0da4 4F70      		andi r20,lo8(15)
 4724 0da6 5070      		andi r21,hi8(15)
 4725 0da8 242B      		or r18,r20
 4726 0daa 352B      		or r19,r21
 4727 0dac C801      		movw r24,r16
 4728 0dae 66EB      		ldi r22,lo8(182)
 4729 0db0 70E0      		ldi r23,hi8(182)
 4730 0db2 AF01      		movw r20,r30
 4731 0db4 0E94 0000 		call SendCommandWordWord
 4733               	.LM521:
 4734 0db8 F801      		movw r30,r16
 4735 0dba F382      		std Z+3,r15
 4736 0dbc E282      		std Z+2,r14
 4737               	/* epilogue start */
 4739               	.LM522:
 4740 0dbe 1F91      		pop r17
 4741 0dc0 0F91      		pop r16
 4742 0dc2 FF90      		pop r15
 4743 0dc4 EF90      		pop r14
 4744 0dc6 0895      		ret
 4749               	.Lscope147:
 4754               	.global	PMDSetBufferFunction
 4756               	PMDSetBufferFunction:
 4758               	.LM523:
 4759               	.LFBB148:
 4760               	/* prologue: function */
 4761               	/* frame size = 0 */
 4762 0dc8 FB01      		movw r30,r22
 4763 0dca 9A01      		movw r18,r20
 4765               	.LM524:
 4766 0dcc 6AEC      		ldi r22,lo8(202)
 4767 0dce 70E0      		ldi r23,hi8(202)
 4768 0dd0 AF01      		movw r20,r30
 4769 0dd2 0E94 0000 		call SendCommandWordWord
 4770               	/* epilogue start */
 4772               	.LM525:
 4773 0dd6 0895      		ret
 4775               	.Lscope148:
 4780               	.global	PMDSetEncoderToStepRatio
 4782               	PMDSetEncoderToStepRatio:
 4784               	.LM526:
 4785               	.LFBB149:
 4786               	/* prologue: function */
 4787               	/* frame size = 0 */
 4788 0dd8 FB01      		movw r30,r22
 4789 0dda 9A01      		movw r18,r20
 4791               	.LM527:
 4792 0ddc 6EED      		ldi r22,lo8(222)
 4793 0dde 70E0      		ldi r23,hi8(222)
 4794 0de0 AF01      		movw r20,r30
 4795 0de2 0E94 0000 		call SendCommandWordWord
 4796               	/* epilogue start */
 4798               	.LM528:
 4799 0de6 0895      		ret
 4801               	.Lscope149:
 4808               	.global	PMDSetBreakpoint
 4810               	PMDSetBreakpoint:
 4812               	.LM529:
 4813               	.LFBB150:
 4814 0de8 0F93      		push r16
 4815               	/* prologue: function */
 4816               	/* frame size = 0 */
 4817 0dea FB01      		movw r30,r22
 4819               	.LM530:
 4820 0dec 30E0      		ldi r19,lo8(0)
 4821 0dee A4E0      		ldi r26,4
 4822 0df0 220F      	1:	lsl r18
 4823 0df2 331F      		rol r19
 4824 0df4 AA95      		dec r26
 4825 0df6 01F4      		brne 1b
 4826 0df8 3070      		andi r19,hi8(255)
 4827 0dfa 702F      		mov r23,r16
 4828 0dfc 60E0      		ldi r22,lo8(0)
 4829 0dfe 262B      		or r18,r22
 4830 0e00 372B      		or r19,r23
 4831 0e02 4F70      		andi r20,lo8(15)
 4832 0e04 5070      		andi r21,hi8(15)
 4833 0e06 242B      		or r18,r20
 4834 0e08 352B      		or r19,r21
 4835 0e0a 64ED      		ldi r22,lo8(212)
 4836 0e0c 70E0      		ldi r23,hi8(212)
 4837 0e0e AF01      		movw r20,r30
 4838 0e10 0E94 0000 		call SendCommandWordWord
 4839               	/* epilogue start */
 4841               	.LM531:
 4842 0e14 0F91      		pop r16
 4843 0e16 0895      		ret
 4845               	.Lscope150:
 4850               	.global	PMDGetBufferReadIndex
 4852               	PMDGetBufferReadIndex:
 4854               	.LM532:
 4855               	.LFBB151:
 4856 0e18 EF92      		push r14
 4857 0e1a FF92      		push r15
 4858 0e1c 0F93      		push r16
 4859 0e1e 1F93      		push r17
 4860               	/* prologue: function */
 4861               	/* frame size = 0 */
 4862 0e20 8C01      		movw r16,r24
 4863 0e22 FB01      		movw r30,r22
 4864 0e24 9A01      		movw r18,r20
 4866               	.LM533:
 4867 0e26 DC01      		movw r26,r24
 4868 0e28 1296      		adiw r26,2
 4869 0e2a ED90      		ld r14,X+
 4870 0e2c FC90      		ld r15,X
 4871 0e2e 1397      		sbiw r26,2+1
 4873               	.LM534:
 4874 0e30 1396      		adiw r26,2+1
 4875 0e32 1C92      		st X,__zero_reg__
 4876 0e34 1E92      		st -X,__zero_reg__
 4877 0e36 1297      		sbiw r26,2
 4879               	.LM535:
 4880 0e38 67EC      		ldi r22,lo8(199)
 4881 0e3a 70E0      		ldi r23,hi8(199)
 4882 0e3c AF01      		movw r20,r30
 4883 0e3e 0E94 0000 		call SendCommandWordGetLong
 4885               	.LM536:
 4886 0e42 F801      		movw r30,r16
 4887 0e44 F382      		std Z+3,r15
 4888 0e46 E282      		std Z+2,r14
 4889               	/* epilogue start */
 4891               	.LM537:
 4892 0e48 1F91      		pop r17
 4893 0e4a 0F91      		pop r16
 4894 0e4c FF90      		pop r15
 4895 0e4e EF90      		pop r14
 4896 0e50 0895      		ret
 4901               	.Lscope151:
 4906               	.global	PMDGetBufferWriteIndex
 4908               	PMDGetBufferWriteIndex:
 4910               	.LM538:
 4911               	.LFBB152:
 4912 0e52 EF92      		push r14
 4913 0e54 FF92      		push r15
 4914 0e56 0F93      		push r16
 4915 0e58 1F93      		push r17
 4916               	/* prologue: function */
 4917               	/* frame size = 0 */
 4918 0e5a 8C01      		movw r16,r24
 4919 0e5c FB01      		movw r30,r22
 4920 0e5e 9A01      		movw r18,r20
 4922               	.LM539:
 4923 0e60 DC01      		movw r26,r24
 4924 0e62 1296      		adiw r26,2
 4925 0e64 ED90      		ld r14,X+
 4926 0e66 FC90      		ld r15,X
 4927 0e68 1397      		sbiw r26,2+1
 4929               	.LM540:
 4930 0e6a 1396      		adiw r26,2+1
 4931 0e6c 1C92      		st X,__zero_reg__
 4932 0e6e 1E92      		st -X,__zero_reg__
 4933 0e70 1297      		sbiw r26,2
 4935               	.LM541:
 4936 0e72 65EC      		ldi r22,lo8(197)
 4937 0e74 70E0      		ldi r23,hi8(197)
 4938 0e76 AF01      		movw r20,r30
 4939 0e78 0E94 0000 		call SendCommandWordGetLong
 4941               	.LM542:
 4942 0e7c F801      		movw r30,r16
 4943 0e7e F382      		std Z+3,r15
 4944 0e80 E282      		std Z+2,r14
 4945               	/* epilogue start */
 4947               	.LM543:
 4948 0e82 1F91      		pop r17
 4949 0e84 0F91      		pop r16
 4950 0e86 FF90      		pop r15
 4951 0e88 EF90      		pop r14
 4952 0e8a 0895      		ret
 4957               	.Lscope152:
 4962               	.global	PMDReadBuffer
 4964               	PMDReadBuffer:
 4966               	.LM544:
 4967               	.LFBB153:
 4968 0e8c EF92      		push r14
 4969 0e8e FF92      		push r15
 4970 0e90 0F93      		push r16
 4971 0e92 1F93      		push r17
 4972               	/* prologue: function */
 4973               	/* frame size = 0 */
 4974 0e94 8C01      		movw r16,r24
 4975 0e96 FB01      		movw r30,r22
 4976 0e98 9A01      		movw r18,r20
 4978               	.LM545:
 4979 0e9a DC01      		movw r26,r24
 4980 0e9c 1296      		adiw r26,2
 4981 0e9e ED90      		ld r14,X+
 4982 0ea0 FC90      		ld r15,X
 4983 0ea2 1397      		sbiw r26,2+1
 4985               	.LM546:
 4986 0ea4 1396      		adiw r26,2+1
 4987 0ea6 1C92      		st X,__zero_reg__
 4988 0ea8 1E92      		st -X,__zero_reg__
 4989 0eaa 1297      		sbiw r26,2
 4991               	.LM547:
 4992 0eac 69EC      		ldi r22,lo8(201)
 4993 0eae 70E0      		ldi r23,hi8(201)
 4994 0eb0 AF01      		movw r20,r30
 4995 0eb2 0E94 0000 		call SendCommandWordGetLong
 4997               	.LM548:
 4998 0eb6 F801      		movw r30,r16
 4999 0eb8 F382      		std Z+3,r15
 5000 0eba E282      		std Z+2,r14
 5001               	/* epilogue start */
 5003               	.LM549:
 5004 0ebc 1F91      		pop r17
 5005 0ebe 0F91      		pop r16
 5006 0ec0 FF90      		pop r15
 5007 0ec2 EF90      		pop r14
 5008 0ec4 0895      		ret
 5013               	.Lscope153:
 5018               	.global	PMDGetBufferLength
 5020               	PMDGetBufferLength:
 5022               	.LM550:
 5023               	.LFBB154:
 5024 0ec6 EF92      		push r14
 5025 0ec8 FF92      		push r15
 5026 0eca 0F93      		push r16
 5027 0ecc 1F93      		push r17
 5028               	/* prologue: function */
 5029               	/* frame size = 0 */
 5030 0ece 8C01      		movw r16,r24
 5031 0ed0 FB01      		movw r30,r22
 5032 0ed2 9A01      		movw r18,r20
 5034               	.LM551:
 5035 0ed4 DC01      		movw r26,r24
 5036 0ed6 1296      		adiw r26,2
 5037 0ed8 ED90      		ld r14,X+
 5038 0eda FC90      		ld r15,X
 5039 0edc 1397      		sbiw r26,2+1
 5041               	.LM552:
 5042 0ede 1396      		adiw r26,2+1
 5043 0ee0 1C92      		st X,__zero_reg__
 5044 0ee2 1E92      		st -X,__zero_reg__
 5045 0ee4 1297      		sbiw r26,2
 5047               	.LM553:
 5048 0ee6 63EC      		ldi r22,lo8(195)
 5049 0ee8 70E0      		ldi r23,hi8(195)
 5050 0eea AF01      		movw r20,r30
 5051 0eec 0E94 0000 		call SendCommandWordGetLong
 5053               	.LM554:
 5054 0ef0 F801      		movw r30,r16
 5055 0ef2 F382      		std Z+3,r15
 5056 0ef4 E282      		std Z+2,r14
 5057               	/* epilogue start */
 5059               	.LM555:
 5060 0ef6 1F91      		pop r17
 5061 0ef8 0F91      		pop r16
 5062 0efa FF90      		pop r15
 5063 0efc EF90      		pop r14
 5064 0efe 0895      		ret
 5069               	.Lscope154:
 5074               	.global	PMDGetBufferStart
 5076               	PMDGetBufferStart:
 5078               	.LM556:
 5079               	.LFBB155:
 5080 0f00 EF92      		push r14
 5081 0f02 FF92      		push r15
 5082 0f04 0F93      		push r16
 5083 0f06 1F93      		push r17
 5084               	/* prologue: function */
 5085               	/* frame size = 0 */
 5086 0f08 8C01      		movw r16,r24
 5087 0f0a FB01      		movw r30,r22
 5088 0f0c 9A01      		movw r18,r20
 5090               	.LM557:
 5091 0f0e DC01      		movw r26,r24
 5092 0f10 1296      		adiw r26,2
 5093 0f12 ED90      		ld r14,X+
 5094 0f14 FC90      		ld r15,X
 5095 0f16 1397      		sbiw r26,2+1
 5097               	.LM558:
 5098 0f18 1396      		adiw r26,2+1
 5099 0f1a 1C92      		st X,__zero_reg__
 5100 0f1c 1E92      		st -X,__zero_reg__
 5101 0f1e 1297      		sbiw r26,2
 5103               	.LM559:
 5104 0f20 61EC      		ldi r22,lo8(193)
 5105 0f22 70E0      		ldi r23,hi8(193)
 5106 0f24 AF01      		movw r20,r30
 5107 0f26 0E94 0000 		call SendCommandWordGetLong
 5109               	.LM560:
 5110 0f2a F801      		movw r30,r16
 5111 0f2c F382      		std Z+3,r15
 5112 0f2e E282      		std Z+2,r14
 5113               	/* epilogue start */
 5115               	.LM561:
 5116 0f30 1F91      		pop r17
 5117 0f32 0F91      		pop r16
 5118 0f34 FF90      		pop r15
 5119 0f36 EF90      		pop r14
 5120 0f38 0895      		ret
 5125               	.Lscope155:
 5130               	.global	PMDGetBreakpointValue
 5132               	PMDGetBreakpointValue:
 5134               	.LM562:
 5135               	.LFBB156:
 5136               	/* prologue: function */
 5137               	/* frame size = 0 */
 5138 0f3a FB01      		movw r30,r22
 5139 0f3c 9A01      		movw r18,r20
 5141               	.LM563:
 5142 0f3e 67ED      		ldi r22,lo8(215)
 5143 0f40 70E0      		ldi r23,hi8(215)
 5144 0f42 AF01      		movw r20,r30
 5145 0f44 0E94 0000 		call SendCommandWordGetLong
 5146               	/* epilogue start */
 5148               	.LM564:
 5149 0f48 0895      		ret
 5151               	.Lscope156:
 5156               	.global	PMDSetBufferReadIndex
 5158               	PMDSetBufferReadIndex:
 5160               	.LM565:
 5161               	.LFBB157:
 5162 0f4a CF92      		push r12
 5163 0f4c DF92      		push r13
 5164 0f4e EF92      		push r14
 5165 0f50 FF92      		push r15
 5166 0f52 0F93      		push r16
 5167 0f54 1F93      		push r17
 5168               	/* prologue: function */
 5169               	/* frame size = 0 */
 5170 0f56 7C01      		movw r14,r24
 5171 0f58 FB01      		movw r30,r22
 5172 0f5a 8901      		movw r16,r18
 5173 0f5c 9A01      		movw r18,r20
 5175               	.LM566:
 5176 0f5e DC01      		movw r26,r24
 5177 0f60 1296      		adiw r26,2
 5178 0f62 CD90      		ld r12,X+
 5179 0f64 DC90      		ld r13,X
 5180 0f66 1397      		sbiw r26,2+1
 5182               	.LM567:
 5183 0f68 1396      		adiw r26,2+1
 5184 0f6a 1C92      		st X,__zero_reg__
 5185 0f6c 1E92      		st -X,__zero_reg__
 5186 0f6e 1297      		sbiw r26,2
 5188               	.LM568:
 5189 0f70 66EC      		ldi r22,lo8(198)
 5190 0f72 70E0      		ldi r23,hi8(198)
 5191 0f74 AF01      		movw r20,r30
 5192 0f76 0E94 0000 		call SendCommandWordLong
 5194               	.LM569:
 5195 0f7a F701      		movw r30,r14
 5196 0f7c D382      		std Z+3,r13
 5197 0f7e C282      		std Z+2,r12
 5198               	/* epilogue start */
 5200               	.LM570:
 5201 0f80 1F91      		pop r17
 5202 0f82 0F91      		pop r16
 5203 0f84 FF90      		pop r15
 5204 0f86 EF90      		pop r14
 5205 0f88 DF90      		pop r13
 5206 0f8a CF90      		pop r12
 5207 0f8c 0895      		ret
 5212               	.Lscope157:
 5217               	.global	PMDSetBufferWriteIndex
 5219               	PMDSetBufferWriteIndex:
 5221               	.LM571:
 5222               	.LFBB158:
 5223 0f8e CF92      		push r12
 5224 0f90 DF92      		push r13
 5225 0f92 EF92      		push r14
 5226 0f94 FF92      		push r15
 5227 0f96 0F93      		push r16
 5228 0f98 1F93      		push r17
 5229               	/* prologue: function */
 5230               	/* frame size = 0 */
 5231 0f9a 7C01      		movw r14,r24
 5232 0f9c FB01      		movw r30,r22
 5233 0f9e 8901      		movw r16,r18
 5234 0fa0 9A01      		movw r18,r20
 5236               	.LM572:
 5237 0fa2 DC01      		movw r26,r24
 5238 0fa4 1296      		adiw r26,2
 5239 0fa6 CD90      		ld r12,X+
 5240 0fa8 DC90      		ld r13,X
 5241 0faa 1397      		sbiw r26,2+1
 5243               	.LM573:
 5244 0fac 1396      		adiw r26,2+1
 5245 0fae 1C92      		st X,__zero_reg__
 5246 0fb0 1E92      		st -X,__zero_reg__
 5247 0fb2 1297      		sbiw r26,2
 5249               	.LM574:
 5250 0fb4 64EC      		ldi r22,lo8(196)
 5251 0fb6 70E0      		ldi r23,hi8(196)
 5252 0fb8 AF01      		movw r20,r30
 5253 0fba 0E94 0000 		call SendCommandWordLong
 5255               	.LM575:
 5256 0fbe F701      		movw r30,r14
 5257 0fc0 D382      		std Z+3,r13
 5258 0fc2 C282      		std Z+2,r12
 5259               	/* epilogue start */
 5261               	.LM576:
 5262 0fc4 1F91      		pop r17
 5263 0fc6 0F91      		pop r16
 5264 0fc8 FF90      		pop r15
 5265 0fca EF90      		pop r14
 5266 0fcc DF90      		pop r13
 5267 0fce CF90      		pop r12
 5268 0fd0 0895      		ret
 5273               	.Lscope158:
 5278               	.global	PMDWriteBuffer
 5280               	PMDWriteBuffer:
 5282               	.LM577:
 5283               	.LFBB159:
 5284 0fd2 CF92      		push r12
 5285 0fd4 DF92      		push r13
 5286 0fd6 EF92      		push r14
 5287 0fd8 FF92      		push r15
 5288 0fda 0F93      		push r16
 5289 0fdc 1F93      		push r17
 5290               	/* prologue: function */
 5291               	/* frame size = 0 */
 5292 0fde 7C01      		movw r14,r24
 5293 0fe0 FB01      		movw r30,r22
 5294 0fe2 8901      		movw r16,r18
 5295 0fe4 9A01      		movw r18,r20
 5297               	.LM578:
 5298 0fe6 DC01      		movw r26,r24
 5299 0fe8 1296      		adiw r26,2
 5300 0fea CD90      		ld r12,X+
 5301 0fec DC90      		ld r13,X
 5302 0fee 1397      		sbiw r26,2+1
 5304               	.LM579:
 5305 0ff0 1396      		adiw r26,2+1
 5306 0ff2 1C92      		st X,__zero_reg__
 5307 0ff4 1E92      		st -X,__zero_reg__
 5308 0ff6 1297      		sbiw r26,2
 5310               	.LM580:
 5311 0ff8 68EC      		ldi r22,lo8(200)
 5312 0ffa 70E0      		ldi r23,hi8(200)
 5313 0ffc AF01      		movw r20,r30
 5314 0ffe 0E94 0000 		call SendCommandWordLong
 5316               	.LM581:
 5317 1002 F701      		movw r30,r14
 5318 1004 D382      		std Z+3,r13
 5319 1006 C282      		std Z+2,r12
 5320               	/* epilogue start */
 5322               	.LM582:
 5323 1008 1F91      		pop r17
 5324 100a 0F91      		pop r16
 5325 100c FF90      		pop r15
 5326 100e EF90      		pop r14
 5327 1010 DF90      		pop r13
 5328 1012 CF90      		pop r12
 5329 1014 0895      		ret
 5334               	.Lscope159:
 5339               	.global	PMDSetBufferLength
 5341               	PMDSetBufferLength:
 5343               	.LM583:
 5344               	.LFBB160:
 5345 1016 CF92      		push r12
 5346 1018 DF92      		push r13
 5347 101a EF92      		push r14
 5348 101c FF92      		push r15
 5349 101e 0F93      		push r16
 5350 1020 1F93      		push r17
 5351               	/* prologue: function */
 5352               	/* frame size = 0 */
 5353 1022 7C01      		movw r14,r24
 5354 1024 FB01      		movw r30,r22
 5355 1026 8901      		movw r16,r18
 5356 1028 9A01      		movw r18,r20
 5358               	.LM584:
 5359 102a DC01      		movw r26,r24
 5360 102c 1296      		adiw r26,2
 5361 102e CD90      		ld r12,X+
 5362 1030 DC90      		ld r13,X
 5363 1032 1397      		sbiw r26,2+1
 5365               	.LM585:
 5366 1034 1396      		adiw r26,2+1
 5367 1036 1C92      		st X,__zero_reg__
 5368 1038 1E92      		st -X,__zero_reg__
 5369 103a 1297      		sbiw r26,2
 5371               	.LM586:
 5372 103c 62EC      		ldi r22,lo8(194)
 5373 103e 70E0      		ldi r23,hi8(194)
 5374 1040 AF01      		movw r20,r30
 5375 1042 0E94 0000 		call SendCommandWordLong
 5377               	.LM587:
 5378 1046 F701      		movw r30,r14
 5379 1048 D382      		std Z+3,r13
 5380 104a C282      		std Z+2,r12
 5381               	/* epilogue start */
 5383               	.LM588:
 5384 104c 1F91      		pop r17
 5385 104e 0F91      		pop r16
 5386 1050 FF90      		pop r15
 5387 1052 EF90      		pop r14
 5388 1054 DF90      		pop r13
 5389 1056 CF90      		pop r12
 5390 1058 0895      		ret
 5395               	.Lscope160:
 5400               	.global	PMDSetBufferStart
 5402               	PMDSetBufferStart:
 5404               	.LM589:
 5405               	.LFBB161:
 5406 105a CF92      		push r12
 5407 105c DF92      		push r13
 5408 105e EF92      		push r14
 5409 1060 FF92      		push r15
 5410 1062 0F93      		push r16
 5411 1064 1F93      		push r17
 5412               	/* prologue: function */
 5413               	/* frame size = 0 */
 5414 1066 7C01      		movw r14,r24
 5415 1068 FB01      		movw r30,r22
 5416 106a 8901      		movw r16,r18
 5417 106c 9A01      		movw r18,r20
 5419               	.LM590:
 5420 106e DC01      		movw r26,r24
 5421 1070 1296      		adiw r26,2
 5422 1072 CD90      		ld r12,X+
 5423 1074 DC90      		ld r13,X
 5424 1076 1397      		sbiw r26,2+1
 5426               	.LM591:
 5427 1078 1396      		adiw r26,2+1
 5428 107a 1C92      		st X,__zero_reg__
 5429 107c 1E92      		st -X,__zero_reg__
 5430 107e 1297      		sbiw r26,2
 5432               	.LM592:
 5433 1080 60EC      		ldi r22,lo8(192)
 5434 1082 70E0      		ldi r23,hi8(192)
 5435 1084 AF01      		movw r20,r30
 5436 1086 0E94 0000 		call SendCommandWordLong
 5438               	.LM593:
 5439 108a F701      		movw r30,r14
 5440 108c D382      		std Z+3,r13
 5441 108e C282      		std Z+2,r12
 5442               	/* epilogue start */
 5444               	.LM594:
 5445 1090 1F91      		pop r17
 5446 1092 0F91      		pop r16
 5447 1094 FF90      		pop r15
 5448 1096 EF90      		pop r14
 5449 1098 DF90      		pop r13
 5450 109a CF90      		pop r12
 5451 109c 0895      		ret
 5456               	.Lscope161:
 5461               	.global	PMDSetBreakpointValue
 5463               	PMDSetBreakpointValue:
 5465               	.LM595:
 5466               	.LFBB162:
 5467 109e 0F93      		push r16
 5468 10a0 1F93      		push r17
 5469               	/* prologue: function */
 5470               	/* frame size = 0 */
 5471 10a2 FB01      		movw r30,r22
 5472 10a4 8901      		movw r16,r18
 5473 10a6 9A01      		movw r18,r20
 5475               	.LM596:
 5476 10a8 66ED      		ldi r22,lo8(214)
 5477 10aa 70E0      		ldi r23,hi8(214)
 5478 10ac AF01      		movw r20,r30
 5479 10ae 0E94 0000 		call SendCommandWordLong
 5480               	/* epilogue start */
 5482               	.LM597:
 5483 10b2 1F91      		pop r17
 5484 10b4 0F91      		pop r16
 5485 10b6 0895      		ret
 5487               	.Lscope162:
 5491               	.global	PMDSetActualPosition
 5493               	PMDSetActualPosition:
 5495               	.LM598:
 5496               	.LFBB163:
 5497               	/* prologue: function */
 5498               	/* frame size = 0 */
 5499 10b8 9A01      		movw r18,r20
 5500 10ba AB01      		movw r20,r22
 5502               	.LM599:
 5503 10bc 6DE4      		ldi r22,lo8(77)
 5504 10be 70E0      		ldi r23,hi8(77)
 5505 10c0 0E94 0000 		call SendCommandLong
 5506               	/* epilogue start */
 5508               	.LM600:
 5509 10c4 0895      		ret
 5511               	.Lscope163:
 5515               	.global	PMDAdjustActualPosition
 5517               	PMDAdjustActualPosition:
 5519               	.LM601:
 5520               	.LFBB164:
 5521               	/* prologue: function */
 5522               	/* frame size = 0 */
 5523 10c6 9A01      		movw r18,r20
 5524 10c8 AB01      		movw r20,r22
 5526               	.LM602:
 5527 10ca 65EF      		ldi r22,lo8(245)
 5528 10cc 70E0      		ldi r23,hi8(245)
 5529 10ce 0E94 0000 		call SendCommandLong
 5530               	/* epilogue start */
 5532               	.LM603:
 5533 10d2 0895      		ret
 5535               	.Lscope164:
 5539               	.global	PMDSetPositionErrorLimit
 5541               	PMDSetPositionErrorLimit:
 5543               	.LM604:
 5544               	.LFBB165:
 5545               	/* prologue: function */
 5546               	/* frame size = 0 */
 5547 10d4 9A01      		movw r18,r20
 5548 10d6 AB01      		movw r20,r22
 5550               	.LM605:
 5551 10d8 67E9      		ldi r22,lo8(151)
 5552 10da 70E0      		ldi r23,hi8(151)
 5553 10dc 0E94 0000 		call SendCommandLong
 5554               	/* epilogue start */
 5556               	.LM606:
 5557 10e0 0895      		ret
 5559               	.Lscope165:
 5563               	.global	PMDSetIntegrationLimit
 5565               	PMDSetIntegrationLimit:
 5567               	.LM607:
 5568               	.LFBB166:
 5569               	/* prologue: function */
 5570               	/* frame size = 0 */
 5571 10e2 9A01      		movw r18,r20
 5572 10e4 AB01      		movw r20,r22
 5574               	.LM608:
 5575 10e6 65E9      		ldi r22,lo8(149)
 5576 10e8 70E0      		ldi r23,hi8(149)
 5577 10ea 0E94 0000 		call SendCommandLong
 5578               	/* epilogue start */
 5580               	.LM609:
 5581 10ee 0895      		ret
 5583               	.Lscope166:
 5587               	.global	PMDSetGearRatio
 5589               	PMDSetGearRatio:
 5591               	.LM610:
 5592               	.LFBB167:
 5593               	/* prologue: function */
 5594               	/* frame size = 0 */
 5595 10f0 9A01      		movw r18,r20
 5596 10f2 AB01      		movw r20,r22
 5598               	.LM611:
 5599 10f4 64E1      		ldi r22,lo8(20)
 5600 10f6 70E0      		ldi r23,hi8(20)
 5601 10f8 0E94 0000 		call SendCommandLong
 5602               	/* epilogue start */
 5604               	.LM612:
 5605 10fc 0895      		ret
 5607               	.Lscope167:
 5611               	.global	PMDSetJerk
 5613               	PMDSetJerk:
 5615               	.LM613:
 5616               	.LFBB168:
 5617               	/* prologue: function */
 5618               	/* frame size = 0 */
 5619 10fe 9A01      		movw r18,r20
 5620 1100 AB01      		movw r20,r22
 5622               	.LM614:
 5623 1102 63E1      		ldi r22,lo8(19)
 5624 1104 70E0      		ldi r23,hi8(19)
 5625 1106 0E94 0000 		call SendCommandLong
 5626               	/* epilogue start */
 5628               	.LM615:
 5629 110a 0895      		ret
 5631               	.Lscope168:
 5635               	.global	PMDSetDeceleration
 5637               	PMDSetDeceleration:
 5639               	.LM616:
 5640               	.LFBB169:
 5641               	/* prologue: function */
 5642               	/* frame size = 0 */
 5643 110c 9A01      		movw r18,r20
 5644 110e AB01      		movw r20,r22
 5646               	.LM617:
 5647 1110 61E9      		ldi r22,lo8(145)
 5648 1112 70E0      		ldi r23,hi8(145)
 5649 1114 0E94 0000 		call SendCommandLong
 5650               	/* epilogue start */
 5652               	.LM618:
 5653 1118 0895      		ret
 5655               	.Lscope169:
 5659               	.global	PMDSetAcceleration
 5661               	PMDSetAcceleration:
 5663               	.LM619:
 5664               	.LFBB170:
 5665               	/* prologue: function */
 5666               	/* frame size = 0 */
 5667 111a 9A01      		movw r18,r20
 5668 111c AB01      		movw r20,r22
 5670               	.LM620:
 5671 111e 60E9      		ldi r22,lo8(144)
 5672 1120 70E0      		ldi r23,hi8(144)
 5673 1122 0E94 0000 		call SendCommandLong
 5674               	/* epilogue start */
 5676               	.LM621:
 5677 1126 0895      		ret
 5679               	.Lscope170:
 5683               	.global	PMDSetStartVelocity
 5685               	PMDSetStartVelocity:
 5687               	.LM622:
 5688               	.LFBB171:
 5689               	/* prologue: function */
 5690               	/* frame size = 0 */
 5691 1128 9A01      		movw r18,r20
 5692 112a AB01      		movw r20,r22
 5694               	.LM623:
 5695 112c 6AE6      		ldi r22,lo8(106)
 5696 112e 70E0      		ldi r23,hi8(106)
 5697 1130 0E94 0000 		call SendCommandLong
 5698               	/* epilogue start */
 5700               	.LM624:
 5701 1134 0895      		ret
 5703               	.Lscope171:
 5707               	.global	PMDSetVelocity
 5709               	PMDSetVelocity:
 5711               	.LM625:
 5712               	.LFBB172:
 5713               	/* prologue: function */
 5714               	/* frame size = 0 */
 5715 1136 9A01      		movw r18,r20
 5716 1138 AB01      		movw r20,r22
 5718               	.LM626:
 5719 113a 61E1      		ldi r22,lo8(17)
 5720 113c 70E0      		ldi r23,hi8(17)
 5721 113e 0E94 0000 		call SendCommandLong
 5722               	/* epilogue start */
 5724               	.LM627:
 5725 1142 0895      		ret
 5727               	.Lscope172:
 5731               	.global	PMDSetPosition
 5733               	PMDSetPosition:
 5735               	.LM628:
 5736               	.LFBB173:
 5737               	/* prologue: function */
 5738               	/* frame size = 0 */
 5739 1144 9A01      		movw r18,r20
 5740 1146 AB01      		movw r20,r22
 5742               	.LM629:
 5743 1148 60E1      		ldi r22,lo8(16)
 5744 114a 70E0      		ldi r23,hi8(16)
 5745 114c 0E94 0000 		call SendCommandLong
 5746               	/* epilogue start */
 5748               	.LM630:
 5749 1150 0895      		ret
 5751               	.Lscope173:
 5753               	.Letext0:
DEFINED SYMBOLS
                            *ABS*:00000000 c-motion.c
C:\DOCUME~1\David\LOCALS~1\Temp/ccP0HxJh.s:2      *ABS*:0000003f __SREG__
C:\DOCUME~1\David\LOCALS~1\Temp/ccP0HxJh.s:3      *ABS*:0000003e __SP_H__
C:\DOCUME~1\David\LOCALS~1\Temp/ccP0HxJh.s:4      *ABS*:0000003d __SP_L__
C:\DOCUME~1\David\LOCALS~1\Temp/ccP0HxJh.s:5      *ABS*:00000034 __CCP__
C:\DOCUME~1\David\LOCALS~1\Temp/ccP0HxJh.s:6      *ABS*:00000000 __tmp_reg__
C:\DOCUME~1\David\LOCALS~1\Temp/ccP0HxJh.s:7      *ABS*:00000001 __zero_reg__
C:\DOCUME~1\David\LOCALS~1\Temp/ccP0HxJh.s:222    .text:00000000 PMDGetStatus
C:\DOCUME~1\David\LOCALS~1\Temp/ccP0HxJh.s:252    .text:0000001a PMDHasError
C:\DOCUME~1\David\LOCALS~1\Temp/ccP0HxJh.s:282    .text:00000034 PMDIsReady
C:\DOCUME~1\David\LOCALS~1\Temp/ccP0HxJh.s:312    .text:0000004e PMDHasInterrupt
C:\DOCUME~1\David\LOCALS~1\Temp/ccP0HxJh.s:342    .text:00000068 PMDHardReset
C:\DOCUME~1\David\LOCALS~1\Temp/ccP0HxJh.s:372    .text:00000082 PMDCloseAxisInterface
C:\DOCUME~1\David\LOCALS~1\Temp/ccP0HxJh.s:403    .text:0000009c PMDGetCMotionVersion
C:\DOCUME~1\David\LOCALS~1\Temp/ccP0HxJh.s:430    .text:000000aa PMDGetSynchronizationMode
C:\DOCUME~1\David\LOCALS~1\Temp/ccP0HxJh.s:453    .text:000000b6 PMDGetStepRange
C:\DOCUME~1\David\LOCALS~1\Temp/ccP0HxJh.s:476    .text:000000c2 PMDGetDiagnosticPortMode
C:\DOCUME~1\David\LOCALS~1\Temp/ccP0HxJh.s:503    .text:000000ce PMDGetSerialPortMode
C:\DOCUME~1\David\LOCALS~1\Temp/ccP0HxJh.s:614    .text:00000170 PMDGetHostIOError
C:\DOCUME~1\David\LOCALS~1\Temp/ccP0HxJh.s:639    .text:0000017c PMDGetAxisOutSource
C:\DOCUME~1\David\LOCALS~1\Temp/ccP0HxJh.s:726    .text:000001ee PMDGetAxisMode
C:\DOCUME~1\David\LOCALS~1\Temp/ccP0HxJh.s:749    .text:000001fa PMDGetTraceStatus
C:\DOCUME~1\David\LOCALS~1\Temp/ccP0HxJh.s:801    .text:00000228 PMDGetTraceStop
C:\DOCUME~1\David\LOCALS~1\Temp/ccP0HxJh.s:917    .text:000002c4 PMDGetTraceStart
C:\DOCUME~1\David\LOCALS~1\Temp/ccP0HxJh.s:1030   .text:00000360 PMDGetTracePeriod
C:\DOCUME~1\David\LOCALS~1\Temp/ccP0HxJh.s:1079   .text:0000038e PMDGetTraceMode
C:\DOCUME~1\David\LOCALS~1\Temp/ccP0HxJh.s:1128   .text:000003bc PMDGetPhaseCorrectionMode
C:\DOCUME~1\David\LOCALS~1\Temp/ccP0HxJh.s:1151   .text:000003c8 PMDGetPhaseAngle
C:\DOCUME~1\David\LOCALS~1\Temp/ccP0HxJh.s:1174   .text:000003d4 PMDGetPhaseOffset
C:\DOCUME~1\David\LOCALS~1\Temp/ccP0HxJh.s:1197   .text:000003e0 PMDGetPhaseInitializeTime
C:\DOCUME~1\David\LOCALS~1\Temp/ccP0HxJh.s:1220   .text:000003ec PMDGetPhaseCounts
C:\DOCUME~1\David\LOCALS~1\Temp/ccP0HxJh.s:1243   .text:000003f8 PMDGetPhasePrescale
C:\DOCUME~1\David\LOCALS~1\Temp/ccP0HxJh.s:1266   .text:00000404 PMDGetPhaseInitializeMode
C:\DOCUME~1\David\LOCALS~1\Temp/ccP0HxJh.s:1289   .text:00000410 PMDGetNumberPhases
C:\DOCUME~1\David\LOCALS~1\Temp/ccP0HxJh.s:1312   .text:0000041c PMDGetCommutationMode
C:\DOCUME~1\David\LOCALS~1\Temp/ccP0HxJh.s:1335   .text:00000428 PMDGetCurrentMotorCommand
C:\DOCUME~1\David\LOCALS~1\Temp/ccP0HxJh.s:1358   .text:00000434 PMDGetMotorCommand
C:\DOCUME~1\David\LOCALS~1\Temp/ccP0HxJh.s:1381   .text:00000440 PMDGetMotorMode
C:\DOCUME~1\David\LOCALS~1\Temp/ccP0HxJh.s:1404   .text:0000044c PMDGetOutputMode
C:\DOCUME~1\David\LOCALS~1\Temp/ccP0HxJh.s:1427   .text:00000458 PMDGetEncoderModulus
C:\DOCUME~1\David\LOCALS~1\Temp/ccP0HxJh.s:1450   .text:00000464 PMDGetEncoderSource
C:\DOCUME~1\David\LOCALS~1\Temp/ccP0HxJh.s:1473   .text:00000470 PMDGetCaptureSource
C:\DOCUME~1\David\LOCALS~1\Temp/ccP0HxJh.s:1496   .text:0000047c PMDGetActualPositionUnits
C:\DOCUME~1\David\LOCALS~1\Temp/ccP0HxJh.s:1519   .text:00000488 PMDGetSignalStatus
C:\DOCUME~1\David\LOCALS~1\Temp/ccP0HxJh.s:1542   .text:00000494 PMDGetSignalSense
C:\DOCUME~1\David\LOCALS~1\Temp/ccP0HxJh.s:1565   .text:000004a0 PMDGetActivityStatus
C:\DOCUME~1\David\LOCALS~1\Temp/ccP0HxJh.s:1588   .text:000004ac PMDGetEventStatus
C:\DOCUME~1\David\LOCALS~1\Temp/ccP0HxJh.s:1611   .text:000004b8 PMDGetInterruptAxis
C:\DOCUME~1\David\LOCALS~1\Temp/ccP0HxJh.s:1634   .text:000004c4 PMDGetInterruptMask
C:\DOCUME~1\David\LOCALS~1\Temp/ccP0HxJh.s:1657   .text:000004d0 PMDGetSampleTime
C:\DOCUME~1\David\LOCALS~1\Temp/ccP0HxJh.s:1680   .text:000004dc PMDGetDerivative
C:\DOCUME~1\David\LOCALS~1\Temp/ccP0HxJh.s:1703   .text:000004e8 PMDGetMotionCompleteMode
C:\DOCUME~1\David\LOCALS~1\Temp/ccP0HxJh.s:1726   .text:000004f4 PMDGetTrackingWindow
C:\DOCUME~1\David\LOCALS~1\Temp/ccP0HxJh.s:1749   .text:00000500 PMDGetSettleWindow
C:\DOCUME~1\David\LOCALS~1\Temp/ccP0HxJh.s:1772   .text:0000050c PMDGetSettleTime
C:\DOCUME~1\David\LOCALS~1\Temp/ccP0HxJh.s:1795   .text:00000518 PMDGetDerivativeTime
C:\DOCUME~1\David\LOCALS~1\Temp/ccP0HxJh.s:1818   .text:00000524 PMDGetAutoStopMode
C:\DOCUME~1\David\LOCALS~1\Temp/ccP0HxJh.s:1841   .text:00000530 PMDGetMotorBias
C:\DOCUME~1\David\LOCALS~1\Temp/ccP0HxJh.s:1864   .text:0000053c PMDGetMotorLimit
C:\DOCUME~1\David\LOCALS~1\Temp/ccP0HxJh.s:1887   .text:00000548 PMDGetLimitSwitchMode
C:\DOCUME~1\David\LOCALS~1\Temp/ccP0HxJh.s:1910   .text:00000554 PMDGetKout
C:\DOCUME~1\David\LOCALS~1\Temp/ccP0HxJh.s:1933   .text:00000560 PMDGetKaff
C:\DOCUME~1\David\LOCALS~1\Temp/ccP0HxJh.s:1956   .text:0000056c PMDGetKvff
C:\DOCUME~1\David\LOCALS~1\Temp/ccP0HxJh.s:1979   .text:00000578 PMDGetKi
C:\DOCUME~1\David\LOCALS~1\Temp/ccP0HxJh.s:2002   .text:00000584 PMDGetKd
C:\DOCUME~1\David\LOCALS~1\Temp/ccP0HxJh.s:2025   .text:00000590 PMDGetKp
C:\DOCUME~1\David\LOCALS~1\Temp/ccP0HxJh.s:2048   .text:0000059c PMDGetStopMode
C:\DOCUME~1\David\LOCALS~1\Temp/ccP0HxJh.s:2072   .text:000005a8 PMDGetGearMaster
C:\DOCUME~1\David\LOCALS~1\Temp/ccP0HxJh.s:2134   .text:000005f4 PMDGetProfileMode
C:\DOCUME~1\David\LOCALS~1\Temp/ccP0HxJh.s:2157   .text:00000600 PMDSetSynchronizationMode
C:\DOCUME~1\David\LOCALS~1\Temp/ccP0HxJh.s:2180   .text:0000060c PMDSetStepRange
C:\DOCUME~1\David\LOCALS~1\Temp/ccP0HxJh.s:2203   .text:00000618 PMDSetDiagnosticPortMode
C:\DOCUME~1\David\LOCALS~1\Temp/ccP0HxJh.s:2230   .text:00000624 PMDSetSerialPortMode
C:\DOCUME~1\David\LOCALS~1\Temp/ccP0HxJh.s:2292   .text:0000067a PMDSetAxisOutSource
C:\DOCUME~1\David\LOCALS~1\Temp/ccP0HxJh.s:2332   .text:000006a8 PMDSetAxisMode
C:\DOCUME~1\David\LOCALS~1\Temp/ccP0HxJh.s:2358   .text:000006b4 PMDSetTraceStop
C:\DOCUME~1\David\LOCALS~1\Temp/ccP0HxJh.s:2447   .text:0000071c PMDSetTraceStart
C:\DOCUME~1\David\LOCALS~1\Temp/ccP0HxJh.s:2533   .text:00000784 PMDSetTracePeriod
C:\DOCUME~1\David\LOCALS~1\Temp/ccP0HxJh.s:2582   .text:000007b2 PMDSetTraceMode
C:\DOCUME~1\David\LOCALS~1\Temp/ccP0HxJh.s:2631   .text:000007e0 PMDSetPhaseCorrectionMode
C:\DOCUME~1\David\LOCALS~1\Temp/ccP0HxJh.s:2654   .text:000007ec PMDSetPhaseAngle
C:\DOCUME~1\David\LOCALS~1\Temp/ccP0HxJh.s:2677   .text:000007f8 PMDSetPhaseOffset
C:\DOCUME~1\David\LOCALS~1\Temp/ccP0HxJh.s:2700   .text:00000804 PMDSetPhaseInitializeTime
C:\DOCUME~1\David\LOCALS~1\Temp/ccP0HxJh.s:2723   .text:00000810 PMDSetPhaseCounts
C:\DOCUME~1\David\LOCALS~1\Temp/ccP0HxJh.s:2746   .text:0000081c PMDSetPhasePrescale
C:\DOCUME~1\David\LOCALS~1\Temp/ccP0HxJh.s:2769   .text:00000828 PMDSetPhaseInitializeMode
C:\DOCUME~1\David\LOCALS~1\Temp/ccP0HxJh.s:2792   .text:00000834 PMDSetNumberPhases
C:\DOCUME~1\David\LOCALS~1\Temp/ccP0HxJh.s:2815   .text:00000840 PMDSetCommutationMode
C:\DOCUME~1\David\LOCALS~1\Temp/ccP0HxJh.s:2838   .text:0000084c PMDSetMotorCommand
C:\DOCUME~1\David\LOCALS~1\Temp/ccP0HxJh.s:2861   .text:00000858 PMDSetMotorMode
C:\DOCUME~1\David\LOCALS~1\Temp/ccP0HxJh.s:2884   .text:00000864 PMDSetOutputMode
C:\DOCUME~1\David\LOCALS~1\Temp/ccP0HxJh.s:2907   .text:00000870 PMDSetEncoderModulus
C:\DOCUME~1\David\LOCALS~1\Temp/ccP0HxJh.s:2930   .text:0000087c PMDSetEncoderSource
C:\DOCUME~1\David\LOCALS~1\Temp/ccP0HxJh.s:2953   .text:00000888 PMDSetCaptureSource
C:\DOCUME~1\David\LOCALS~1\Temp/ccP0HxJh.s:2976   .text:00000894 PMDSetActualPositionUnits
C:\DOCUME~1\David\LOCALS~1\Temp/ccP0HxJh.s:2999   .text:000008a0 PMDSetSignalSense
C:\DOCUME~1\David\LOCALS~1\Temp/ccP0HxJh.s:3022   .text:000008ac PMDResetEventStatus
C:\DOCUME~1\David\LOCALS~1\Temp/ccP0HxJh.s:3045   .text:000008b8 PMDSetInterruptMask
C:\DOCUME~1\David\LOCALS~1\Temp/ccP0HxJh.s:3068   .text:000008c4 PMDMultiUpdate
C:\DOCUME~1\David\LOCALS~1\Temp/ccP0HxJh.s:3091   .text:000008d0 PMDSetSampleTime
C:\DOCUME~1\David\LOCALS~1\Temp/ccP0HxJh.s:3114   .text:000008dc PMDSetMotionCompleteMode
C:\DOCUME~1\David\LOCALS~1\Temp/ccP0HxJh.s:3137   .text:000008e8 PMDSetTrackingWindow
C:\DOCUME~1\David\LOCALS~1\Temp/ccP0HxJh.s:3160   .text:000008f4 PMDSetSettleWindow
C:\DOCUME~1\David\LOCALS~1\Temp/ccP0HxJh.s:3183   .text:00000900 PMDSetSettleTime
C:\DOCUME~1\David\LOCALS~1\Temp/ccP0HxJh.s:3206   .text:0000090c PMDSetDerivativeTime
C:\DOCUME~1\David\LOCALS~1\Temp/ccP0HxJh.s:3229   .text:00000918 PMDSetAutoStopMode
C:\DOCUME~1\David\LOCALS~1\Temp/ccP0HxJh.s:3252   .text:00000924 PMDSetMotorBias
C:\DOCUME~1\David\LOCALS~1\Temp/ccP0HxJh.s:3275   .text:00000930 PMDSetMotorLimit
C:\DOCUME~1\David\LOCALS~1\Temp/ccP0HxJh.s:3298   .text:0000093c PMDSetLimitSwitchMode
C:\DOCUME~1\David\LOCALS~1\Temp/ccP0HxJh.s:3321   .text:00000948 PMDSetKout
C:\DOCUME~1\David\LOCALS~1\Temp/ccP0HxJh.s:3344   .text:00000954 PMDSetKaff
C:\DOCUME~1\David\LOCALS~1\Temp/ccP0HxJh.s:3367   .text:00000960 PMDSetKvff
C:\DOCUME~1\David\LOCALS~1\Temp/ccP0HxJh.s:3390   .text:0000096c PMDSetKi
C:\DOCUME~1\David\LOCALS~1\Temp/ccP0HxJh.s:3413   .text:00000978 PMDSetKd
C:\DOCUME~1\David\LOCALS~1\Temp/ccP0HxJh.s:3436   .text:00000984 PMDSetKp
C:\DOCUME~1\David\LOCALS~1\Temp/ccP0HxJh.s:3459   .text:00000990 PMDSetStopMode
C:\DOCUME~1\David\LOCALS~1\Temp/ccP0HxJh.s:3483   .text:0000099c PMDSetGearMaster
C:\DOCUME~1\David\LOCALS~1\Temp/ccP0HxJh.s:3514   .text:000009b8 PMDSetProfileMode
C:\DOCUME~1\David\LOCALS~1\Temp/ccP0HxJh.s:3537   .text:000009c4 PMDGetChecksum
C:\DOCUME~1\David\LOCALS~1\Temp/ccP0HxJh.s:3560   .text:000009d0 PMDGetTime
C:\DOCUME~1\David\LOCALS~1\Temp/ccP0HxJh.s:3583   .text:000009dc PMDGetTraceCount
C:\DOCUME~1\David\LOCALS~1\Temp/ccP0HxJh.s:3632   .text:00000a0a PMDGetCaptureValue
C:\DOCUME~1\David\LOCALS~1\Temp/ccP0HxJh.s:3655   .text:00000a16 PMDGetActualVelocity
C:\DOCUME~1\David\LOCALS~1\Temp/ccP0HxJh.s:3678   .text:00000a22 PMDGetActualPosition
C:\DOCUME~1\David\LOCALS~1\Temp/ccP0HxJh.s:3701   .text:00000a2e PMDGetPositionError
C:\DOCUME~1\David\LOCALS~1\Temp/ccP0HxJh.s:3724   .text:00000a3a PMDGetIntegral
C:\DOCUME~1\David\LOCALS~1\Temp/ccP0HxJh.s:3747   .text:00000a46 PMDGetPositionErrorLimit
C:\DOCUME~1\David\LOCALS~1\Temp/ccP0HxJh.s:3770   .text:00000a52 PMDGetIntegrationLimit
C:\DOCUME~1\David\LOCALS~1\Temp/ccP0HxJh.s:3793   .text:00000a5e PMDGetCommandedAcceleration
C:\DOCUME~1\David\LOCALS~1\Temp/ccP0HxJh.s:3816   .text:00000a6a PMDGetCommandedVelocity
C:\DOCUME~1\David\LOCALS~1\Temp/ccP0HxJh.s:3839   .text:00000a76 PMDGetCommandedPosition
C:\DOCUME~1\David\LOCALS~1\Temp/ccP0HxJh.s:3862   .text:00000a82 PMDGetGearRatio
C:\DOCUME~1\David\LOCALS~1\Temp/ccP0HxJh.s:3885   .text:00000a8e PMDGetJerk
C:\DOCUME~1\David\LOCALS~1\Temp/ccP0HxJh.s:3908   .text:00000a9a PMDGetDeceleration
C:\DOCUME~1\David\LOCALS~1\Temp/ccP0HxJh.s:3931   .text:00000aa6 PMDGetAcceleration
C:\DOCUME~1\David\LOCALS~1\Temp/ccP0HxJh.s:3954   .text:00000ab2 PMDGetStartVelocity
C:\DOCUME~1\David\LOCALS~1\Temp/ccP0HxJh.s:3977   .text:00000abe PMDGetVelocity
C:\DOCUME~1\David\LOCALS~1\Temp/ccP0HxJh.s:4000   .text:00000aca PMDGetPosition
C:\DOCUME~1\David\LOCALS~1\Temp/ccP0HxJh.s:4029   .text:00000ad6 PMDGetVersion
C:\DOCUME~1\David\LOCALS~1\Temp/ccP0HxJh.s:4184   .text:00000bc0 PMDGetEncoderToStepRatio
C:\DOCUME~1\David\LOCALS~1\Temp/ccP0HxJh.s:4208   .text:00000bd0 PMDNoOperation
C:\DOCUME~1\David\LOCALS~1\Temp/ccP0HxJh.s:4229   .text:00000bda PMDReset
C:\DOCUME~1\David\LOCALS~1\Temp/ccP0HxJh.s:4276   .text:00000c06 PMDInitializePhase
C:\DOCUME~1\David\LOCALS~1\Temp/ccP0HxJh.s:4297   .text:00000c10 PMDClearInterrupt
C:\DOCUME~1\David\LOCALS~1\Temp/ccP0HxJh.s:4344   .text:00000c3c PMDUpdate
C:\DOCUME~1\David\LOCALS~1\Temp/ccP0HxJh.s:4365   .text:00000c46 PMDClearPositionError
C:\DOCUME~1\David\LOCALS~1\Temp/ccP0HxJh.s:4388   .text:00000c50 PMDReadAnalog
C:\DOCUME~1\David\LOCALS~1\Temp/ccP0HxJh.s:4414   .text:00000c60 PMDReadIO
C:\DOCUME~1\David\LOCALS~1\Temp/ccP0HxJh.s:4441   .text:00000c70 PMDGetTraceVariable
C:\DOCUME~1\David\LOCALS~1\Temp/ccP0HxJh.s:4533   .text:00000ce8 PMDGetBufferFunction
C:\DOCUME~1\David\LOCALS~1\Temp/ccP0HxJh.s:4559   .text:00000cf8 PMDGetPhaseCommand
C:\DOCUME~1\David\LOCALS~1\Temp/ccP0HxJh.s:4587   .text:00000d08 PMDGetBreakpoint
C:\DOCUME~1\David\LOCALS~1\Temp/ccP0HxJh.s:4666   .text:00000d70 PMDWriteIO
C:\DOCUME~1\David\LOCALS~1\Temp/ccP0HxJh.s:4693   .text:00000d80 PMDSetTraceVariable
C:\DOCUME~1\David\LOCALS~1\Temp/ccP0HxJh.s:4756   .text:00000dc8 PMDSetBufferFunction
C:\DOCUME~1\David\LOCALS~1\Temp/ccP0HxJh.s:4782   .text:00000dd8 PMDSetEncoderToStepRatio
C:\DOCUME~1\David\LOCALS~1\Temp/ccP0HxJh.s:4810   .text:00000de8 PMDSetBreakpoint
C:\DOCUME~1\David\LOCALS~1\Temp/ccP0HxJh.s:4852   .text:00000e18 PMDGetBufferReadIndex
C:\DOCUME~1\David\LOCALS~1\Temp/ccP0HxJh.s:4908   .text:00000e52 PMDGetBufferWriteIndex
C:\DOCUME~1\David\LOCALS~1\Temp/ccP0HxJh.s:4964   .text:00000e8c PMDReadBuffer
C:\DOCUME~1\David\LOCALS~1\Temp/ccP0HxJh.s:5020   .text:00000ec6 PMDGetBufferLength
C:\DOCUME~1\David\LOCALS~1\Temp/ccP0HxJh.s:5076   .text:00000f00 PMDGetBufferStart
C:\DOCUME~1\David\LOCALS~1\Temp/ccP0HxJh.s:5132   .text:00000f3a PMDGetBreakpointValue
C:\DOCUME~1\David\LOCALS~1\Temp/ccP0HxJh.s:5158   .text:00000f4a PMDSetBufferReadIndex
C:\DOCUME~1\David\LOCALS~1\Temp/ccP0HxJh.s:5219   .text:00000f8e PMDSetBufferWriteIndex
C:\DOCUME~1\David\LOCALS~1\Temp/ccP0HxJh.s:5280   .text:00000fd2 PMDWriteBuffer
C:\DOCUME~1\David\LOCALS~1\Temp/ccP0HxJh.s:5341   .text:00001016 PMDSetBufferLength
C:\DOCUME~1\David\LOCALS~1\Temp/ccP0HxJh.s:5402   .text:0000105a PMDSetBufferStart
C:\DOCUME~1\David\LOCALS~1\Temp/ccP0HxJh.s:5463   .text:0000109e PMDSetBreakpointValue
C:\DOCUME~1\David\LOCALS~1\Temp/ccP0HxJh.s:5493   .text:000010b8 PMDSetActualPosition
C:\DOCUME~1\David\LOCALS~1\Temp/ccP0HxJh.s:5517   .text:000010c6 PMDAdjustActualPosition
C:\DOCUME~1\David\LOCALS~1\Temp/ccP0HxJh.s:5541   .text:000010d4 PMDSetPositionErrorLimit
C:\DOCUME~1\David\LOCALS~1\Temp/ccP0HxJh.s:5565   .text:000010e2 PMDSetIntegrationLimit
C:\DOCUME~1\David\LOCALS~1\Temp/ccP0HxJh.s:5589   .text:000010f0 PMDSetGearRatio
C:\DOCUME~1\David\LOCALS~1\Temp/ccP0HxJh.s:5613   .text:000010fe PMDSetJerk
C:\DOCUME~1\David\LOCALS~1\Temp/ccP0HxJh.s:5637   .text:0000110c PMDSetDeceleration
C:\DOCUME~1\David\LOCALS~1\Temp/ccP0HxJh.s:5661   .text:0000111a PMDSetAcceleration
C:\DOCUME~1\David\LOCALS~1\Temp/ccP0HxJh.s:5685   .text:00001128 PMDSetStartVelocity
C:\DOCUME~1\David\LOCALS~1\Temp/ccP0HxJh.s:5709   .text:00001136 PMDSetVelocity
C:\DOCUME~1\David\LOCALS~1\Temp/ccP0HxJh.s:5733   .text:00001144 PMDSetPosition

UNDEFINED SYMBOLS
SendCommandGetWord
SendCommandWord
SendCommandGetLong
SendCommandGetWordWord
SendCommand
SendCommandWordGetWord
SendCommandWordWord
SendCommandWordGetLong
SendCommandWordLong
SendCommandLong
