   1               		.file	"controlador_Jarboter.c"
   2               	__SREG__ = 0x3f
   3               	__SP_H__ = 0x3e
   4               	__SP_L__ = 0x3d
   5               	__CCP__  = 0x34
   6               	__tmp_reg__ = 0
   7               	__zero_reg__ = 1
   9               		.text
  10               	.Ltext0:
 245               		.section	.init3,"ax",@progbits
 247               	.global	Init_EXRAM
 249               	Init_EXRAM:
   1:controlador_Jarboter.c **** #include <avr/io.h>
   2:controlador_Jarboter.c **** #include <ctype.h>
   3:controlador_Jarboter.c **** #include <stdint.h>
   4:controlador_Jarboter.c **** #include <stdio.h>    		//salida estandar
   5:controlador_Jarboter.c **** #include <inttypes.h>
   6:controlador_Jarboter.c **** #include <util/delay.h>
   7:controlador_Jarboter.c **** #include <avr/interrupt.h>
   8:controlador_Jarboter.c **** #include <stdlib.h>
   9:controlador_Jarboter.c **** #include <avr/pgmspace.h>
  10:controlador_Jarboter.c **** 
  11:controlador_Jarboter.c **** #include "mem.h"
  12:controlador_Jarboter.c **** #include "c-motion.h"
  13:controlador_Jarboter.c **** #include "PMDsetup.h"
  14:controlador_Jarboter.c **** #include "PMDtrace.h"
  15:controlador_Jarboter.c **** #include "PMDrobotics.h"
  16:controlador_Jarboter.c **** #include "PMDinfo.h"
  17:controlador_Jarboter.c **** #include "PMDinterrupt.h"
  18:controlador_Jarboter.c **** #include "uart.h"
  19:controlador_Jarboter.c **** #include "messages.h"
  20:controlador_Jarboter.c **** #include "debug.h"
  21:controlador_Jarboter.c **** #include "packetIO.h"
  22:controlador_Jarboter.c **** #include "lcd.h"
  23:controlador_Jarboter.c **** #include "tw_teach_pendant.h"
  24:controlador_Jarboter.c **** #include "tw_rtc.h"
  25:controlador_Jarboter.c **** #include "gripper.h"
  26:controlador_Jarboter.c **** #include "conversion.h"
  27:controlador_Jarboter.c **** 
  28:controlador_Jarboter.c **** void Init_EXRAM (void) __attribute__ ((naked)) \
  29:controlador_Jarboter.c **** __attribute__ ((section (".init3")));
  30:controlador_Jarboter.c **** 
  31:controlador_Jarboter.c **** /** Inicializacion de la memoria externa */
  32:controlador_Jarboter.c **** /** Inicializacion de la memoria externa con dos ciclos de espera para Lectura/Escritura y un ciclo
  33:controlador_Jarboter.c **** dato. La memoria externa es manejada como un solo sector. */
  34:controlador_Jarboter.c **** 
  35:controlador_Jarboter.c **** void Init_EXRAM (void) 
  36:controlador_Jarboter.c **** { 
 250               	,.LM0-.LFBB1
 251               	.LM0:
 252               	.LFBB1:
 253               	/* prologue: naked */
 254               	/* frame size = 0 */
  37:controlador_Jarboter.c **** 
  38:controlador_Jarboter.c **** 
  39:controlador_Jarboter.c **** XMCRA		=	_BV(SRE) | _BV(SRW11) | _BV(SRW10);	
 255               	bn	68,0,39,.LM1-.LFBB1
 256               	.LM1:
 257 0000 8CE8      		ldi r24,lo8(-116)
 258 0002 8093 7400 		sts 116,r24
  40:controlador_Jarboter.c **** XMCRB = 0x00; 
 259               	abn	68,0,40,.LM2-.LFBB1
 260               	.LM2:
 261 0006 1092 7500 		sts 117,__zero_reg__
 262               	/* epilogue start */
  41:controlador_Jarboter.c **** }
 263               	abn	68,0,41,.LM3-.LFBB1
 264               	.LM3:
 266               	.Lscope1:
 267               		.text
 269               	.global	__vector_20
 271               	__vector_20:
  42:controlador_Jarboter.c **** 
  43:controlador_Jarboter.c **** //#define	  DEBUGUSB
  44:controlador_Jarboter.c **** #define     DEBUGPUNTO
  45:controlador_Jarboter.c **** #define     DEBUGPOSE
  46:controlador_Jarboter.c **** //#define     DEBUGFECHA
  47:controlador_Jarboter.c **** 
  48:controlador_Jarboter.c **** void work_in(void);
  49:controlador_Jarboter.c **** void work_out(void);
  50:controlador_Jarboter.c **** 
  51:controlador_Jarboter.c **** volatile int16 		 activo_alarma=0; 		/*Activo alarma mediante un paquete alarma en Work_out*/
  52:controlador_Jarboter.c **** volatile int16 		 ATENDER_INT_IN=1; 		/*Se utiliza para no interupir dos veces*/
  53:controlador_Jarboter.c **** static 	 tReturnCode rc; 					/*Global para work_in work_out*/
  54:controlador_Jarboter.c **** extern   uint16      *id_vector; 			/*Vector de los IDs que se crea mediante return_id_vector(); us
  55:controlador_Jarboter.c **** extern   tAlarm      rxAlarma;   			/*En interrupcion y work_out*/
  56:controlador_Jarboter.c **** extern   PMDlong32   *Tracebufferdata; 		/*Usado en work_in y work_out*/
  57:controlador_Jarboter.c **** tFecha 				 txFecha; 				/*Actualizada en work_out para luego ser enviada por work_in*/
  58:controlador_Jarboter.c **** tAxisSettings 		 TxAxisSettings[DOF]; 	/*Actualizado en work_out y enviado por work_in */
  59:controlador_Jarboter.c **** int16                TRACETrajFlag;         /*Le indica a PMDprocessTrajectory si se esta trabajand
  60:controlador_Jarboter.c **** int8				 GetBufferFlag;         
  61:controlador_Jarboter.c **** uint16               TXPoseActual=0;
  62:controlador_Jarboter.c **** uint16               GripperActual=0;
  63:controlador_Jarboter.c **** 
  64:controlador_Jarboter.c **** /*Para borrar*/
  65:controlador_Jarboter.c **** int TEST_EJE=3;
  66:controlador_Jarboter.c **** 
  67:controlador_Jarboter.c **** 
  68:controlador_Jarboter.c **** PMDint32 position1, velocity1, commandedposition, commandedvelocity;
  69:controlador_Jarboter.c **** PMDint32 commandedacceleration, readencoder1, readerror;
  70:controlador_Jarboter.c **** PMDuint32 acceleration1, deceleration;
  71:controlador_Jarboter.c **** PMDuint16 cuentas_encoder, micropasos;
  72:controlador_Jarboter.c **** 
  73:controlador_Jarboter.c **** extern PMDAxisHandle hAxis[DOF];	
  74:controlador_Jarboter.c **** 
  75:controlador_Jarboter.c **** 
  76:controlador_Jarboter.c **** volatile struct
  77:controlador_Jarboter.c **** {
  78:controlador_Jarboter.c **** 
  79:controlador_Jarboter.c ****   uint8_t USB_int			: 1;			//Bandera cuando interrumpe el USB al uC.
  80:controlador_Jarboter.c ****   uint8_t flag_read		    : 1;
  81:controlador_Jarboter.c ****   uint8_t flag_write		: 1;
  82:controlador_Jarboter.c ****   uint8_t Timer1_int	    : 1;
  83:controlador_Jarboter.c ****   uint8_t Timer3_int	    : 1;
  84:controlador_Jarboter.c **** }intflags;
  85:controlador_Jarboter.c **** 
  86:controlador_Jarboter.c **** //Interrupcion Causada por el Boton de Parada de Emergencia
  87:controlador_Jarboter.c **** ISR(INT2_vect)
  88:controlador_Jarboter.c **** {
  89:controlador_Jarboter.c **** 	abruptstop(); 
  90:controlador_Jarboter.c **** 	buzzer(1); 
  91:controlador_Jarboter.c **** 	Led_on(Rojo);
  92:controlador_Jarboter.c **** 	printf("SE ha activo el Boton de Parada de Emergencia. \n");
  93:controlador_Jarboter.c **** 	fprintf_P(stderr,PSTR("Boton de Parada de Emergencia Activo \n"));
  94:controlador_Jarboter.c **** 	exit(1);
  95:controlador_Jarboter.c **** }
  96:controlador_Jarboter.c **** 
  97:controlador_Jarboter.c **** //Interrupcion Causada por La interfaz USB
  98:controlador_Jarboter.c **** ISR(INT3_vect)
  99:controlador_Jarboter.c **** {	  
 100:controlador_Jarboter.c ****     //Solo se pueden atender nuevas interrupciones IN/OUT/PARADA, 
 101:controlador_Jarboter.c **** 	//si no hay e curso un proceso de comunicacion de datos IN.
 102:controlador_Jarboter.c **** 	if(ATENDER_INT_IN==1)
 103:controlador_Jarboter.c **** 	{
 104:controlador_Jarboter.c **** 		buzzer_ms(50); 
 105:controlador_Jarboter.c **** 		intflags.USB_int	= 0;
 106:controlador_Jarboter.c **** 		
 107:controlador_Jarboter.c **** 		//Comando de Parada de Emergencia		
 108:controlador_Jarboter.c **** 		if (bit_is_clear(PINH, USB_FLAG_WRITE) && bit_is_clear(PINH, USB_FLAG_READ))
 109:controlador_Jarboter.c **** 		{			
 110:controlador_Jarboter.c **** 			abruptstop();
 111:controlador_Jarboter.c **** 			buzzer(1); 
 112:controlador_Jarboter.c **** 			printf("SE ha efectudado una parada Abrupta en los motores. \n");
 113:controlador_Jarboter.c **** 			fprintf(stderr,"Se ha efectudado una parada Abrupta en los motores. \n"); 
 114:controlador_Jarboter.c **** 			exit(1);			
 115:controlador_Jarboter.c **** 		}	
 116:controlador_Jarboter.c **** 		
 117:controlador_Jarboter.c **** 		//Comando de Lectura al uControlador
 118:controlador_Jarboter.c **** 		
 119:controlador_Jarboter.c **** 		if (bit_is_clear(PINH, USB_FLAG_READ))
 120:controlador_Jarboter.c **** 		{
 121:controlador_Jarboter.c **** 			intflags.flag_read=0;		
 122:controlador_Jarboter.c **** 		}
 123:controlador_Jarboter.c **** 		
 124:controlador_Jarboter.c **** 		//Comando de Escritura Sobre el uContralador
 125:controlador_Jarboter.c **** 		
 126:controlador_Jarboter.c **** 		if (bit_is_clear(PINH, USB_FLAG_WRITE))
 127:controlador_Jarboter.c **** 		{
 128:controlador_Jarboter.c **** 			intflags.flag_write=0;			
 129:controlador_Jarboter.c **** 		}		
 130:controlador_Jarboter.c **** 	}
 131:controlador_Jarboter.c **** }
 132:controlador_Jarboter.c **** 
 133:controlador_Jarboter.c **** //Interrupcion Causada por el PMD1
 134:controlador_Jarboter.c **** ISR(INT4_vect)
 135:controlador_Jarboter.c **** {
 136:controlador_Jarboter.c **** 	printf("PMD1 PRODUJO INTERRUPCION \n");
 137:controlador_Jarboter.c **** 	InterruptHandling_chipset1(); 
 138:controlador_Jarboter.c **** }
 139:controlador_Jarboter.c **** 
 140:controlador_Jarboter.c **** //Interrupcion Causada por el PMD2
 141:controlador_Jarboter.c **** ISR(INT5_vect)
 142:controlador_Jarboter.c **** {
 143:controlador_Jarboter.c **** 	printf("PMD2 PRODUJO INTERRUPCION \n"); 
 144:controlador_Jarboter.c **** 	InterruptHandling_chipset2(); 
 145:controlador_Jarboter.c **** }
 146:controlador_Jarboter.c **** 
 147:controlador_Jarboter.c **** //Interrupcion Causada por el Timer1
 148:controlador_Jarboter.c **** ISR(TIMER1_OVF_vect)
 149:controlador_Jarboter.c **** {
 272               	8,0,149,.LM4-.LFBB2
 273               	.LM4:
 274               	.LFBB2:
 275 0000 1F92      		push __zero_reg__
 276 0002 0F92      		push r0
 277 0004 0FB6      		in r0,__SREG__
 278 0006 0F92      		push r0
 279 0008 1124      		clr __zero_reg__
 280 000a 8F93      		push r24
 281               	/* prologue: Signal */
 282               	/* frame size = 0 */
 150:controlador_Jarboter.c **** 	
 151:controlador_Jarboter.c **** 	intflags.Timer1_int=0;
 283               	0,151,.LM5-.LFBB2
 284               	.LM5:
 285 000c 8091 0000 		lds r24,intflags
 286 0010 877F      		andi r24,lo8(-9)
 287 0012 8093 0000 		sts intflags,r24
 288               	/* epilogue start */
 152:controlador_Jarboter.c **** }
 289               	n	68,0,152,.LM6-.LFBB2
 290               	.LM6:
 291 0016 8F91      		pop r24
 292 0018 0F90      		pop r0
 293 001a 0FBE      		out __SREG__,r0
 294 001c 0F90      		pop r0
 295 001e 1F90      		pop __zero_reg__
 296 0020 1895      		reti
 298               	.Lscope2:
 300               	.global	__vector_35
 302               	__vector_35:
 153:controlador_Jarboter.c **** 
 154:controlador_Jarboter.c **** //Interrupcion Causada por el Timer3
 155:controlador_Jarboter.c **** ISR(TIMER3_OVF_vect)
 156:controlador_Jarboter.c **** {
 303               	56,.LM7-.LFBB3
 304               	.LM7:
 305               	.LFBB3:
 306 0022 1F92      		push __zero_reg__
 307 0024 0F92      		push r0
 308 0026 0FB6      		in r0,__SREG__
 309 0028 0F92      		push r0
 310 002a 1124      		clr __zero_reg__
 311 002c 8F93      		push r24
 312               	/* prologue: Signal */
 313               	/* frame size = 0 */
 157:controlador_Jarboter.c **** 	intflags.Timer3_int=0;
 314               	0,157,.LM8-.LFBB3
 315               	.LM8:
 316 002e 8091 0000 		lds r24,intflags
 317 0032 8F7E      		andi r24,lo8(-17)
 318 0034 8093 0000 		sts intflags,r24
 319               	/* epilogue start */
 158:controlador_Jarboter.c **** }
 320               	n	68,0,158,.LM9-.LFBB3
 321               	.LM9:
 322 0038 8F91      		pop r24
 323 003a 0F90      		pop r0
 324 003c 0FBE      		out __SREG__,r0
 325 003e 0F90      		pop r0
 326 0040 1F90      		pop __zero_reg__
 327 0042 1895      		reti
 329               	.Lscope3:
 330               		.data
 331               	.LC0:
 332 0000 776F 726B 		.string	"work_in=> ERROR"
 332      5F69 6E3D 
 332      3E20 4552 
 332      524F 5200 
 333               	.LC1:
 334 0010 776F 726B 		.string	"work_in=> Estoy mandando el vector de IDs"
 334      5F69 6E3D 
 334      3E20 4573 
 334      746F 7920 
 334      6D61 6E64 
 335               	.LC2:
 336 003a 776F 726B 		.string	"work_in=> Salgo del dispatchPacket\n "
 336      5F69 6E3D 
 336      3E20 5361 
 336      6C67 6F20 
 336      6465 6C20 
 337               	.LC3:
 338 005f 776F 726B 		.string	"work_in=> Estoy mandando la fecha"
 338      5F69 6E3D 
 338      3E20 4573 
 338      746F 7920 
 338      6D61 6E64 
 339               	.LC4:
 340 0081 776F 726B 		.string	"work_in=> Estoy mandando la configuracion del robot"
 340      5F69 6E3D 
 340      3E20 4573 
 340      746F 7920 
 340      6D61 6E64 
 341               	.LC5:
 342 00b5 776F 726B 		.string	"work_in=> Estoy mandando la poses actual, Poseactual = %d\n"
 342      5F69 6E3D 
 342      3E20 4573 
 342      746F 7920 
 342      6D61 6E64 
 343               	.LC6:
 344 00f0 776F 726B 		.string	"work_in=> Salgo del IN\n "
 344      5F69 6E3D 
 344      3E20 5361 
 344      6C67 6F20 
 344      6465 6C20 
 345               		.text
 347               	.global	work_in
 349               	work_in:
 159:controlador_Jarboter.c **** 	
 160:controlador_Jarboter.c **** 
 161:controlador_Jarboter.c **** FILE uart_str = FDEV_SETUP_STREAM(uart_putchar, uart_getchar, _FDEV_SETUP_RW);
 162:controlador_Jarboter.c **** FILE lcd_str = FDEV_SETUP_STREAM(lcd_putchar, NULL, _FDEV_SETUP_WRITE);
 163:controlador_Jarboter.c **** 
 164:controlador_Jarboter.c **** 
 165:controlador_Jarboter.c **** int main(void)
 166:controlador_Jarboter.c **** {
 167:controlador_Jarboter.c **** 	int16 numdata,i;
 168:controlador_Jarboter.c **** 	//Variable Timer
 169:controlador_Jarboter.c **** 	uint16 conta=0;
 170:controlador_Jarboter.c **** 	//Variables Fecha
 171:controlador_Jarboter.c **** 	tFecha Fecha;
 172:controlador_Jarboter.c **** 	uint8 SR_RTC;
 173:controlador_Jarboter.c **** 	int16 cont_alarma=0;
 174:controlador_Jarboter.c **** 	//Inicializacion de las Banderas de Interrupcion;
 175:controlador_Jarboter.c **** 	intflags.USB_int		=	1;
 176:controlador_Jarboter.c **** 	intflags.flag_read		=	1;
 177:controlador_Jarboter.c **** 	intflags.flag_write		=	1;
 178:controlador_Jarboter.c **** 	intflags.Timer1_int	    =   1;
 179:controlador_Jarboter.c **** 	intflags.Timer3_int	    =   1;
 180:controlador_Jarboter.c **** 	
 181:controlador_Jarboter.c **** 	
 182:controlador_Jarboter.c **** 	initCard();							//inicializa el Atmega 1280.
 183:controlador_Jarboter.c **** 	uart_init();						//Inicializa la UART a 9600 Bd, tx/rx, 8N1.	
 184:controlador_Jarboter.c **** 	lcd_init();
 185:controlador_Jarboter.c **** 	rtc_init();							//Inicializacion RTC
 186:controlador_Jarboter.c **** 	stdout = stdin = &uart_str;
 187:controlador_Jarboter.c **** 	stderr = &lcd_str;
 188:controlador_Jarboter.c **** 	//Secuencia de pruebas
 189:controlador_Jarboter.c **** 	//Test_perifericos();
 190:controlador_Jarboter.c **** 	
 191:controlador_Jarboter.c **** 	//Led
 192:controlador_Jarboter.c **** 	Led_on(Amarillo);
 193:controlador_Jarboter.c **** 	delay_1s();	
 194:controlador_Jarboter.c **** 	Led_on(Verde);	
 195:controlador_Jarboter.c **** 	delay_1s();	
 196:controlador_Jarboter.c **** 	Led_on(Rojo);	
 197:controlador_Jarboter.c **** 	delay_1s();	
 198:controlador_Jarboter.c **** 	Led_off(Rojo);
 199:controlador_Jarboter.c **** 	Led_off(Verde);
 200:controlador_Jarboter.c **** 	Led_off(Amarillo);
 201:controlador_Jarboter.c **** 	
 202:controlador_Jarboter.c **** 	//Verificacion Tarjetas Controladores de Motores.
 203:controlador_Jarboter.c **** 	
 204:controlador_Jarboter.c **** 	fprintf_P(stderr,PSTR("Verificando Tarjetas PMDs \n"));
 205:controlador_Jarboter.c **** 	if(selftestPMD()!=rcOK)
 206:controlador_Jarboter.c **** 	{
 207:controlador_Jarboter.c **** 		fprintf_P(stderr,PSTR("Apague el controlador \n"));
 208:controlador_Jarboter.c **** 		exit(0);
 209:controlador_Jarboter.c **** 	}
 210:controlador_Jarboter.c **** 	
 211:controlador_Jarboter.c **** 	//Configuracion de los PMDs con Valores de Defecto.
 212:controlador_Jarboter.c **** 	PMDsetupChipSets(PMDTrapezoidalProfile);
 213:controlador_Jarboter.c **** 	Led_off(Verde);	
 214:controlador_Jarboter.c **** 	
 215:controlador_Jarboter.c **** 	//Configuracion de la Memoria RAM externa de los PMDs
 216:controlador_Jarboter.c **** 	Memoryconfig();
 217:controlador_Jarboter.c **** 	
 218:controlador_Jarboter.c **** 	
 219:controlador_Jarboter.c **** 	//Verificacion de los Cables de los Sensores y del cable
 220:controlador_Jarboter.c **** 	//del Boton de Parada de Emergencia
 221:controlador_Jarboter.c **** 	Led_on(Amarillo);
 222:controlador_Jarboter.c **** 	fprintf_P(stderr,PSTR("Verificando Conexiones de Cables \n"));
 223:controlador_Jarboter.c **** 	if(checkconnect()!=rcOK)
 224:controlador_Jarboter.c **** 	{
 225:controlador_Jarboter.c **** 		fprintf_P(stderr,PSTR("Apague el controlador \n"));
 226:controlador_Jarboter.c **** 		exit(0);
 227:controlador_Jarboter.c **** 	}	
 228:controlador_Jarboter.c **** 	Led_off(Amarillo);
 229:controlador_Jarboter.c **** 	
 230:controlador_Jarboter.c **** 	Led_on(Rojo);
 231:controlador_Jarboter.c **** 	fprintf_P(stderr,PSTR("Secuencia de HOME \n"));
 232:controlador_Jarboter.c **** 	go_home();
 233:controlador_Jarboter.c **** 	Led_off(Rojo);
 234:controlador_Jarboter.c **** 	return_id_vector(); /*Obtengo las Poses de la eeprom*/
 235:controlador_Jarboter.c ****     numdata=id_vector[0];
 236:controlador_Jarboter.c ****     if(numdata)
 237:controlador_Jarboter.c ****     {	
 238:controlador_Jarboter.c **** 		for(i=0;i<numdata;i++)
 239:controlador_Jarboter.c **** 			printf("main=> vector de poses, id_vector[%d] = %d \n",i,id_vector[i]);		  
 240:controlador_Jarboter.c **** 	}
 241:controlador_Jarboter.c **** 	
 242:controlador_Jarboter.c **** 	EIFR=0xFF;  /*Borro falsas interrupciones al inizializar PMDs, ver pag 79 del manual atemega1280*/
 243:controlador_Jarboter.c **** 	HostInterruptEnable();
 244:controlador_Jarboter.c **** 
 245:controlador_Jarboter.c **** 	sei();		/* enable interrupts */									
 246:controlador_Jarboter.c **** 	printf("main=> Programa Jarboter Controller. \n");
 247:controlador_Jarboter.c **** 	fprintf(stderr, "Robot Jarboter Controller.\n");
 248:controlador_Jarboter.c **** 	Led_on(Verde);
 249:controlador_Jarboter.c **** 	
 250:controlador_Jarboter.c **** 	
 251:controlador_Jarboter.c **** 	for (;;)
 252:controlador_Jarboter.c **** 	{		
 253:controlador_Jarboter.c **** 		if(!intflags.USB_int)
 254:controlador_Jarboter.c **** 		{
 255:controlador_Jarboter.c **** 		    
 256:controlador_Jarboter.c **** 			intflags.USB_int	= 1;                     	
 257:controlador_Jarboter.c **** 			
 258:controlador_Jarboter.c **** 			if(!intflags.flag_read)			/*llego dato hacia el uC*/
 259:controlador_Jarboter.c **** 			{
 260:controlador_Jarboter.c **** 				intflags.flag_read	= 1;	
 261:controlador_Jarboter.c **** 				Led_off(Verde);								
 262:controlador_Jarboter.c **** 				Led_on(Amarillo);			/*Amarillo Prendido*/										
 263:controlador_Jarboter.c **** 			   	work_out(); 
 264:controlador_Jarboter.c **** 				Led_off(Amarillo);								
 265:controlador_Jarboter.c **** 				Led_on(Verde);								
 266:controlador_Jarboter.c **** 				
 267:controlador_Jarboter.c **** 			}
 268:controlador_Jarboter.c **** 			if(!intflags.flag_write)		/*El PC pide datos del uC*/						
 269:controlador_Jarboter.c **** 			{
 270:controlador_Jarboter.c **** 				intflags.flag_write	= 1;						
 271:controlador_Jarboter.c **** 				Led_off(Verde);								
 272:controlador_Jarboter.c **** 				Led_on(Rojo);				/*Rojo Prendido*/
 273:controlador_Jarboter.c **** 				work_in(); 
 274:controlador_Jarboter.c **** 				delay_1s();
 275:controlador_Jarboter.c **** 				Led_off(Rojo);
 276:controlador_Jarboter.c **** 				Led_on(Verde);								
 277:controlador_Jarboter.c **** 			}
 278:controlador_Jarboter.c **** 		}
 279:controlador_Jarboter.c **** 		if(!intflags.Timer1_int)
 280:controlador_Jarboter.c **** 		{
 281:controlador_Jarboter.c **** 			intflags.Timer1_int=1;	
 282:controlador_Jarboter.c **** 			conta=conta+1;
 283:controlador_Jarboter.c **** 			if (conta==35)  //5min
 284:controlador_Jarboter.c **** 			{
 285:controlador_Jarboter.c **** 				fprintf(stderr, "Robot Jarboter Controller.\n");
 286:controlador_Jarboter.c **** 				Read_Fecha(&Fecha);
 287:controlador_Jarboter.c **** 				if((Fecha.hr & 0x20) != 0)	
 288:controlador_Jarboter.c **** 					fprintf(stderr,"Son las %x:%x:%x PM \n",(Fecha.hr & 0x1F),Fecha.mn,Fecha.sc);
 289:controlador_Jarboter.c **** 				else 
 290:controlador_Jarboter.c **** 					fprintf(stderr,"Son las %x:%x:%x AM \n",(Fecha.hr & 0x1F),Fecha.mn,Fecha.sc);
 291:controlador_Jarboter.c **** 				
 292:controlador_Jarboter.c **** 				conta=0;
 293:controlador_Jarboter.c **** 			}
 294:controlador_Jarboter.c **** 			
 295:controlador_Jarboter.c **** 		}
 296:controlador_Jarboter.c **** 		
 297:controlador_Jarboter.c **** 		if(!intflags.Timer3_int)
 298:controlador_Jarboter.c **** 		{
 299:controlador_Jarboter.c **** 			intflags.Timer3_int=1;
 300:controlador_Jarboter.c **** 			
 301:controlador_Jarboter.c **** 			if (activo_alarma)
 302:controlador_Jarboter.c **** 			{
 303:controlador_Jarboter.c **** 				
 304:controlador_Jarboter.c **** 				cont_alarma++;
 305:controlador_Jarboter.c **** 				
 306:controlador_Jarboter.c **** 				if(cont_alarma==3) //25.165 seg
 307:controlador_Jarboter.c **** 				{
 308:controlador_Jarboter.c **** 					cont_alarma=0;
 309:controlador_Jarboter.c **** 					Read_SR(&SR_RTC);
 310:controlador_Jarboter.c **** 					if((SR_RTC & AL0Mask)!=0)
 311:controlador_Jarboter.c **** 					{
 312:controlador_Jarboter.c **** 						Read_Fecha(&Fecha);						
 313:controlador_Jarboter.c **** 						activo_alarma=0;
 314:controlador_Jarboter.c **** 						buzzer(1); 
 315:controlador_Jarboter.c **** 						printf("main=> Se produjo Alarma=> Ejecutando Tarea programada\n");
 316:controlador_Jarboter.c **** 						RCT_task(rxAlarma.TASK);												
 317:controlador_Jarboter.c **** 						fprintf(stderr,"Se produjo Alarma \n");							
 318:controlador_Jarboter.c **** 						if((Fecha.hr & 0x20) != 0)	
 319:controlador_Jarboter.c **** 							fprintf(stderr,"a las %x:%x:%x PM \n",(Fecha.hr & 0x1F),Fecha.mn,Fecha.sc);
 320:controlador_Jarboter.c **** 						else 
 321:controlador_Jarboter.c **** 							fprintf(stderr,"a las %x:%x:%x AM \n",(Fecha.hr & 0x1F),Fecha.mn,Fecha.sc);
 322:controlador_Jarboter.c **** 							
 323:controlador_Jarboter.c **** 					}
 324:controlador_Jarboter.c **** 				}	
 325:controlador_Jarboter.c **** 			}
 326:controlador_Jarboter.c **** 			
 327:controlador_Jarboter.c **** 		}	
 328:controlador_Jarboter.c **** 		
 329:controlador_Jarboter.c **** 	}
 330:controlador_Jarboter.c **** 	return 0;
 331:controlador_Jarboter.c **** }
 332:controlador_Jarboter.c **** 
 333:controlador_Jarboter.c **** 
 334:controlador_Jarboter.c **** /************************CUERPO DE LAS FUNCIONES*******************************************/
 335:controlador_Jarboter.c **** void work_out(void) 
 336:controlador_Jarboter.c **** {
 337:controlador_Jarboter.c **** 	#ifdef DEBUGPUNTO
 338:controlador_Jarboter.c **** 	int16   eje,punto;
 339:controlador_Jarboter.c **** 	#endif
 340:controlador_Jarboter.c **** 
 341:controlador_Jarboter.c **** 	extern  tFecha        	rxFecha;				/*Contiene la Fecha enviada por el USB*/
 342:controlador_Jarboter.c **** 	extern  tPacket         rxPacket; 				/*Tiene el Paquete recivido por el USB*/
 343:controlador_Jarboter.c **** 	extern  tPacketHeader   rxHeader;				/*El header de ese paquete*/	
 344:controlador_Jarboter.c **** 	extern 	tCommand        rxCommand;				/*Comando enviado por el USB*/
 345:controlador_Jarboter.c **** 	extern  uint16          *rxvector;				/*Es utilizada para generar una trayectoria mediante IDs*/
 346:controlador_Jarboter.c **** 	extern  tAxisSettings   rxAxisSettings[DOF];	/*Configuracio enviada por el USB*/
 347:controlador_Jarboter.c **** 	extern  tTrajectory  	Trajectoryvector;		/*Contiene una trajectoria generada por Ids*/
 348:controlador_Jarboter.c **** 	extern  tTrajectory 	Trajectoryvectorpunto;	/*Utilizada cuando deseo mover el robot con una pose e
 349:controlador_Jarboter.c **** 	extern  tTrajectory   	rxTrajectory;       	/*trayectoria que llega por USB*/
 350:controlador_Jarboter.c **** 	static  PoseRobot    	Pose;					/*Estuctura pose que graba los puntos en eeprom*/
 351:controlador_Jarboter.c **** 	static  int8 			Num_Variables_Trazar=0;	/*Numero de variable a trazar en visual*/
 352:controlador_Jarboter.c **** 	int16					i,maxdata;				/*Para imprimir el vector de IDs*/
 353:controlador_Jarboter.c **** 	tcontrol_RTC 			ctr;					/*Manejo del RTC*/
 354:controlador_Jarboter.c **** 	double grados_Pose;                             /*Almacena pose en grados*/
 355:controlador_Jarboter.c **** 	
 356:controlador_Jarboter.c **** 	rc = receiptPacket();
 357:controlador_Jarboter.c **** 	if(rc != rcOK) 					//Existe algun error?
 358:controlador_Jarboter.c **** 	{   			
 359:controlador_Jarboter.c **** 		printf("work_out=> Codigo de retorno al REcibir los Datos %d = %s \n",rc,rcMsg(rc));
 360:controlador_Jarboter.c **** 		printf("work_out=> Paquete recibido es %s \n",  PacketMsg(rxPacket));
 361:controlador_Jarboter.c **** 		printf("work_out=> La cantidad de datos  del header.datalength %x \n", rxHeader.dataLength);
 362:controlador_Jarboter.c **** 		printf("work_out=> dataChecksum  es %x \n",rxHeader.dataChecksum);
 363:controlador_Jarboter.c **** 		printf("work_out=> headerCheksum %x \n",rxHeader.headerChecksum);
 364:controlador_Jarboter.c **** 	}
 365:controlador_Jarboter.c **** 	switch(rxPacket) 
 366:controlador_Jarboter.c **** 	{   
 367:controlador_Jarboter.c **** 		case PacketTeachPendant :
 368:controlador_Jarboter.c **** 		{
 369:controlador_Jarboter.c **** 		    #ifdef DEBUGPUNTO
 370:controlador_Jarboter.c **** 			for(eje=0;eje<DOF;eje++)
 371:controlador_Jarboter.c **** 			{
 372:controlador_Jarboter.c **** 		        printf("work_out=> El eje es  %s y su pos es %ld \n" ,AxisName((tAxis)eje),rxTrajectory.p
 373:controlador_Jarboter.c **** 			    printf("work_out=> vel  %ld  y su ac  %ld \n" ,rxTrajectory.point[0].axis[eje].velocity,rxTr
 374:controlador_Jarboter.c **** 		    }
 375:controlador_Jarboter.c **** 			printf("work_out=>Invalida Mask= %X \n", rxTrajectory.invalidmask);
 376:controlador_Jarboter.c **** 			printf("work_out=>Tamano %X \n", rxTrajectory.size);
 377:controlador_Jarboter.c **** 		    #endif	
 378:controlador_Jarboter.c **** 			/*Coloco la pose a 0, pues se a movido una poses nueva*/
 379:controlador_Jarboter.c **** 			TXPoseActual=0;
 380:controlador_Jarboter.c **** 			
 381:controlador_Jarboter.c **** 			printf("work_out=> Efectuando funcion teach_pendant_point en PMDrobotics.c  \n");		
 382:controlador_Jarboter.c **** 		    teach_pendant_point(&rxTrajectory,0);	
 383:controlador_Jarboter.c **** 			/*Copia la posicion de los MOTORES a la estructura pose en ram*/
 384:controlador_Jarboter.c **** 			ObtenerPose(&Pose);			    
 385:controlador_Jarboter.c **** 		break;
 386:controlador_Jarboter.c **** 		}
 387:controlador_Jarboter.c **** 		case PacketCommand:
 388:controlador_Jarboter.c **** 		{
 389:controlador_Jarboter.c **** 			#ifdef DEBUGUSB 
 390:controlador_Jarboter.c **** 		    printf("work_out=> el comando es %d => %s \n",rxCommand.CommandOP,CommandMsg(rxCommand));	
 391:controlador_Jarboter.c **** 			#endif	
 392:controlador_Jarboter.c **** 			if(rxCommand.CommandOP==CommandOpenGripper)
 393:controlador_Jarboter.c **** 			{	
 394:controlador_Jarboter.c **** 				openGripper(); 
 395:controlador_Jarboter.c **** 				
 396:controlador_Jarboter.c **** 			
 397:controlador_Jarboter.c **** 			}
 398:controlador_Jarboter.c **** 			if(rxCommand.CommandOP==CommandCloseGripper)
 399:controlador_Jarboter.c **** 			{	
 400:controlador_Jarboter.c **** 				closeGripper(); 
 401:controlador_Jarboter.c **** 				
 402:controlador_Jarboter.c **** 			
 403:controlador_Jarboter.c **** 			}
 404:controlador_Jarboter.c **** 			/*Graba la pose en eeprom*/
 405:controlador_Jarboter.c **** 		    if(rxCommand.CommandOP==CommandSetPoseEEPROM)  			
 406:controlador_Jarboter.c **** 			{  
 407:controlador_Jarboter.c **** 			    
 408:controlador_Jarboter.c **** 				Pose.id=rxCommand.Dato;
 409:controlador_Jarboter.c **** 				TXPoseActual=Pose.id;
 410:controlador_Jarboter.c **** 				#ifdef DEBUGPOSE
 411:controlador_Jarboter.c **** 				printf("work_out=> ID de Pose = %ld \n",rxCommand.Dato);	
 412:controlador_Jarboter.c **** 			    printf("work_out=> Pose->Pos_num = %d   \n",Pose.id);	
 413:controlador_Jarboter.c **** 	            printf("work_out=> Pose->Pos_Waist = %ld  \n ",Pose.Pos_Waist);	
 414:controlador_Jarboter.c **** 	            printf("work_out=> Pose->Pos_Shoulder = %ld  \n ",Pose.Pos_Shoulder);	
 415:controlador_Jarboter.c **** 	            printf("work_out=> Pose->Pos_Elbow = %ld  \n ",Pose.Pos_Elbow);	
 416:controlador_Jarboter.c **** 	            printf("work_out=> Pose->Pos_Pitch = %ld  \n ",Pose.Pos_Pitch);	
 417:controlador_Jarboter.c **** 	            printf("work_out=> Pose->Pos_Roll= %ld  \n ",Pose.Pos_Roll);	
 418:controlador_Jarboter.c **** 				printf("work_out=> Pose->Gripper_Status =%d \n",Pose.Gripper_Status);
 419:controlador_Jarboter.c **** 				#endif	
 420:controlador_Jarboter.c **** 				Pose.Gripper_Status=Estado_gripper();
 421:controlador_Jarboter.c **** 				//No es posible determinar el estado del gripper por interuptores 
 422:controlador_Jarboter.c **** 				//Suponer cerrado con pieza..
 423:controlador_Jarboter.c **** 				if(Pose.Gripper_Status==-1)
 424:controlador_Jarboter.c **** 				{
 425:controlador_Jarboter.c **** 					Pose.Gripper_Status=1;
 426:controlador_Jarboter.c **** 					
 427:controlador_Jarboter.c **** 				}
 428:controlador_Jarboter.c **** 				Adicionar_PoseTWI(Pose); 
 429:controlador_Jarboter.c **** 			}
 430:controlador_Jarboter.c **** 			/*Sobreescribe una poses existente*/
 431:controlador_Jarboter.c **** 		    if(rxCommand.CommandOP==CommandReSetPoseEEPROM)  			
 432:controlador_Jarboter.c **** 			{  
 433:controlador_Jarboter.c **** 			    
 434:controlador_Jarboter.c **** 				Pose.id=rxCommand.Dato;
 435:controlador_Jarboter.c **** 				TXPoseActual=Pose.id;
 436:controlador_Jarboter.c **** 				#ifdef DEBUGPOSE
 437:controlador_Jarboter.c **** 				printf("work_out=> ID de Pose = %ld \n",rxCommand.Dato);	
 438:controlador_Jarboter.c **** 			    printf("work_out=> Pose->Pos_num = %d   \n",Pose.id);	
 439:controlador_Jarboter.c **** 	            printf("work_out=> Pose->Pos_Waist = %ld  \n ",Pose.Pos_Waist);	
 440:controlador_Jarboter.c **** 	            printf("work_out=> Pose->Pos_Shoulder = %ld  \n ",Pose.Pos_Shoulder);	
 441:controlador_Jarboter.c **** 	            printf("work_out=> Pose->Pos_Elbow = %ld  \n ",Pose.Pos_Elbow);	
 442:controlador_Jarboter.c **** 	            printf("work_out=> Pose->Pos_Pitch = %ld  \n ",Pose.Pos_Pitch);	
 443:controlador_Jarboter.c **** 	            printf("work_out=> Pose->Pos_Roll= %ld  \n ",Pose.Pos_Roll);
 444:controlador_Jarboter.c **** 				printf("work_out=> Pose->Gripper_Status =%d \n",Pose.Gripper_Status);
 445:controlador_Jarboter.c **** 				#endif	
 446:controlador_Jarboter.c **** 				Pose.Gripper_Status=Estado_gripper();
 447:controlador_Jarboter.c **** 				//No es posible determinar el estado del gripper por interuptores 
 448:controlador_Jarboter.c **** 				//suponer con pieza
 449:controlador_Jarboter.c **** 				if(Pose.Gripper_Status==-1)
 450:controlador_Jarboter.c **** 				{
 451:controlador_Jarboter.c **** 					Pose.Gripper_Status=1;
 452:controlador_Jarboter.c **** 				}
 453:controlador_Jarboter.c **** 				SobreEscribir_Pose(Pose);
 454:controlador_Jarboter.c **** 				
 455:controlador_Jarboter.c **** 			}
 456:controlador_Jarboter.c **** 			/*Lee la Pose y Se mueve el robot*/
 457:controlador_Jarboter.c **** 			if(rxCommand.CommandOP==CommandGetPoseEEPROM)
 458:controlador_Jarboter.c **** 			{
 459:controlador_Jarboter.c ****                 Leer_PoseTWI(rxCommand.Dato,&Pose);
 460:controlador_Jarboter.c **** 				#ifdef DEBUGPOSE
 461:controlador_Jarboter.c **** 				printf("work_out=> Poseleida->Pos_num = %d \n",Pose.id);	
 462:controlador_Jarboter.c **** 				//cintura
 463:controlador_Jarboter.c **** 				grados_Pose=uPasosTOgradros(&hAxis[AxisWaist].axisSettings,Pose.Pos_Waist,POSICION_TYPE);
 464:controlador_Jarboter.c **** 	            printf("work_out=> Poseleida->Pos_Waist = %ld => %f \n ",Pose.Pos_Waist,grados_Pose);
 465:controlador_Jarboter.c **** 				//hombro
 466:controlador_Jarboter.c **** 				grados_Pose=uPasosTOgradros(&hAxis[AxisShoulder].axisSettings,Pose.Pos_Shoulder,POSICION_TYPE)-
 467:controlador_Jarboter.c **** 				printf("work_out=> Poseleida->Pos_Shoulder = %ld => %f \n ",Pose.Pos_Shoulder,grados_Pose);		
 468:controlador_Jarboter.c **** 				//codo
 469:controlador_Jarboter.c **** 				grados_Pose=uPasosTOgradros(&hAxis[AxisElbow].axisSettings,Pose.Pos_Elbow,POSICION_TYPE)+124;
 470:controlador_Jarboter.c **** 	            printf("work_out=> Poseleida->Pos_Elbow = %ld => %f \n ",Pose.Pos_Elbow,grados_Pose);	
 471:controlador_Jarboter.c **** 				//pitch
 472:controlador_Jarboter.c **** 				grados_Pose=uPasosTOgradros(&hAxis[AxisPitch].axisSettings,Pose.Pos_Pitch,POSICION_TYPE)+170;
 473:controlador_Jarboter.c **** 				printf("work_out=> Poseleida->Pos_Pitch = %ld => %f \n ",Pose.Pos_Pitch,grados_Pose);		
 474:controlador_Jarboter.c **** 	            //roll
 475:controlador_Jarboter.c **** 				grados_Pose=uPasosTOgradros(&hAxis[AxisRoll].axisSettings,Pose.Pos_Roll,POSICION_TYPE);
 476:controlador_Jarboter.c **** 				printf("work_out=> Poseleida->Pos_Roll= %ld => %f \n ",Pose.Pos_Roll,grados_Pose);		
 477:controlador_Jarboter.c **** 				#endif
 478:controlador_Jarboter.c **** 				TXPoseActual=Pose.id;
 479:controlador_Jarboter.c **** 				Pose2rxTrayectoria(&Pose);
 480:controlador_Jarboter.c **** 				#ifdef DEBUGPUNTO
 481:controlador_Jarboter.c **** 				for(eje=0; eje<DOF; eje++)
 482:controlador_Jarboter.c **** 				{
 483:controlador_Jarboter.c **** 					printf("work_out=>  El eje es  %s y su pos es %ld \n" ,AxisName((tReturnCode)eje),Trajectoryve
 484:controlador_Jarboter.c **** 					printf("work_out=>  vel  %ld  y su ac  %ld \n" ,Trajectoryvectorpunto.point[0].axis[eje].veloc
 485:controlador_Jarboter.c **** 				}
 486:controlador_Jarboter.c **** 				printf("work_out=> Invalida Mask= %X \n", Trajectoryvectorpunto.invalidmask);
 487:controlador_Jarboter.c **** 				printf("work_out=> Tamano %X \n", Trajectoryvectorpunto.size);
 488:controlador_Jarboter.c **** 				#endif
 489:controlador_Jarboter.c **** 				teach_pendant_point(&Trajectoryvectorpunto,0);
 490:controlador_Jarboter.c **** 				//Nuevo gripper
 491:controlador_Jarboter.c **** 				if(Pose.Gripper_Status==1)
 492:controlador_Jarboter.c **** 				{
 493:controlador_Jarboter.c **** 					if(GripperActual!=1)
 494:controlador_Jarboter.c **** 					{
 495:controlador_Jarboter.c **** 						closeGripper();
 496:controlador_Jarboter.c **** 						GripperActual=1;
 497:controlador_Jarboter.c **** 					}
 498:controlador_Jarboter.c **** 					
 499:controlador_Jarboter.c **** 					//#ifdef DEBUGPOSE
 500:controlador_Jarboter.c **** 					printf("work_out=> Pose con gripper cerrado\n");	
 501:controlador_Jarboter.c **** 					//#endif
 502:controlador_Jarboter.c **** 				}
 503:controlador_Jarboter.c **** 				if(Pose.Gripper_Status==0)
 504:controlador_Jarboter.c **** 				{
 505:controlador_Jarboter.c **** 					openGripper();
 506:controlador_Jarboter.c **** 					GripperActual=0;
 507:controlador_Jarboter.c **** 					//#ifdef DEBUGPOSE
 508:controlador_Jarboter.c **** 					printf("work_out=> Pose con gripper abierto\n");	
 509:controlador_Jarboter.c **** 					//#endif
 510:controlador_Jarboter.c **** 				}
 511:controlador_Jarboter.c **** 			}
 512:controlador_Jarboter.c **** 			if(rxCommand.CommandOP==CommandEraseEEPROM)
 513:controlador_Jarboter.c **** 			{
 514:controlador_Jarboter.c **** 			    printf("work_out=> Borrando memoria eeprom   \n");	
 515:controlador_Jarboter.c **** 				BorrarEEPROM();
 516:controlador_Jarboter.c **** 				return_id_vector(); //Actualizo el vector
 517:controlador_Jarboter.c **** 			}
 518:controlador_Jarboter.c **** 			if(rxCommand.CommandOP==CommandGetPosesID)
 519:controlador_Jarboter.c **** 			{				
 520:controlador_Jarboter.c **** 				return_id_vector();
 521:controlador_Jarboter.c **** 				#ifdef DEBUGUSB
 522:controlador_Jarboter.c **** 				printf("work_out=> En el proximo IN mando el  vector de IDs\n");	
 523:controlador_Jarboter.c **** 				#endif	
 524:controlador_Jarboter.c **** 			}			
 525:controlador_Jarboter.c **** 			if(rxCommand.CommandOP==CommandGetPoseActual)
 526:controlador_Jarboter.c **** 			{				
 527:controlador_Jarboter.c **** 				#ifdef DEBUGUSB
 528:controlador_Jarboter.c **** 				printf("work_out=> En el proximo IN mando la poses actual, Poseactual = %d\n",TXPoseActual);	
 529:controlador_Jarboter.c **** 				#endif	
 530:controlador_Jarboter.c **** 				
 531:controlador_Jarboter.c **** 				
 532:controlador_Jarboter.c **** 			}	
 533:controlador_Jarboter.c **** 			if(rxCommand.CommandOP==CommandGetFecha)
 534:controlador_Jarboter.c **** 			{
 535:controlador_Jarboter.c **** 				#ifdef DEBUGFECHA
 536:controlador_Jarboter.c **** 			    printf("work_out=> Obtenido Fecha en el uC\n");
 537:controlador_Jarboter.c **** 				#endif
 538:controlador_Jarboter.c ****                 Read_Fecha(&txFecha);
 539:controlador_Jarboter.c **** 				#ifdef DEBUGFECHA
 540:controlador_Jarboter.c **** 				printf("work_out=> txFecha.sc %x\n",txFecha.sc);
 541:controlador_Jarboter.c **** 				printf("work_out=> txFecha.mn %x\n",txFecha.mn);
 542:controlador_Jarboter.c **** 				printf("work_out=> txFecha.hr %x\n",txFecha.hr);
 543:controlador_Jarboter.c **** 				printf("work_out=> txFecha.mo %x\n",txFecha.mo);
 544:controlador_Jarboter.c **** 				printf("work_out=> txFecha.yr %x\n",txFecha.yr);
 545:controlador_Jarboter.c **** 				printf("work_out=> txFecha.dw %x\n",txFecha.dw);
 546:controlador_Jarboter.c **** 				printf("work_out=> txFecha.y2k %x\n",rxFecha.y2k);
 547:controlador_Jarboter.c **** 				#endif
 548:controlador_Jarboter.c **** 				printf("work_out=> Fecha = Hoy es el dia %s %x de %s de 200%x. \n",Dayname(txFecha.dw),txFecha.
 549:controlador_Jarboter.c **** 				if((txFecha.hr & 0x20) != 0)			
 550:controlador_Jarboter.c **** 				    printf("work_out=> Son las %x:%x:%x PM \n",(txFecha.hr & 0x1F),txFecha.mn,txFecha.sc);
 551:controlador_Jarboter.c **** 				else 
 552:controlador_Jarboter.c **** 					printf("work_out=> Son las %x:%x:%x AM \n",(txFecha.hr & 0x1F),txFecha.mn,txFecha.sc);
 553:controlador_Jarboter.c **** 				#ifdef DEBUGUSB
 554:controlador_Jarboter.c **** 				printf("work_out=> En el proximo IN mando esta Fecha hacia el PC\n");
 555:controlador_Jarboter.c **** 				#endif		
 556:controlador_Jarboter.c **** 			    
 557:controlador_Jarboter.c **** 			}
 558:controlador_Jarboter.c **** 			if(rxCommand.CommandOP==CommandGetAxisSettings)
 559:controlador_Jarboter.c **** 			{
 560:controlador_Jarboter.c **** 			    printf("work_out=> Obteniendo configuracion del robot\n");
 561:controlador_Jarboter.c **** 				GetAxissetting((uint8*)TxAxisSettings);
 562:controlador_Jarboter.c **** 				#ifdef DEBUGUSB
 563:controlador_Jarboter.c **** 				printf("work_out=> En el proximo IN mando la configuracion del robot hacia el PC\n");
 564:controlador_Jarboter.c **** 				#endif						
 565:controlador_Jarboter.c **** 			}
 566:controlador_Jarboter.c **** 			if(rxCommand.CommandOP==CommandSetPMDTrace)
 567:controlador_Jarboter.c **** 			{
 568:controlador_Jarboter.c **** 				/*rxCommand.Dato tiene la cantidad de variables a trazar*/
 569:controlador_Jarboter.c **** 				/*Num_Variables_Trazar Sera igual a rxCommand.Dato si cumple con la restricciones*/
 570:controlador_Jarboter.c **** 				/*Obtenemos la cantidad de puntos configurados*/
 571:controlador_Jarboter.c **** 			    printf("work_out=> Configuracion el trazado del robot en los ejes: %d, %d, %d, %d, %d, %d, %
 572:controlador_Jarboter.c **** 				rxCommand.Tracecomand[0].AxisTrace,rxCommand.Tracecomand[1].AxisTrace,
 573:controlador_Jarboter.c **** 				rxCommand.Tracecomand[2].AxisTrace,rxCommand.Tracecomand[3].AxisTrace,				
 574:controlador_Jarboter.c **** 				rxCommand.Tracecomand[4].AxisTrace,rxCommand.Tracecomand[5].AxisTrace,			
 575:controlador_Jarboter.c **** 				rxCommand.Tracecomand[6].AxisTrace,rxCommand.Tracecomand[7].AxisTrace);					
 576:controlador_Jarboter.c **** 				Num_Variables_Trazar=rxCommand.Dato;
 577:controlador_Jarboter.c **** 				SetupAxisTrace(rxCommand);
 578:controlador_Jarboter.c **** 				//Bandera si se desea realizar el trazado sobre una trayectoria.
 579:controlador_Jarboter.c **** 				TRACETrajFlag=rxCommand.TraceTraj;
 580:controlador_Jarboter.c **** 				GetBufferFlag=1;
 581:controlador_Jarboter.c **** 				printf("work_out=> Despues de configurar Num_Variables_Trazar = %d\n",Num_Variables_Trazar);
 582:controlador_Jarboter.c **** 				printf("work_out=> Deseo Trazar Una Trajectoria = %d\n",TRACETrajFlag);
 583:controlador_Jarboter.c **** 				
 584:controlador_Jarboter.c **** 			}
 585:controlador_Jarboter.c **** 			if(rxCommand.CommandOP==CommandGetPMDTrace)
 586:controlador_Jarboter.c **** 			{   
 587:controlador_Jarboter.c **** 			    printf("work_out=> Numero Variables a Trazar = %ld\n",rxCommand.Dato);
 588:controlador_Jarboter.c **** 				/*Copia la informacion a Tracebufferdata*/
 589:controlador_Jarboter.c **** 				//DisplayTraceResults(AxisWaist,rxCommand.Dato);
 590:controlador_Jarboter.c **** 				//TraceResultstoBuffer(rxCommand,&GetBufferFlag);
 591:controlador_Jarboter.c **** 				
 592:controlador_Jarboter.c **** 			}			
 593:controlador_Jarboter.c **** 			if(rxCommand.CommandOP==CommandGetMemory)
 594:controlador_Jarboter.c **** 			{
 595:controlador_Jarboter.c **** 				i=maxavail();
 596:controlador_Jarboter.c **** 				printf("work_out=> La cantidad de memoria ram disponible %d \n",i);
 597:controlador_Jarboter.c **** 				//TEST_EJE=rxCommand.Dato;
 598:controlador_Jarboter.c **** 			}
 599:controlador_Jarboter.c **** 			if(rxCommand.CommandOP==CommandGoHome)
 600:controlador_Jarboter.c **** 			{
 601:controlador_Jarboter.c **** 				printf("work_out=> Ejecutando Nest \n");
 602:controlador_Jarboter.c **** 				go_home();
 603:controlador_Jarboter.c **** 			}
 604:controlador_Jarboter.c **** 			//---NUEVO--- MAY 28 2010//
 605:controlador_Jarboter.c **** 			if(rxCommand.CommandOP==CommandGetSensor)
 606:controlador_Jarboter.c **** 			{
 607:controlador_Jarboter.c **** 				printf("work_out=> Ejecutando Check_signal_Status \n");		
 608:controlador_Jarboter.c **** 				printf("work_out=> En el eje %s el estado de los sensores es:\n" ,AxisName((tReturnCode)rxComma
 609:controlador_Jarboter.c **** 				PMDCheckSignalStatus(rxCommand.Axis,imprimir);  
 610:controlador_Jarboter.c **** 			}
 611:controlador_Jarboter.c **** 			if(rxCommand.CommandOP==CommandGetEventStatus)
 612:controlador_Jarboter.c **** 			{
 613:controlador_Jarboter.c **** 				printf("work_out=> Ejecutando Check_Event_Status \n");
 614:controlador_Jarboter.c **** 				printf("work_out=> En el eje %s Event_status es:\n" ,AxisName((tReturnCode)rxCommand.Axis));
 615:controlador_Jarboter.c **** 				PMDCheckEventStatus(rxCommand.Axis,imprimir);  
 616:controlador_Jarboter.c **** 			}
 617:controlador_Jarboter.c **** 			if(rxCommand.CommandOP==CommandGetAvtivityStatus)
 618:controlador_Jarboter.c **** 			{
 619:controlador_Jarboter.c **** 				printf("work_out=> Ejecutando Check_Activity_Status \n");
 620:controlador_Jarboter.c **** 				printf("work_out=> En el eje %s el Activity_Status es:\n" ,AxisName((tReturnCode)rxCommand.Axis
 621:controlador_Jarboter.c **** 				PMDCheckActivityStatus(rxCommand.Axis,imprimir);  
 622:controlador_Jarboter.c **** 				
 623:controlador_Jarboter.c **** 			}		
 624:controlador_Jarboter.c **** 			if(rxCommand.CommandOP==CommandGetinfomov)
 625:controlador_Jarboter.c **** 			{
 626:controlador_Jarboter.c **** 				infomov(rxCommand.Axis,&position1, &velocity1, &acceleration1, &deceleration, &commandedpositio
 627:controlador_Jarboter.c **** 				&commandedvelocity, &commandedacceleration, &readencoder1, &readerror,&cuentas_encoder,
 628:controlador_Jarboter.c **** 				&micropasos);	
 629:controlador_Jarboter.c **** 			}	
 630:controlador_Jarboter.c **** 			//---NUEVO--- //
 631:controlador_Jarboter.c **** 		break;
 632:controlador_Jarboter.c **** 		}
 633:controlador_Jarboter.c ****         case PacketTrajectory:
 634:controlador_Jarboter.c **** 		{
 635:controlador_Jarboter.c **** 		    #ifdef DEBUGPUNTO
 636:controlador_Jarboter.c **** 			printf("work_out=> Tamano %X \n", rxTrajectory.size);
 637:controlador_Jarboter.c **** 			printf("work_out=> Invalida Mask= %X \n", rxTrajectory.invalidmask);
 638:controlador_Jarboter.c **** 			for(punto=0;punto<rxTrajectory.size;punto++)		  		
 639:controlador_Jarboter.c **** 			{
 640:controlador_Jarboter.c **** 				printf("work_out=> Imprimiendo el punto %d \n" ,punto);
 641:controlador_Jarboter.c **** 		         for(eje=0;eje<DOF;eje++)
 642:controlador_Jarboter.c **** 		        {	
 643:controlador_Jarboter.c **** 		         printf("work_out=>  El eje es  %s y su pos es %ld \n" ,AxisName((tReturnCode)eje),rxTraj
 644:controlador_Jarboter.c **** 			     printf("work_out=>  vel  %ld  y su ac  %ld \n" ,rxTrajectory.point[punto].axis[eje].velocit
 645:controlador_Jarboter.c **** 		        }
 646:controlador_Jarboter.c **** 				if(punto>10)
 647:controlador_Jarboter.c **** 				break;
 648:controlador_Jarboter.c **** 			}
 649:controlador_Jarboter.c **** 			#endif
 650:controlador_Jarboter.c **** 			printf("work_out=> Procesando la trayectoria recibida desde robomosp \n");
 651:controlador_Jarboter.c **** 			PMDprocessTrajectory(&rxTrajectory,TRACETrajFlag);		  
 652:controlador_Jarboter.c **** 		break;
 653:controlador_Jarboter.c **** 		}
 654:controlador_Jarboter.c **** 		case PacketPosesvector:
 655:controlador_Jarboter.c **** 		{	
 656:controlador_Jarboter.c **** 			maxdata=rxvector[0];
 657:controlador_Jarboter.c **** 			#ifdef DEBUGPOSE
 658:controlador_Jarboter.c **** 			printf("work_out=> maxdata=> %d\n",maxdata);
 659:controlador_Jarboter.c **** 			
 660:controlador_Jarboter.c **** 			for(i=0;i<maxdata;i++)
 661:controlador_Jarboter.c **** 				printf("work_out=> rxvector[%d]=> %d\n",i,rxvector[i]);
 662:controlador_Jarboter.c **** 			#endif
 663:controlador_Jarboter.c **** 			Vector2Trajectory(rxvector);
 664:controlador_Jarboter.c **** 			
 665:controlador_Jarboter.c **** 			printf("work_out=> Procesando la trayectoria recivida con rxvector \n");
 666:controlador_Jarboter.c **** 			PMDprocessTrajectory(&Trajectoryvector,TRACETrajFlag);			
 667:controlador_Jarboter.c **** 		break;
 668:controlador_Jarboter.c **** 		}
 669:controlador_Jarboter.c **** 		case PacketFecha:
 670:controlador_Jarboter.c **** 		{
 671:controlador_Jarboter.c **** 			#ifdef DEBUGFECHA
 672:controlador_Jarboter.c **** 			printf("work_out=> rxFecha.sc %x \n",rxFecha.sc);
 673:controlador_Jarboter.c **** 			printf("work_out=> rxFecha.mn %x \n",rxFecha.mn);
 674:controlador_Jarboter.c **** 			printf("work_out=> rxFecha.hr %x \n",rxFecha.hr);
 675:controlador_Jarboter.c **** 			printf("work_out=> rxFecha.dt %x \n",rxFecha.dt);
 676:controlador_Jarboter.c **** 			printf("work_out=> rxFecha.mo %x \n",rxFecha.mo);
 677:controlador_Jarboter.c **** 			printf("work_out=> rxFecha.yr %x \n",rxFecha.yr);
 678:controlador_Jarboter.c **** 			printf("work_out=> rxFecha.dw %x \n",rxFecha.dw);
 679:controlador_Jarboter.c **** 			printf("work_out=> rxFecha.y2k %x \n",rxFecha.y2k);
 680:controlador_Jarboter.c **** 			#endif
 681:controlador_Jarboter.c **** 			printf("work_out=> Ejecutando  write_Fecha \n");			
 682:controlador_Jarboter.c **** 		    write_Fecha(rxFecha);
 683:controlador_Jarboter.c **** 			printf("work_out=> Fecha enviada = Hoy es el dia %s %x de %s de 200%x. \n",Dayname(rxFecha.dw),r
 684:controlador_Jarboter.c **** 			if((rxFecha.hr & 0x20) != 0)			
 685:controlador_Jarboter.c **** 				printf("work_out=> Son las %x:%x:%x PM \n",(rxFecha.hr & 0x1F),rxFecha.mn,rxFecha.sc);
 686:controlador_Jarboter.c **** 			else 
 687:controlador_Jarboter.c **** 				printf("work_out=> Son las %x:%x:%x AM \n",(rxFecha.hr & 0x1F),rxFecha.mn,rxFecha.sc);
 688:controlador_Jarboter.c **** 		break;
 689:controlador_Jarboter.c **** 		}
 690:controlador_Jarboter.c **** 		case PacketAlarma:
 691:controlador_Jarboter.c **** 		{
 692:controlador_Jarboter.c **** 			#ifdef DEBUGFECHA
 693:controlador_Jarboter.c **** 			printf("work_out=> rxAlarma.SCA0 %x \n",rxAlarma.SCA0);
 694:controlador_Jarboter.c **** 			printf("work_out=> rxAlarma.MNA0 %x \n",rxAlarma.MNA0);
 695:controlador_Jarboter.c **** 			printf("work_out=> rxAlarma.HRA0 %x \n",rxAlarma.HRA0);
 696:controlador_Jarboter.c **** 			printf("work_out=> rxAlarma.DTA0 %x \n",rxAlarma.DTA0);
 697:controlador_Jarboter.c **** 			printf("work_out=> rxAlarma.MOA0 %x \n",rxAlarma.MOA0);
 698:controlador_Jarboter.c **** 			printf("work_out=> rxAlarma.PER %x \n",rxAlarma.PER);
 699:controlador_Jarboter.c **** 			#endif
 700:controlador_Jarboter.c **** 			printf("work_out=> Tarea programada => rxAlarma.TASK = %x \n",rxAlarma.TASK);
 701:controlador_Jarboter.c **** 		    write_alarm(rxAlarma);
 702:controlador_Jarboter.c **** 			_delay_ms(20);
 703:controlador_Jarboter.c **** 			read_control(&ctr);
 704:controlador_Jarboter.c **** 			_delay_ms(20);
 705:controlador_Jarboter.c **** 			if(rxAlarma.PER)
 706:controlador_Jarboter.c **** 			{
 707:controlador_Jarboter.c **** 				ctr.INT=RTC_INT(1,1);//PERIODICA
 708:controlador_Jarboter.c **** 				activo_alarma=1;
 709:controlador_Jarboter.c **** 			}
 710:controlador_Jarboter.c **** 			else
 711:controlador_Jarboter.c **** 			{	
 712:controlador_Jarboter.c **** 				ctr.INT=RTC_INT(1,0);//nO PERIODICA
 713:controlador_Jarboter.c **** 				activo_alarma=1;
 714:controlador_Jarboter.c **** 			}	
 715:controlador_Jarboter.c **** 			write_control(ctr);
 716:controlador_Jarboter.c **** 		break;
 717:controlador_Jarboter.c **** 		}
 718:controlador_Jarboter.c **** 		case PacketAxisSettings:
 719:controlador_Jarboter.c **** 		{	//Debo de reconfigurar los PMDs usando la variable rxAxisSettings[DOF]
 720:controlador_Jarboter.c **** 			//rxAxisSettings tiene las configuraciones de default con algunos campos cambiados 
 721:controlador_Jarboter.c **** 			//Segun el usuario
 722:controlador_Jarboter.c **** 			//Tengo que copiar rxAxisSettings a hAxis[0].axisSettings
 723:controlador_Jarboter.c **** 			for(i=0; i<DOF; i++) 
 724:controlador_Jarboter.c **** 				printf("work_out=>  rxAxisSettings[%d].ustepsPerStep= %d \n",i,rxAxisSettings[i].ustepsPerStep)
 725:controlador_Jarboter.c **** 			//Copio la informacion a la eeprom si es diferente y luego la copia a  hAxis[0].axisSettings
 726:controlador_Jarboter.c **** 			if(Axissetting2hAxisHandle((uint8*)rxAxisSettings))
 727:controlador_Jarboter.c **** 			{
 728:controlador_Jarboter.c **** 				//Reconfiguro con la nueva informacion 
 729:controlador_Jarboter.c **** 			PMDsetupChipsets_USB(PMDTrapezoidalProfile); 
 730:controlador_Jarboter.c **** 			}
 731:controlador_Jarboter.c **** 		break;
 732:controlador_Jarboter.c **** 		}
 733:controlador_Jarboter.c **** 	} // switch rxPacket
 734:controlador_Jarboter.c **** 
 735:controlador_Jarboter.c **** } // work
 736:controlador_Jarboter.c **** 
 737:controlador_Jarboter.c **** 
 738:controlador_Jarboter.c **** void work_in(void)
 739:controlador_Jarboter.c **** {
 350               	.LM10:
 351               	.LFBB4:
 352               		push r28
 353 0044 CF93      		push r29
 354 0046 DF93      	/* prologue: function */
 355               	/* frame size = 0 */
 740:controlador_Jarboter.c ****     extern 	tCommand        rxCommand;	
 741:controlador_Jarboter.c **** 	
 742:controlador_Jarboter.c **** 	
 743:controlador_Jarboter.c **** 
 744:controlador_Jarboter.c **** 	
 745:controlador_Jarboter.c **** 	if(ATENDER_INT_IN==1)
 357               		lds r28,ATENDER_INT_IN
 358               		lds r29,(ATENDER_INT_IN)+1
 359 0048 C091 0000 		cpi r28,1
 360 004c D091 0000 		cpc r29,__zero_reg__
 361 0050 C130      		breq .+2
 362 0052 D105      		rjmp .L8
 364 0056 00C0      	.LM12:
 746:controlador_Jarboter.c **** 	{
 747:controlador_Jarboter.c **** 	  
 748:controlador_Jarboter.c ****        if(rc != rcOK) 					//Existe algun error?
 365               	,rc
 366               		lds r25,(rc)+1
 367 0058 8091 0000 		or r24,r25
 368 005c 9091 0000 		breq .L9
 370 0062 01F0      	.LM13:
 749:controlador_Jarboter.c **** 	    {   
 750:controlador_Jarboter.c **** 		
 751:controlador_Jarboter.c **** 		ATENDER_INT_IN=0;  //Para poder imprimier bien tengo que deshabilitar las interupciones por USB.
 371               	ATENDER_INT_IN)+1,__zero_reg__
 372               		sts ATENDER_INT_IN,__zero_reg__
 374 0068 1092 0000 	.LM14:
 752:controlador_Jarboter.c **** 		printf("work_in=> ERROR\n");
 375               	 r24,lo8(.LC0)
 376               		ldi r25,hi8(.LC0)
 377 006c 80E0      		call puts
 379 0070 0E94 0000 	.LM15:
 753:controlador_Jarboter.c **** 		// Volver a atender la interupciones
 754:controlador_Jarboter.c **** 		ATENDER_INT_IN=1;  
 380               	(ATENDER_INT_IN)+1,r29
 381               		sts ATENDER_INT_IN,r28
 382 0074 D093 0000 		rjmp .L8
 383 0078 C093 0000 	.L9:
 385               	.LM16:
 755:controlador_Jarboter.c **** 	    }
 756:controlador_Jarboter.c **** 	    else
 757:controlador_Jarboter.c **** 	    {	
 758:controlador_Jarboter.c **** 			if(rxCommand.CommandOP==CommandGetPosesID)
 386               	24,rxCommand
 387               		lds r25,(rxCommand)+1
 388 007e 8091 0000 		sbiw r24,10
 389 0082 9091 0000 		brne .L10
 391 0088 01F4      	.LM17:
 759:controlador_Jarboter.c **** 			{
 760:controlador_Jarboter.c **** 				ATENDER_INT_IN=0;
 392               	ATENDER_INT_IN)+1,__zero_reg__
 393               		sts ATENDER_INT_IN,__zero_reg__
 395 008e 1092 0000 	.LM18:
 761:controlador_Jarboter.c **** 				printf("work_in=> Estoy mandando el vector de IDs\n");	
 396               	 r24,lo8(.LC1)
 397               		ldi r25,hi8(.LC1)
 398 0092 80E0      		call puts
 400 0096 0E94 0000 	.LM19:
 762:controlador_Jarboter.c **** 				rc=dispatchPacket(PacketPosesvector,(uint8*)id_vector);  
 401               	r22,id_vector
 402               		lds r23,(id_vector)+1
 403 009a 6091 0000 		ldi r24,lo8(9)
 404 009e 7091 0000 		ldi r25,hi8(9)
 405 00a2 89E0      		call dispatchPacket
 406 00a4 90E0      		sts (rc)+1,r25
 407 00a6 0E94 0000 		sts rc,r24
 409 00ae 8093 0000 	.LM20:
 763:controlador_Jarboter.c **** 				printf("work_in=> Salgo del dispatchPacket\n ");			
 410               		ldi r24,lo8(.LC2)
 411               		ldi r25,hi8(.LC2)
 412 00b2 00D0      		in r30,__SP_L__
 413 00b4 80E0      		in r31,__SP_H__
 414 00b6 90E0      		std Z+2,r25
 415 00b8 EDB7      		std Z+1,r24
 416 00ba FEB7      		call printf
 418 00be 8183      	.LM21:
 419 00c0 0E94 0000 		sts (ATENDER_INT_IN)+1,r29
 764:controlador_Jarboter.c **** 				ATENDER_INT_IN=1;		
 420               	ER_INT_IN,r28
 421               		pop __tmp_reg__
 422 00c4 D093 0000 		pop __tmp_reg__
 423 00c8 C093 0000 	.L10:
 425 00ce 0F90      	.LM22:
 426               		lds r24,rxCommand
 765:controlador_Jarboter.c **** 			}
 766:controlador_Jarboter.c **** 			if(rxCommand.CommandOP==CommandGetFecha)
 427               	5,(rxCommand)+1
 428               		sbiw r24,13
 429 00d0 8091 0000 		brne .L11
 431 00d8 0D97      	.LM23:
 432 00da 01F4      		sts (ATENDER_INT_IN)+1,__zero_reg__
 767:controlador_Jarboter.c **** 			{
 768:controlador_Jarboter.c **** 				ATENDER_INT_IN=0;
 433               	TENDER_INT_IN,__zero_reg__
 435 00dc 1092 0000 	.LM24:
 436 00e0 1092 0000 		ldi r24,lo8(.LC3)
 769:controlador_Jarboter.c **** 				printf("work_in=> Estoy mandando la fecha\n");	
 437               	 r25,hi8(.LC3)
 438               		call puts
 440 00e6 90E0      	.LM25:
 441 00e8 0E94 0000 		ldi r24,lo8(10)
 770:controlador_Jarboter.c **** 				rc=dispatchPacket(PacketFecha,(uint8*)&txFecha);  
 442               	r25,hi8(10)
 443               		ldi r22,lo8(txFecha)
 444 00ec 8AE0      		ldi r23,hi8(txFecha)
 445 00ee 90E0      		call dispatchPacket
 446 00f0 60E0      		sts (rc)+1,r25
 447 00f2 70E0      		sts rc,r24
 449 00f8 9093 0000 	.LM26:
 450 00fc 8093 0000 		rcall .
 771:controlador_Jarboter.c **** 				printf("work_in=> Salgo del dispatchPacket\n ");			
 451               	lo8(.LC2)
 452               		ldi r25,hi8(.LC2)
 453 0100 00D0      		in r30,__SP_L__
 454 0102 80E0      		in r31,__SP_H__
 455 0104 90E0      		std Z+2,r25
 456 0106 EDB7      		std Z+1,r24
 457 0108 FEB7      		call printf
 459 010c 8183      	.LM27:
 460 010e 0E94 0000 		ldi r24,lo8(1)
 772:controlador_Jarboter.c **** 				ATENDER_INT_IN=1;		
 461               	i8(1)
 462               		sts (ATENDER_INT_IN)+1,r25
 463 0112 81E0      		sts ATENDER_INT_IN,r24
 464 0114 90E0      		pop __tmp_reg__
 465 0116 9093 0000 		pop __tmp_reg__
 466 011a 8093 0000 	.L11:
 468 0120 0F90      	.LM28:
 469               		lds r24,rxCommand
 773:controlador_Jarboter.c **** 			}
 774:controlador_Jarboter.c **** 			if(rxCommand.CommandOP==CommandGetAxisSettings)
 470               	(rxCommand)+1
 471               		sbiw r24,2
 472 0122 8091 0000 		brne .L12
 474 012a 0297      	.LM29:
 475 012c 01F4      		sts (ATENDER_INT_IN)+1,__zero_reg__
 775:controlador_Jarboter.c **** 			{
 776:controlador_Jarboter.c **** 				ATENDER_INT_IN=0;
 476               	TENDER_INT_IN,__zero_reg__
 478 012e 1092 0000 	.LM30:
 479 0132 1092 0000 		ldi r24,lo8(.LC4)
 777:controlador_Jarboter.c **** 				printf("work_in=> Estoy mandando la configuracion del robot\n");	
 480               	 r25,hi8(.LC4)
 481               		call puts
 483 0138 90E0      	.LM31:
 484 013a 0E94 0000 		ldi r24,lo8(6)
 778:controlador_Jarboter.c **** 				rc=dispatchPacket(PacketAxisSettings,(uint8*)TxAxisSettings);  
 485               	r25,hi8(6)
 486               		ldi r22,lo8(TxAxisSettings)
 487 013e 86E0      		ldi r23,hi8(TxAxisSettings)
 488 0140 90E0      		call dispatchPacket
 489 0142 60E0      		sts (rc)+1,r25
 490 0144 70E0      		sts rc,r24
 492 014a 9093 0000 	.LM32:
 493 014e 8093 0000 		rcall .
 779:controlador_Jarboter.c **** 				printf("work_in=> Salgo del dispatchPacket\n ");			
 494               	lo8(.LC2)
 495               		ldi r25,hi8(.LC2)
 496 0152 00D0      		in r30,__SP_L__
 497 0154 80E0      		in r31,__SP_H__
 498 0156 90E0      		std Z+2,r25
 499 0158 EDB7      		std Z+1,r24
 500 015a FEB7      		call printf
 502 015e 8183      	.LM33:
 503 0160 0E94 0000 		ldi r24,lo8(1)
 780:controlador_Jarboter.c **** 				ATENDER_INT_IN=1;		
 504               	i8(1)
 505               		sts (ATENDER_INT_IN)+1,r25
 506 0164 81E0      		sts ATENDER_INT_IN,r24
 507 0166 90E0      		pop __tmp_reg__
 508 0168 9093 0000 		pop __tmp_reg__
 509 016c 8093 0000 	.L12:
 511 0172 0F90      	.LM34:
 512               		lds r24,rxCommand
 781:controlador_Jarboter.c **** 			}
 782:controlador_Jarboter.c **** 			if(rxCommand.CommandOP==CommandGetPMDTrace)
 513               	(rxCommand)+1
 514               		sbiw r24,12
 515 0174 8091 0000 		brne .L13
 517 017c 0C97      	.LM35:
 518 017e 01F4      		sts (ATENDER_INT_IN)+1,__zero_reg__
 783:controlador_Jarboter.c **** 			{
 784:controlador_Jarboter.c **** 				ATENDER_INT_IN=0;
 519               	TENDER_INT_IN,__zero_reg__
 521 0180 1092 0000 	.LM36:
 522 0184 1092 0000 		lds r24,rxCommand+4
 785:controlador_Jarboter.c **** 				//rc=dispatchPacket(PacketTrace,(uint8*)Tracebufferdata);  
 786:controlador_Jarboter.c **** 				EnvioTrazado2PC(rxCommand.Dato);
 523               	l EnvioTrazado2PC
 525 0188 8091 0000 	.LM37:
 526 018c 0E94 0000 		rcall .
 787:controlador_Jarboter.c **** 				printf("work_in=> Salgo del dispatchPacket\n ");			
 527               	 r24,lo8(.LC2)
 528               		ldi r25,hi8(.LC2)
 529 0190 00D0      		in r30,__SP_L__
 530 0192 80E0      		in r31,__SP_H__
 531 0194 90E0      		std Z+2,r25
 532 0196 EDB7      		std Z+1,r24
 533 0198 FEB7      		call printf
 535 019c 8183      	.LM38:
 536 019e 0E94 0000 		ldi r24,lo8(1)
 788:controlador_Jarboter.c **** 				ATENDER_INT_IN=1;		
 537               	i8(1)
 538               		sts (ATENDER_INT_IN)+1,r25
 539 01a2 81E0      		sts ATENDER_INT_IN,r24
 540 01a4 90E0      		pop __tmp_reg__
 541 01a6 9093 0000 		pop __tmp_reg__
 542 01aa 8093 0000 	.L13:
 544 01b0 0F90      	.LM39:
 545               		lds r24,rxCommand
 789:controlador_Jarboter.c **** 			}
 790:controlador_Jarboter.c **** 			if(rxCommand.CommandOP==CommandGetPoseActual)
 546               	(rxCommand)+1
 547               		sbiw r24,8
 548 01b2 8091 0000 		brne .L8
 550 01ba 0897      	.LM40:
 551 01bc 01F4      		sts (ATENDER_INT_IN)+1,__zero_reg__
 791:controlador_Jarboter.c **** 			{
 792:controlador_Jarboter.c **** 				ATENDER_INT_IN=0;
 552               	TENDER_INT_IN,__zero_reg__
 554 01be 1092 0000 	.LM41:
 555 01c2 1092 0000 		rcall .
 793:controlador_Jarboter.c **** 				printf("work_in=> Estoy mandando la poses actual, Poseactual = %d\n",TXPoseActual);	
 556               	ll .
 557               		ldi r24,lo8(.LC5)
 558 01c6 00D0      		ldi r25,hi8(.LC5)
 559 01c8 00D0      		in r30,__SP_L__
 560 01ca 80E0      		in r31,__SP_H__
 561 01cc 90E0      		std Z+2,r25
 562 01ce EDB7      		std Z+1,r24
 563 01d0 FEB7      		lds r24,TXPoseActual
 564 01d2 9283      		lds r25,(TXPoseActual)+1
 565 01d4 8183      		std Z+4,r25
 566 01d6 8091 0000 		std Z+3,r24
 567 01da 9091 0000 		call printf
 569 01e0 8383      	.LM42:
 570 01e2 0E94 0000 		pop __tmp_reg__
 794:controlador_Jarboter.c **** 				rc=dispatchPacket(Packetuint16,(uint8*)&TXPoseActual);  
 571               	_
 572               		pop __tmp_reg__
 573 01e6 0F90      		pop __tmp_reg__
 574 01e8 0F90      		ldi r24,lo8(13)
 575 01ea 0F90      		ldi r25,hi8(13)
 576 01ec 0F90      		ldi r22,lo8(TXPoseActual)
 577 01ee 8DE0      		ldi r23,hi8(TXPoseActual)
 578 01f0 90E0      		call dispatchPacket
 579 01f2 60E0      		sts (rc)+1,r25
 580 01f4 70E0      		sts rc,r24
 582 01fa 9093 0000 	.LM43:
 583 01fe 8093 0000 		rcall .
 795:controlador_Jarboter.c **** 				printf("work_in=> Salgo del dispatchPacket\n ");			
 584               	.LC2)
 585               		ldi r25,hi8(.LC2)
 586 0202 00D0      		in r30,__SP_L__
 587 0204 80E0      		in r31,__SP_H__
 588 0206 90E0      		std Z+2,r25
 589 0208 EDB7      		std Z+1,r24
 590 020a FEB7      		call printf
 592 020e 8183      	.LM44:
 593 0210 0E94 0000 		ldi r24,lo8(1)
 796:controlador_Jarboter.c **** 				ATENDER_INT_IN=1;		
 594               	i8(1)
 595               		sts (ATENDER_INT_IN)+1,r25
 596 0214 81E0      		sts ATENDER_INT_IN,r24
 597 0216 90E0      		pop __tmp_reg__
 598 0218 9093 0000 		pop __tmp_reg__
 599 021c 8093 0000 	.L8:
 601 0222 0F90      	.LM45:
 602               		rcall .
 797:controlador_Jarboter.c **** 			}
 798:controlador_Jarboter.c **** 	   }
 799:controlador_Jarboter.c **** 	}
 800:controlador_Jarboter.c **** 	printf("work_in=> Salgo del IN\n ");			
 603               	lo8(.LC6)
 604               		ldi r25,hi8(.LC6)
 605 0224 00D0      		in r30,__SP_L__
 606 0226 80E0      		in r31,__SP_H__
 607 0228 90E0      		std Z+2,r25
 608 022a EDB7      		std Z+1,r24
 609 022c FEB7      		call printf
 610 022e 9283      		pop __tmp_reg__
 611 0230 8183      		pop __tmp_reg__
 612 0232 0E94 0000 	/* epilogue start */
 614 0238 0F90      	.LM46:
 615               		pop r29
 801:controlador_Jarboter.c **** }
 616               	
 618 023a DF91      	.Lscope4:
 619 023c CF91      		.data
 620 023e 0895      	.LC7:
 621               		.string	"work_out=> Codigo de retorno al REcibir los Datos %d = %s \n"
 622               	.LC8:
 623               		.string	"work_out=> Paquete recibido es %s \n"
 624               	.LC9:
 625 0109 776F 726B 		.string	"work_out=> La cantidad de datos  del header.datalength %x \n"
 625      5F6F 7574 
 625      3D3E 2043 
 625      6F64 6967 
 625      6F20 6465 
 626               	.LC10:
 627 0145 776F 726B 		.string	"work_out=> dataChecksum  es %x \n"
 627      5F6F 7574 
 627      3D3E 2050 
 627      6171 7565 
 627      7465 2072 
 628               	.LC11:
 629 0169 776F 726B 		.string	"work_out=> headerCheksum %x \n"
 629      5F6F 7574 
 629      3D3E 204C 
 629      6120 6361 
 629      6E74 6964 
 630               	.LC12:
 631 01a5 776F 726B 		.string	"work_out=> El eje es  %s y su pos es %ld \n"
 631      5F6F 7574 
 631      3D3E 2064 
 631      6174 6143 
 631      6865 636B 
 632               	.LC13:
 633 01c6 776F 726B 		.string	"work_out=> vel  %ld  y su ac  %ld \n"
 633      5F6F 7574 
 633      3D3E 2068 
 633      6561 6465 
 633      7243 6865 
 634               	.LC14:
 635 01e4 776F 726B 		.string	"work_out=>Invalida Mask= %X \n"
 635      5F6F 7574 
 635      3D3E 2045 
 635      6C20 656A 
 635      6520 6573 
 636               	.LC15:
 637 020f 776F 726B 		.string	"work_out=>Tamano %X \n"
 637      5F6F 7574 
 637      3D3E 2076 
 637      656C 2020 
 637      256C 6420 
 638               	.LC16:
 639 0233 776F 726B 		.ascii	"work"
 639      5F6F 7574 
 639      3D3E 496E 
 639      7661 6C69 
 639      6461 204D 
 640               		.string	"_out=> Efectuando funcion teach_pendant_point en PMDrobotics.c  "
 641 0251 776F 726B 	.LC17:
 641      5F6F 7574 
 641      3D3E 5461 
 641      6D61 6E6F 
 641      2025 5820 
 642               		.string	"work_out=> ID de Pose = %ld \n"
 643 0267 776F 726B 	.LC18:
 644 026b 5F6F 7574 		.string	"work_out=> Pose->Pos_num = %d   \n"
 644      3D3E 2045 
 644      6665 6374 
 644      7561 6E64 
 644      6F20 6675 
 645               	.LC19:
 646 02ac 776F 726B 		.string	"work_out=> Pose->Pos_Waist = %ld  \n "
 646      5F6F 7574 
 646      3D3E 2049 
 646      4420 6465 
 646      2050 6F73 
 647               	.LC20:
 648 02ca 776F 726B 		.string	"work_out=> Pose->Pos_Shoulder = %ld  \n "
 648      5F6F 7574 
 648      3D3E 2050 
 648      6F73 652D 
 648      3E50 6F73 
 649               	.LC21:
 650 02ec 776F 726B 		.string	"work_out=> Pose->Pos_Elbow = %ld  \n "
 650      5F6F 7574 
 650      3D3E 2050 
 650      6F73 652D 
 650      3E50 6F73 
 651               	.LC22:
 652 0311 776F 726B 		.string	"work_out=> Pose->Pos_Pitch = %ld  \n "
 652      5F6F 7574 
 652      3D3E 2050 
 652      6F73 652D 
 652      3E50 6F73 
 653               	.LC23:
 654 0339 776F 726B 		.string	"work_out=> Pose->Pos_Roll= %ld  \n "
 654      5F6F 7574 
 654      3D3E 2050 
 654      6F73 652D 
 654      3E50 6F73 
 655               	.LC24:
 656 035e 776F 726B 		.string	"work_out=> Pose->Gripper_Status =%d \n"
 656      5F6F 7574 
 656      3D3E 2050 
 656      6F73 652D 
 656      3E50 6F73 
 657               	.LC25:
 658 0383 776F 726B 		.string	"work_out=> Poseleida->Pos_num = %d \n"
 658      5F6F 7574 
 658      3D3E 2050 
 658      6F73 652D 
 658      3E50 6F73 
 659               	.LC26:
 660 03a6 776F 726B 		.string	"work_out=> Poseleida->Pos_Waist = %ld => %f \n "
 660      5F6F 7574 
 660      3D3E 2050 
 660      6F73 652D 
 660      3E47 7269 
 661               	.LC27:
 662 03cc 776F 726B 		.string	"work_out=> Poseleida->Pos_Shoulder = %ld => %f \n "
 662      5F6F 7574 
 662      3D3E 2050 
 662      6F73 656C 
 662      6569 6461 
 663               	.LC28:
 664 03f1 776F 726B 		.string	"work_out=> Poseleida->Pos_Elbow = %ld => %f \n "
 664      5F6F 7574 
 664      3D3E 2050 
 664      6F73 656C 
 664      6569 6461 
 665               	.LC29:
 666 0420 776F 726B 		.string	"work_out=> Poseleida->Pos_Pitch = %ld => %f \n "
 666      5F6F 7574 
 666      3D3E 2050 
 666      6F73 656C 
 666      6569 6461 
 667               	.LC30:
 668 0452 776F 726B 		.string	"work_out=> Poseleida->Pos_Roll= %ld => %f \n "
 668      5F6F 7574 
 668      3D3E 2050 
 668      6F73 656C 
 668      6569 6461 
 669               	.LC31:
 670 0481 776F 726B 		.string	"work_out=>  El eje es  %s y su pos es %ld \n"
 670      5F6F 7574 
 670      3D3E 2050 
 670      6F73 656C 
 670      6569 6461 
 671               	.LC32:
 672 04b0 776F 726B 		.string	"work_out=>  vel  %ld  y su ac  %ld \n"
 672      5F6F 7574 
 672      3D3E 2050 
 672      6F73 656C 
 672      6569 6461 
 673               	.LC33:
 674 04dd 776F 726B 		.string	"work_out=> Invalida Mask= %X \n"
 674      5F6F 7574 
 674      3D3E 2020 
 674      456C 2065 
 674      6A65 2065 
 675               	.LC34:
 676 0509 776F 726B 		.string	"work_out=> Tamano %X \n"
 676      5F6F 7574 
 676      3D3E 2020 
 676      7665 6C20 
 676      2025 6C64 
 677               	.LC35:
 678 052e 776F 726B 		.string	"work_out=> Pose con gripper cerrado"
 678      5F6F 7574 
 678      3D3E 2049 
 678      6E76 616C 
 678      6964 6120 
 679               	.LC36:
 680 054d 776F 726B 		.string	"work_out=> Pose con gripper abierto"
 680      5F6F 7574 
 680      3D3E 2054 
 680      616D 616E 
 680      6F20 2558 
 681               	.LC37:
 682 0564 776F 726B 		.string	"work_out=> Borrando memoria eeprom   "
 682      5F6F 7574 
 682      3D3E 2050 
 682      6F73 6520 
 682      636F 6E20 
 683               	.LC38:
 684 0588 776F 726B 		.string	"work_out=> Fecha = Hoy es el dia %s %x de %s de 200%x. \n"
 684      5F6F 7574 
 684      3D3E 2050 
 684      6F73 6520 
 684      636F 6E20 
 685               	.LC39:
 686 05ac 776F 726B 		.string	"work_out=> Son las %x:%x:%x PM \n"
 686      5F6F 7574 
 686      3D3E 2042 
 686      6F72 7261 
 686      6E64 6F20 
 687               	.LC40:
 688 05d2 776F 726B 		.string	"work_out=> Son las %x:%x:%x AM \n"
 688      5F6F 7574 
 688      3D3E 2046 
 688      6563 6861 
 688      203D 2048 
 689               	.LC41:
 690 060b 776F 726B 		.string	"work_out=> Obteniendo configuracion del robot"
 690      5F6F 7574 
 690      3D3E 2053 
 690      6F6E 206C 
 690      6173 2025 
 691               	.LC42:
 692 062c 776F 726B 		.ascii	"work_out=> Configuracion e"
 692      5F6F 7574 
 692      3D3E 2053 
 692      6F6E 206C 
 692      6173 2025 
 693               		.string	"l trazado del robot en los ejes: %d, %d, %d, %d, %d, %d, %d, %d\n"
 694 064d 776F 726B 	.LC43:
 694      5F6F 7574 
 694      3D3E 204F 
 694      6274 656E 
 694      6965 6E64 
 695               		.string	"work_out=> Despues de configurar Num_Variables_Trazar = %d\n"
 696 067b 776F 726B 	.LC44:
 696      5F6F 7574 
 696      3D3E 2043 
 696      6F6E 6669 
 696      6775 7261 
 697 0695 6C20 7472 		.string	"work_out=> Deseo Trazar Una Trajectoria = %d\n"
 697      617A 6164 
 697      6F20 6465 
 697      6C20 726F 
 697      626F 7420 
 698               	.LC45:
 699 06d6 776F 726B 		.string	"work_out=> Numero Variables a Trazar = %ld\n"
 699      5F6F 7574 
 699      3D3E 2044 
 699      6573 7075 
 699      6573 2064 
 700               	.LC46:
 701 0712 776F 726B 		.string	"work_out=> La cantidad de memoria ram disponible %d \n"
 701      5F6F 7574 
 701      3D3E 2044 
 701      6573 656F 
 701      2054 7261 
 702               	.LC47:
 703 0740 776F 726B 		.string	"work_out=> Ejecutando Nest "
 703      5F6F 7574 
 703      3D3E 204E 
 703      756D 6572 
 703      6F20 5661 
 704               	.LC48:
 705 076c 776F 726B 		.string	"work_out=> Ejecutando Check_signal_Status "
 705      5F6F 7574 
 705      3D3E 204C 
 705      6120 6361 
 705      6E74 6964 
 706               	.LC49:
 707 07a2 776F 726B 		.string	"work_out=> En el eje %s el estado de los sensores es:\n"
 707      5F6F 7574 
 707      3D3E 2045 
 707      6A65 6375 
 707      7461 6E64 
 708               	.LC50:
 709 07be 776F 726B 		.string	"work_out=> Ejecutando Check_Event_Status "
 709      5F6F 7574 
 709      3D3E 2045 
 709      6A65 6375 
 709      7461 6E64 
 710               	.LC51:
 711 07e9 776F 726B 		.string	"work_out=> En el eje %s Event_status es:\n"
 711      5F6F 7574 
 711      3D3E 2045 
 711      6E20 656C 
 711      2065 6A65 
 712               	.LC52:
 713 0820 776F 726B 		.string	"work_out=> Ejecutando Check_Activity_Status "
 713      5F6F 7574 
 713      3D3E 2045 
 713      6A65 6375 
 713      7461 6E64 
 714               	.LC53:
 715 084a 776F 726B 		.string	"work_out=> En el eje %s el Activity_Status es:\n"
 715      5F6F 7574 
 715      3D3E 2045 
 715      6E20 656C 
 715      2065 6A65 
 716               	.LC54:
 717 0874 776F 726B 		.string	"work_out=> Imprimiendo el punto %d \n"
 717      5F6F 7574 
 717      3D3E 2045 
 717      6A65 6375 
 717      7461 6E64 
 718               	.LC55:
 719 08a1 776F 726B 		.string	"work_out=> Procesando la trayectoria recibida desde robomosp "
 719      5F6F 7574 
 719      3D3E 2045 
 719      6E20 656C 
 719      2065 6A65 
 720               	.LC56:
 721 08d1 776F 726B 		.string	"work_out=> maxdata=> %d\n"
 721      5F6F 7574 
 721      3D3E 2049 
 721      6D70 7269 
 721      6D69 656E 
 722               	.LC57:
 723 08f6 776F 726B 		.string	"work_out=> rxvector[%d]=> %d\n"
 723      5F6F 7574 
 723      3D3E 2050 
 723      726F 6365 
 723      7361 6E64 
 724               	.LC58:
 725 0934 776F 726B 		.string	"work_out=> Procesando la trayectoria recivida con rxvector "
 725      5F6F 7574 
 725      3D3E 206D 
 725      6178 6461 
 725      7461 3D3E 
 726               	.LC59:
 727 094d 776F 726B 		.string	"work_out=> Ejecutando  write_Fecha "
 727      5F6F 7574 
 727      3D3E 2072 
 727      7876 6563 
 727      746F 725B 
 728               	.LC60:
 729 096b 776F 726B 		.string	"work_out=> Fecha enviada = Hoy es el dia %s %x de %s de 200%x. \n"
 729      5F6F 7574 
 729      3D3E 2050 
 729      726F 6365 
 729      7361 6E64 
 730               	.LC61:
 731 09a7 776F 726B 		.string	"work_out=> Tarea programada => rxAlarma.TASK = %x \n"
 731      5F6F 7574 
 731      3D3E 2045 
 731      6A65 6375 
 731      7461 6E64 
 732               	.LC62:
 733 09cb 776F 726B 		.string	"work_out=>  rxAxisSettings[%d].ustepsPerStep= %d \n"
 733      5F6F 7574 
 733      3D3E 2046 
 733      6563 6861 
 733      2065 6E76 
 734               		.text
 736               	.global	work_out
 738               	work_out:
 740               	.LM47:
 741               	.LFBB5:
 742               		push r2
 743               		push r3
 744               		push r4
 745               		push r5
 746 0240 2F92      		push r6
 747 0242 3F92      		push r7
 748 0244 4F92      		push r8
 749 0246 5F92      		push r9
 750 0248 6F92      		push r10
 751 024a 7F92      		push r11
 752 024c 8F92      		push r12
 753 024e 9F92      		push r13
 754 0250 AF92      		push r14
 755 0252 BF92      		push r15
 756 0254 CF92      		push r16
 757 0256 DF92      		push r17
 758 0258 EF92      		push r29
 759 025a FF92      		push r28
 760 025c 0F93      		rcall .
 761 025e 1F93      		rcall .
 762 0260 DF93      		push __tmp_reg__
 763 0262 CF93      		in r28,__SP_L__
 764 0264 00D0      		in r29,__SP_H__
 765 0266 00D0      	/* prologue: function */
 766 0268 0F92      	/* frame size = 5 */
 768 026c DEB7      	.LM48:
 769               		call receiptPacket
 770               		movw r16,r24
 771               		sts (rc)+1,r25
 772               		sts rc,r24
 774 0272 8C01      	.LM49:
 775 0274 9093 0000 		sbiw r24,0
 776 0278 8093 0000 		brne .+2
 777               		rjmp .L16
 779 027c 0097      	.LM50:
 780 027e 01F4      		call rcMsg
 781 0280 00C0      		rcall .
 782               		rcall .
 783               		rcall .
 784 0282 0E94 0000 		in r30,__SP_L__
 785 0286 00D0      		in r31,__SP_H__
 786 0288 00D0      		adiw r30,1
 787 028a 00D0      		ldi r18,lo8(.LC7)
 788 028c EDB7      		ldi r19,hi8(.LC7)
 789 028e FEB7      		in r26,__SP_L__
 790 0290 3196      		in r27,__SP_H__
 791 0292 20E0      		adiw r26,1+1
 792 0294 30E0      		st X,r19
 793 0296 ADB7      		st -X,r18
 794 0298 BEB7      		sbiw r26,1
 795 029a 1296      		std Z+3,r17
 796 029c 3C93      		std Z+2,r16
 797 029e 2E93      		std Z+5,r25
 798 02a0 1197      		std Z+4,r24
 799 02a2 1383      		call printf
 801 02a6 9583      	.LM51:
 802 02a8 8483      		in r30,__SP_L__
 803 02aa 0E94 0000 		in r31,__SP_H__
 804               		adiw r30,6
 805               		in __tmp_reg__,__SREG__
 806 02ae EDB7      		cli
 807 02b0 FEB7      		out __SP_H__,r31
 808 02b2 3696      		out __SREG__,__tmp_reg__
 809 02b4 0FB6      		out __SP_L__,r30
 810 02b6 F894      		lds r24,rxPacket
 811 02b8 FEBF      		lds r25,(rxPacket)+1
 812 02ba 0FBE      		call PacketMsg
 813 02bc EDBF      		rcall .
 814 02be 8091 0000 		rcall .
 815 02c2 9091 0000 		ldi r18,lo8(.LC8)
 816 02c6 0E94 0000 		ldi r19,hi8(.LC8)
 817 02ca 00D0      		in r26,__SP_L__
 818 02cc 00D0      		in r27,__SP_H__
 819 02ce 20E0      		adiw r26,1+1
 820 02d0 30E0      		st X,r19
 821 02d2 ADB7      		st -X,r18
 822 02d4 BEB7      		sbiw r26,1
 823 02d6 1296      		adiw r26,3+1
 824 02d8 3C93      		st X,r25
 825 02da 2E93      		st -X,r24
 826 02dc 1197      		sbiw r26,3
 827 02de 1496      		call printf
 829 02e2 8E93      	.LM52:
 830 02e4 1397      		ldi r24,lo8(.LC9)
 831 02e6 0E94 0000 		ldi r25,hi8(.LC9)
 832               		in r30,__SP_L__
 833               		in r31,__SP_H__
 834 02ea 80E0      		std Z+2,r25
 835 02ec 90E0      		std Z+1,r24
 836 02ee EDB7      		lds r24,rxHeader+2
 837 02f0 FEB7      		lds r25,(rxHeader+2)+1
 838 02f2 9283      		std Z+4,r25
 839 02f4 8183      		std Z+3,r24
 840 02f6 8091 0000 		call printf
 842 02fe 9483      	.LM53:
 843 0300 8383      		ldi r24,lo8(.LC10)
 844 0302 0E94 0000 		ldi r25,hi8(.LC10)
 845               		in r26,__SP_L__
 846               		in r27,__SP_H__
 847 0306 80E0      		adiw r26,1+1
 848 0308 90E0      		st X,r25
 849 030a ADB7      		st -X,r24
 850 030c BEB7      		sbiw r26,1
 851 030e 1296      		lds r24,rxHeader+4
 852 0310 9C93      		lds r25,(rxHeader+4)+1
 853 0312 8E93      		adiw r26,3+1
 854 0314 1197      		st X,r25
 855 0316 8091 0000 		st -X,r24
 856 031a 9091 0000 		sbiw r26,3
 857 031e 1496      		call printf
 859 0322 8E93      	.LM54:
 860 0324 1397      		ldi r24,lo8(.LC11)
 861 0326 0E94 0000 		ldi r25,hi8(.LC11)
 862               		in r30,__SP_L__
 863               		in r31,__SP_H__
 864 032a 80E0      		std Z+2,r25
 865 032c 90E0      		std Z+1,r24
 866 032e EDB7      		lds r24,rxHeader+6
 867 0330 FEB7      		lds r25,(rxHeader+6)+1
 868 0332 9283      		std Z+4,r25
 869 0334 8183      		std Z+3,r24
 870 0336 8091 0000 		call printf
 871 033a 9091 0000 		pop __tmp_reg__
 872 033e 9483      		pop __tmp_reg__
 873 0340 8383      		pop __tmp_reg__
 874 0342 0E94 0000 		pop __tmp_reg__
 875 0346 0F90      	.L16:
 877 034a 0F90      	.LM55:
 878 034c 0F90      		lds r24,rxPacket
 879               		lds r25,(rxPacket)+1
 880               		cpi r24,6
 881               		cpc r25,__zero_reg__
 882 034e 8091 0000 		brne .+4
 883 0352 9091 0000 		jmp .L21
 884 0356 8630      		cpi r24,7
 885 0358 9105      		cpc r25,__zero_reg__
 886 035a 01F4      		brge .L25
 887 035c 0C94 0000 		cpi r24,3
 888 0360 8730      		cpc r25,__zero_reg__
 889 0362 9105      		brne .+2
 890 0364 04F4      		rjmp .L19
 891 0366 8330      		cpi r24,4
 892 0368 9105      		cpc r25,__zero_reg__
 893 036a 01F4      		breq .L20
 894 036c 00C0      		sbiw r24,1
 895 036e 8430      		breq .+4
 896 0370 9105      		jmp .L61
 897 0372 01F0      		rjmp .L73
 898 0374 0197      	.L25:
 899 0376 01F0      		cpi r24,10
 900 0378 0C94 0000 		cpc r25,__zero_reg__
 901 037c 00C0      		brne .+4
 902               		jmp .L23
 903 037e 8A30      		cpi r24,11
 904 0380 9105      		cpc r25,__zero_reg__
 905 0382 01F4      		brne .+4
 906 0384 0C94 0000 		jmp .L24
 907 0388 8B30      		sbiw r24,9
 908 038a 9105      		breq .+4
 909 038c 01F4      		jmp .L61
 910 038e 0C94 0000 		jmp .L74
 911 0392 0997      	.L20:
 912 0394 01F0      		clr r12
 913 0396 0C94 0000 		clr r13
 915               	.LM56:
 916 039e CC24      		ldi r30,lo8(.LC12)
 917 03a0 DD24      		mov r8,r30
 918               		ldi r30,hi8(.LC12)
 919               		mov r9,r30
 921 03a4 8E2E      	.LM57:
 922 03a6 E0E0      		ldi r23,lo8(.LC13)
 923 03a8 9E2E      		mov r10,r23
 924               		ldi r23,hi8(.LC13)
 925               		mov r11,r23
 926 03aa 70E0      	.L26:
 928 03ae 70E0      	.LM58:
 929 03b0 B72E      		movw r24,r12
 930               		call AxisName
 931               		in r18,__SP_L__
 932               		in r19,__SP_H__
 933 03b2 C601      		subi r18,lo8(-(-8))
 934 03b4 0E94 0000 		sbci r19,hi8(-(-8))
 935 03b8 2DB7      		in __tmp_reg__,__SREG__
 936 03ba 3EB7      		cli
 937 03bc 2850      		out __SP_H__,r19
 938 03be 3040      		out __SREG__,__tmp_reg__
 939 03c0 0FB6      		out __SP_L__,r18
 940 03c2 F894      		subi r18,lo8(-(1))
 941 03c4 3EBF      		sbci r19,hi8(-(1))
 942 03c6 0FBE      		in r26,__SP_L__
 943 03c8 2DBF      		in r27,__SP_H__
 944 03ca 2F5F      		adiw r26,1+1
 945 03cc 3F4F      		st X,r9
 946 03ce ADB7      		st -X,r8
 947 03d0 BEB7      		sbiw r26,1
 948 03d2 1296      		movw r30,r18
 949 03d4 9C92      		std Z+3,r25
 950 03d6 8E92      		std Z+2,r24
 951 03d8 1197      		lds r30,rxTrajectory+4
 952 03da F901      		lds r31,(rxTrajectory+4)+1
 953 03dc 9383      		movw r16,r12
 954 03de 8283      		lsl r16
 955 03e0 E091 0000 		rol r17
 956 03e4 F091 0000 		add r16,r12
 957 03e8 8601      		adc r17,r13
 958 03ea 000F      		movw r14,r16
 959 03ec 111F      		lsl r14
 960 03ee 0C0D      		rol r15
 961 03f0 1D1D      		lsl r14
 962 03f2 7801      		rol r15
 963 03f4 EE0C      		add r30,r14
 964 03f6 FF1C      		adc r31,r15
 965 03f8 EE0C      		ld r24,Z
 966 03fa FF1C      		ldd r25,Z+1
 967 03fc EE0D      		ldd r26,Z+2
 968 03fe FF1D      		ldd r27,Z+3
 969 0400 8081      		movw r30,r18
 970 0402 9181      		std Z+4,r24
 971 0404 A281      		std Z+5,r25
 972 0406 B381      		std Z+6,r26
 973 0408 F901      		std Z+7,r27
 974 040a 8483      		call printf
 976 040e A683      	.LM59:
 977 0410 B783      		lds r30,rxTrajectory+4
 978 0412 0E94 0000 		lds r31,(rxTrajectory+4)+1
 979               		rcall .
 980               		in r18,__SP_L__
 981 0416 E091 0000 		in r19,__SP_H__
 982 041a F091 0000 		subi r18,lo8(-(1))
 983 041e 00D0      		sbci r19,hi8(-(1))
 984 0420 2DB7      		in r26,__SP_L__
 985 0422 3EB7      		in r27,__SP_H__
 986 0424 2F5F      		adiw r26,1+1
 987 0426 3F4F      		st X,r11
 988 0428 ADB7      		st -X,r10
 989 042a BEB7      		sbiw r26,1
 990 042c 1296      		subi r16,lo8(-(1))
 991 042e BC92      		sbci r17,hi8(-(1))
 992 0430 AE92      		lsl r16
 993 0432 1197      		rol r17
 994 0434 0F5F      		lsl r16
 995 0436 1F4F      		rol r17
 996 0438 000F      		add r16,r30
 997 043a 111F      		adc r17,r31
 998 043c 000F      		movw r26,r16
 999 043e 111F      		ld r20,X+
 1000 0440 0E0F      		ld r21,X+
 1001 0442 1F1F      		ld r22,X+
 1002 0444 D801      		ld r23,X
 1003 0446 4D91      		movw r26,r18
 1004 0448 5D91      		adiw r26,2
 1005 044a 6D91      		st X+,r20
 1006 044c 7C91      		st X+,r21
 1007 044e D901      		st X+,r22
 1008 0450 1296      		st X,r23
 1009 0452 4D93      		sbiw r26,2+3
 1010 0454 5D93      		add r30,r14
 1011 0456 6D93      		adc r31,r15
 1012 0458 7C93      		ldd r24,Z+8
 1013 045a 1597      		ldd r25,Z+9
 1014 045c EE0D      		ldd r26,Z+10
 1015 045e FF1D      		ldd r27,Z+11
 1016 0460 8085      		movw r30,r18
 1017 0462 9185      		std Z+6,r24
 1018 0464 A285      		std Z+7,r25
 1019 0466 B385      		std Z+8,r26
 1020 0468 F901      		std Z+9,r27
 1021 046a 8683      		call printf
 1023 046e A087      	.LM60:
 1024 0470 B187      		sec
 1025 0472 0E94 0000 		adc r12,__zero_reg__
 1026               		adc r13,__zero_reg__
 1027               		in r18,__SP_L__
 1028 0476 0894      		in r19,__SP_H__
 1029 0478 C11C      		subi r18,lo8(-(10))
 1030 047a D11C      		sbci r19,hi8(-(10))
 1031 047c 2DB7      		in __tmp_reg__,__SREG__
 1032 047e 3EB7      		cli
 1033 0480 265F      		out __SP_H__,r19
 1034 0482 3F4F      		out __SREG__,__tmp_reg__
 1035 0484 0FB6      		out __SP_L__,r18
 1036 0486 F894      		ldi r19,lo8(5)
 1037 0488 3EBF      		cp r12,r19
 1038 048a 0FBE      		cpc r13,__zero_reg__
 1039 048c 2DBF      		breq .+2
 1040 048e 35E0      		rjmp .L26
 1042 0492 D104      	.LM61:
 1043 0494 01F0      		rcall .
 1044 0496 00C0      		rcall .
 1045               		ldi r24,lo8(.LC14)
 1046               		ldi r25,hi8(.LC14)
 1047 0498 00D0      		in r26,__SP_L__
 1048 049a 00D0      		in r27,__SP_H__
 1049 049c 80E0      		adiw r26,1+1
 1050 049e 90E0      		st X,r25
 1051 04a0 ADB7      		st -X,r24
 1052 04a2 BEB7      		sbiw r26,1
 1053 04a4 1296      		lds r24,rxTrajectory+2
 1054 04a6 9C93      		lds r25,(rxTrajectory+2)+1
 1055 04a8 8E93      		adiw r26,3+1
 1056 04aa 1197      		st X,r25
 1057 04ac 8091 0000 		st -X,r24
 1058 04b0 9091 0000 		sbiw r26,3
 1059 04b4 1496      		call printf
 1061 04b8 8E93      	.LM62:
 1062 04ba 1397      		ldi r24,lo8(.LC15)
 1063 04bc 0E94 0000 		ldi r25,hi8(.LC15)
 1064               		in r30,__SP_L__
 1065               		in r31,__SP_H__
 1066 04c0 80E0      		std Z+2,r25
 1067 04c2 90E0      		std Z+1,r24
 1068 04c4 EDB7      		lds r24,rxTrajectory
 1069 04c6 FEB7      		lds r25,(rxTrajectory)+1
 1070 04c8 9283      		std Z+4,r25
 1071 04ca 8183      		std Z+3,r24
 1072 04cc 8091 0000 		call printf
 1074 04d4 9483      	.LM63:
 1075 04d6 8383      		sts (TXPoseActual)+1,__zero_reg__
 1076 04d8 0E94 0000 		sts TXPoseActual,__zero_reg__
 1078               	.LM64:
 1079 04dc 1092 0000 		pop __tmp_reg__
 1080 04e0 1092 0000 		pop __tmp_reg__
 1081               		pop __tmp_reg__
 1082               		pop __tmp_reg__
 1083 04e4 0F90      		ldi r24,lo8(.LC16)
 1084 04e6 0F90      		ldi r25,hi8(.LC16)
 1085 04e8 0F90      		call puts
 1087 04ec 80E0      	.LM65:
 1088 04ee 90E0      		ldi r24,lo8(rxTrajectory)
 1089 04f0 0E94 0000 		ldi r25,hi8(rxTrajectory)
 1090               		ldi r22,lo8(0)
 1091               		ldi r23,hi8(0)
 1092 04f4 80E0      		call teach_pendant_point
 1094 04f8 60E0      	.LM66:
 1095 04fa 70E0      		ldi r24,lo8(Pose.3710)
 1096 04fc 0E94 0000 		ldi r25,hi8(Pose.3710)
 1097               		call ObtenerPose
 1098               		jmp .L61
 1099 0500 80E0      	.L73:
 1101 0504 0E94 0000 	.LM67:
 1102 0508 0C94 0000 		lds r24,rxCommand
 1103               		lds r25,(rxCommand)+1
 1104               		sbiw r24,3
 1105               		brne .L27
 1107 0510 9091 0000 	.LM68:
 1108 0514 0397      		call openGripper
 1109 0516 01F4      	.L27:
 1111               	.LM69:
 1112 0518 0E94 0000 		lds r24,rxCommand
 1113               		lds r25,(rxCommand)+1
 1114               		sbiw r24,4
 1115               		brne .L28
 1117 0520 9091 0000 	.LM70:
 1118 0524 0497      		call closeGripper
 1119 0526 01F4      	.L28:
 1121               	.LM71:
 1122 0528 0E94 0000 		lds r24,rxCommand
 1123               		lds r25,(rxCommand)+1
 1124               		sbiw r24,5
 1125               		breq .+2
 1126 052c 8091 0000 		rjmp .L29
 1128 0534 0597      	.LM72:
 1129 0536 01F0      		lds r24,rxCommand+4
 1130 0538 00C0      		lds r25,(rxCommand+4)+1
 1131               		sts (Pose.3710)+1,r25
 1132               		sts Pose.3710,r24
 1134 053e 9091 0000 	.LM73:
 1135 0542 9093 0000 		sts (TXPoseActual)+1,r25
 1136 0546 8093 0000 		sts TXPoseActual,r24
 1138               	.LM74:
 1139 054a 9093 0000 		rcall .
 1140 054e 8093 0000 		rcall .
 1141               		rcall .
 1142               		ldi r24,lo8(.LC17)
 1143 0552 00D0      		ldi r25,hi8(.LC17)
 1144 0554 00D0      		in r26,__SP_L__
 1145 0556 00D0      		in r27,__SP_H__
 1146 0558 80E0      		adiw r26,1+1
 1147 055a 90E0      		st X,r25
 1148 055c ADB7      		st -X,r24
 1149 055e BEB7      		sbiw r26,1
 1150 0560 1296      		lds r24,rxCommand+4
 1151 0562 9C93      		lds r25,(rxCommand+4)+1
 1152 0564 8E93      		lds r26,(rxCommand+4)+2
 1153 0566 1197      		lds r27,(rxCommand+4)+3
 1154 0568 8091 0000 		in r30,__SP_L__
 1155 056c 9091 0000 		in r31,__SP_H__
 1156 0570 A091 0000 		std Z+3,r24
 1157 0574 B091 0000 		std Z+4,r25
 1158 0578 EDB7      		std Z+5,r26
 1159 057a FEB7      		std Z+6,r27
 1160 057c 8383      		call printf
 1162 0580 A583      	.LM75:
 1163 0582 B683      		pop __tmp_reg__
 1164 0584 0E94 0000 		pop __tmp_reg__
 1165               		ldi r24,lo8(.LC18)
 1166               		ldi r25,hi8(.LC18)
 1167 0588 0F90      		in r26,__SP_L__
 1168 058a 0F90      		in r27,__SP_H__
 1169 058c 80E0      		adiw r26,1+1
 1170 058e 90E0      		st X,r25
 1171 0590 ADB7      		st -X,r24
 1172 0592 BEB7      		sbiw r26,1
 1173 0594 1296      		lds r24,Pose.3710
 1174 0596 9C93      		lds r25,(Pose.3710)+1
 1175 0598 8E93      		adiw r26,3+1
 1176 059a 1197      		st X,r25
 1177 059c 8091 0000 		st -X,r24
 1178 05a0 9091 0000 		sbiw r26,3
 1179 05a4 1496      		call printf
 1181 05a8 8E93      	.LM76:
 1182 05aa 1397      		rcall .
 1183 05ac 0E94 0000 		ldi r24,lo8(.LC19)
 1184               		ldi r25,hi8(.LC19)
 1185               		in r30,__SP_L__
 1186 05b0 00D0      		in r31,__SP_H__
 1187 05b2 80E0      		std Z+2,r25
 1188 05b4 90E0      		std Z+1,r24
 1189 05b6 EDB7      		lds r24,Pose.3710+2
 1190 05b8 FEB7      		lds r25,(Pose.3710+2)+1
 1191 05ba 9283      		lds r26,(Pose.3710+2)+2
 1192 05bc 8183      		lds r27,(Pose.3710+2)+3
 1193 05be 8091 0000 		std Z+3,r24
 1194 05c2 9091 0000 		std Z+4,r25
 1195 05c6 A091 0000 		std Z+5,r26
 1196 05ca B091 0000 		std Z+6,r27
 1197 05ce 8383      		call printf
 1199 05d2 A583      	.LM77:
 1200 05d4 B683      		ldi r24,lo8(.LC20)
 1201 05d6 0E94 0000 		ldi r25,hi8(.LC20)
 1202               		in r26,__SP_L__
 1203               		in r27,__SP_H__
 1204 05da 80E0      		adiw r26,1+1
 1205 05dc 90E0      		st X,r25
 1206 05de ADB7      		st -X,r24
 1207 05e0 BEB7      		sbiw r26,1
 1208 05e2 1296      		lds r24,Pose.3710+6
 1209 05e4 9C93      		lds r25,(Pose.3710+6)+1
 1210 05e6 8E93      		lds r26,(Pose.3710+6)+2
 1211 05e8 1197      		lds r27,(Pose.3710+6)+3
 1212 05ea 8091 0000 		in r30,__SP_L__
 1213 05ee 9091 0000 		in r31,__SP_H__
 1214 05f2 A091 0000 		std Z+3,r24
 1215 05f6 B091 0000 		std Z+4,r25
 1216 05fa EDB7      		std Z+5,r26
 1217 05fc FEB7      		std Z+6,r27
 1218 05fe 8383      		call printf
 1220 0602 A583      	.LM78:
 1221 0604 B683      		ldi r24,lo8(.LC21)
 1222 0606 0E94 0000 		ldi r25,hi8(.LC21)
 1223               		in r26,__SP_L__
 1224               		in r27,__SP_H__
 1225 060a 80E0      		adiw r26,1+1
 1226 060c 90E0      		st X,r25
 1227 060e ADB7      		st -X,r24
 1228 0610 BEB7      		sbiw r26,1
 1229 0612 1296      		lds r24,Pose.3710+10
 1230 0614 9C93      		lds r25,(Pose.3710+10)+1
 1231 0616 8E93      		lds r26,(Pose.3710+10)+2
 1232 0618 1197      		lds r27,(Pose.3710+10)+3
 1233 061a 8091 0000 		in r30,__SP_L__
 1234 061e 9091 0000 		in r31,__SP_H__
 1235 0622 A091 0000 		std Z+3,r24
 1236 0626 B091 0000 		std Z+4,r25
 1237 062a EDB7      		std Z+5,r26
 1238 062c FEB7      		std Z+6,r27
 1239 062e 8383      		call printf
 1241 0632 A583      	.LM79:
 1242 0634 B683      		ldi r24,lo8(.LC22)
 1243 0636 0E94 0000 		ldi r25,hi8(.LC22)
 1244               		in r26,__SP_L__
 1245               		in r27,__SP_H__
 1246 063a 80E0      		adiw r26,1+1
 1247 063c 90E0      		st X,r25
 1248 063e ADB7      		st -X,r24
 1249 0640 BEB7      		sbiw r26,1
 1250 0642 1296      		lds r24,Pose.3710+14
 1251 0644 9C93      		lds r25,(Pose.3710+14)+1
 1252 0646 8E93      		lds r26,(Pose.3710+14)+2
 1253 0648 1197      		lds r27,(Pose.3710+14)+3
 1254 064a 8091 0000 		in r30,__SP_L__
 1255 064e 9091 0000 		in r31,__SP_H__
 1256 0652 A091 0000 		std Z+3,r24
 1257 0656 B091 0000 		std Z+4,r25
 1258 065a EDB7      		std Z+5,r26
 1259 065c FEB7      		std Z+6,r27
 1260 065e 8383      		call printf
 1262 0662 A583      	.LM80:
 1263 0664 B683      		ldi r24,lo8(.LC23)
 1264 0666 0E94 0000 		ldi r25,hi8(.LC23)
 1265               		in r26,__SP_L__
 1266               		in r27,__SP_H__
 1267 066a 80E0      		adiw r26,1+1
 1268 066c 90E0      		st X,r25
 1269 066e ADB7      		st -X,r24
 1270 0670 BEB7      		sbiw r26,1
 1271 0672 1296      		lds r24,Pose.3710+18
 1272 0674 9C93      		lds r25,(Pose.3710+18)+1
 1273 0676 8E93      		lds r26,(Pose.3710+18)+2
 1274 0678 1197      		lds r27,(Pose.3710+18)+3
 1275 067a 8091 0000 		in r30,__SP_L__
 1276 067e 9091 0000 		in r31,__SP_H__
 1277 0682 A091 0000 		std Z+3,r24
 1278 0686 B091 0000 		std Z+4,r25
 1279 068a EDB7      		std Z+5,r26
 1280 068c FEB7      		std Z+6,r27
 1281 068e 8383      		call printf
 1283 0692 A583      	.LM81:
 1284 0694 B683      		pop __tmp_reg__
 1285 0696 0E94 0000 		pop __tmp_reg__
 1286               		ldi r24,lo8(.LC24)
 1287               		ldi r25,hi8(.LC24)
 1288 069a 0F90      		in r26,__SP_L__
 1289 069c 0F90      		in r27,__SP_H__
 1290 069e 80E0      		adiw r26,1+1
 1291 06a0 90E0      		st X,r25
 1292 06a2 ADB7      		st -X,r24
 1293 06a4 BEB7      		sbiw r26,1
 1294 06a6 1296      		lds r24,Pose.3710+22
 1295 06a8 9C93      		clr r25
 1296 06aa 8E93      		sbrc r24,7
 1297 06ac 1197      		com r25
 1298 06ae 8091 0000 		adiw r26,3+1
 1299 06b2 9927      		st X,r25
 1300 06b4 87FD      		st -X,r24
 1301 06b6 9095      		sbiw r26,3
 1302 06b8 1496      		call printf
 1304 06bc 8E93      	.LM82:
 1305 06be 1397      		pop __tmp_reg__
 1306 06c0 0E94 0000 		pop __tmp_reg__
 1307               		pop __tmp_reg__
 1308               		pop __tmp_reg__
 1309 06c4 0F90      		call Estado_gripper
 1310 06c6 0F90      		sts Pose.3710+22,r24
 1312 06ca 0F90      	.LM83:
 1313 06cc 0E94 0000 		cpi r24,lo8(-1)
 1314 06d0 8093 0000 		brne .L30
 1316               	.LM84:
 1317 06d4 8F3F      		ldi r24,lo8(1)
 1318 06d6 01F4      		sts Pose.3710+22,r24
 1319               	.L30:
 1321 06d8 81E0      	.LM85:
 1322 06da 8093 0000 		in r30,__SP_L__
 1323               		in r31,__SP_H__
 1324               		sbiw r30,23
 1325               		in __tmp_reg__,__SREG__
 1326 06de EDB7      		cli
 1327 06e0 FEB7      		out __SP_H__,r31
 1328 06e2 7797      		out __SREG__,__tmp_reg__
 1329 06e4 0FB6      		out __SP_L__,r30
 1330 06e6 F894      		in r26,__SP_L__
 1331 06e8 FEBF      		in r27,__SP_H__
 1332 06ea 0FBE      		adiw r26,1
 1333 06ec EDBF      		ldi r30,lo8(Pose.3710)
 1334 06ee ADB7      		ldi r31,hi8(Pose.3710)
 1335 06f0 BEB7      		ldi r24,lo8(23)
 1336 06f2 1196      	.L31:
 1337 06f4 E0E0      		ld r0,Z+
 1338 06f6 F0E0      		st X+,r0
 1339 06f8 87E1      		subi r24,lo8(-(-1))
 1340               		brne .L31
 1341 06fa 0190      		call Adicionar_PoseTWI
 1342 06fc 0D92      		in r18,__SP_L__
 1343 06fe 8150      		in r19,__SP_H__
 1344 0700 01F4      		subi r18,lo8(-(23))
 1345 0702 0E94 0000 		sbci r19,hi8(-(23))
 1346 0706 2DB7      		in __tmp_reg__,__SREG__
 1347 0708 3EB7      		cli
 1348 070a 295E      		out __SP_H__,r19
 1349 070c 3F4F      		out __SREG__,__tmp_reg__
 1350 070e 0FB6      		out __SP_L__,r18
 1351 0710 F894      	.L29:
 1353 0714 0FBE      	.LM86:
 1354 0716 2DBF      		lds r24,rxCommand
 1355               		lds r25,(rxCommand)+1
 1356               		sbiw r24,6
 1357               		breq .+2
 1358 0718 8091 0000 		rjmp .L32
 1360 0720 0697      	.LM87:
 1361 0722 01F0      		lds r24,rxCommand+4
 1362 0724 00C0      		lds r25,(rxCommand+4)+1
 1363               		sts (Pose.3710)+1,r25
 1364               		sts Pose.3710,r24
 1366 072a 9091 0000 	.LM88:
 1367 072e 9093 0000 		sts (TXPoseActual)+1,r25
 1368 0732 8093 0000 		sts TXPoseActual,r24
 1370               	.LM89:
 1371 0736 9093 0000 		rcall .
 1372 073a 8093 0000 		rcall .
 1373               		rcall .
 1374               		ldi r24,lo8(.LC17)
 1375 073e 00D0      		ldi r25,hi8(.LC17)
 1376 0740 00D0      		in r26,__SP_L__
 1377 0742 00D0      		in r27,__SP_H__
 1378 0744 80E0      		adiw r26,1+1
 1379 0746 90E0      		st X,r25
 1380 0748 ADB7      		st -X,r24
 1381 074a BEB7      		sbiw r26,1
 1382 074c 1296      		lds r24,rxCommand+4
 1383 074e 9C93      		lds r25,(rxCommand+4)+1
 1384 0750 8E93      		lds r26,(rxCommand+4)+2
 1385 0752 1197      		lds r27,(rxCommand+4)+3
 1386 0754 8091 0000 		in r30,__SP_L__
 1387 0758 9091 0000 		in r31,__SP_H__
 1388 075c A091 0000 		std Z+3,r24
 1389 0760 B091 0000 		std Z+4,r25
 1390 0764 EDB7      		std Z+5,r26
 1391 0766 FEB7      		std Z+6,r27
 1392 0768 8383      		call printf
 1394 076c A583      	.LM90:
 1395 076e B683      		pop __tmp_reg__
 1396 0770 0E94 0000 		pop __tmp_reg__
 1397               		ldi r24,lo8(.LC18)
 1398               		ldi r25,hi8(.LC18)
 1399 0774 0F90      		in r26,__SP_L__
 1400 0776 0F90      		in r27,__SP_H__
 1401 0778 80E0      		adiw r26,1+1
 1402 077a 90E0      		st X,r25
 1403 077c ADB7      		st -X,r24
 1404 077e BEB7      		sbiw r26,1
 1405 0780 1296      		lds r24,Pose.3710
 1406 0782 9C93      		lds r25,(Pose.3710)+1
 1407 0784 8E93      		adiw r26,3+1
 1408 0786 1197      		st X,r25
 1409 0788 8091 0000 		st -X,r24
 1410 078c 9091 0000 		sbiw r26,3
 1411 0790 1496      		call printf
 1413 0794 8E93      	.LM91:
 1414 0796 1397      		rcall .
 1415 0798 0E94 0000 		ldi r24,lo8(.LC19)
 1416               		ldi r25,hi8(.LC19)
 1417               		in r30,__SP_L__
 1418 079c 00D0      		in r31,__SP_H__
 1419 079e 80E0      		std Z+2,r25
 1420 07a0 90E0      		std Z+1,r24
 1421 07a2 EDB7      		lds r24,Pose.3710+2
 1422 07a4 FEB7      		lds r25,(Pose.3710+2)+1
 1423 07a6 9283      		lds r26,(Pose.3710+2)+2
 1424 07a8 8183      		lds r27,(Pose.3710+2)+3
 1425 07aa 8091 0000 		std Z+3,r24
 1426 07ae 9091 0000 		std Z+4,r25
 1427 07b2 A091 0000 		std Z+5,r26
 1428 07b6 B091 0000 		std Z+6,r27
 1429 07ba 8383      		call printf
 1431 07be A583      	.LM92:
 1432 07c0 B683      		ldi r24,lo8(.LC20)
 1433 07c2 0E94 0000 		ldi r25,hi8(.LC20)
 1434               		in r26,__SP_L__
 1435               		in r27,__SP_H__
 1436 07c6 80E0      		adiw r26,1+1
 1437 07c8 90E0      		st X,r25
 1438 07ca ADB7      		st -X,r24
 1439 07cc BEB7      		sbiw r26,1
 1440 07ce 1296      		lds r24,Pose.3710+6
 1441 07d0 9C93      		lds r25,(Pose.3710+6)+1
 1442 07d2 8E93      		lds r26,(Pose.3710+6)+2
 1443 07d4 1197      		lds r27,(Pose.3710+6)+3
 1444 07d6 8091 0000 		in r30,__SP_L__
 1445 07da 9091 0000 		in r31,__SP_H__
 1446 07de A091 0000 		std Z+3,r24
 1447 07e2 B091 0000 		std Z+4,r25
 1448 07e6 EDB7      		std Z+5,r26
 1449 07e8 FEB7      		std Z+6,r27
 1450 07ea 8383      		call printf
 1452 07ee A583      	.LM93:
 1453 07f0 B683      		ldi r24,lo8(.LC21)
 1454 07f2 0E94 0000 		ldi r25,hi8(.LC21)
 1455               		in r26,__SP_L__
 1456               		in r27,__SP_H__
 1457 07f6 80E0      		adiw r26,1+1
 1458 07f8 90E0      		st X,r25
 1459 07fa ADB7      		st -X,r24
 1460 07fc BEB7      		sbiw r26,1
 1461 07fe 1296      		lds r24,Pose.3710+10
 1462 0800 9C93      		lds r25,(Pose.3710+10)+1
 1463 0802 8E93      		lds r26,(Pose.3710+10)+2
 1464 0804 1197      		lds r27,(Pose.3710+10)+3
 1465 0806 8091 0000 		in r30,__SP_L__
 1466 080a 9091 0000 		in r31,__SP_H__
 1467 080e A091 0000 		std Z+3,r24
 1468 0812 B091 0000 		std Z+4,r25
 1469 0816 EDB7      		std Z+5,r26
 1470 0818 FEB7      		std Z+6,r27
 1471 081a 8383      		call printf
 1473 081e A583      	.LM94:
 1474 0820 B683      		ldi r24,lo8(.LC22)
 1475 0822 0E94 0000 		ldi r25,hi8(.LC22)
 1476               		in r26,__SP_L__
 1477               		in r27,__SP_H__
 1478 0826 80E0      		adiw r26,1+1
 1479 0828 90E0      		st X,r25
 1480 082a ADB7      		st -X,r24
 1481 082c BEB7      		sbiw r26,1
 1482 082e 1296      		lds r24,Pose.3710+14
 1483 0830 9C93      		lds r25,(Pose.3710+14)+1
 1484 0832 8E93      		lds r26,(Pose.3710+14)+2
 1485 0834 1197      		lds r27,(Pose.3710+14)+3
 1486 0836 8091 0000 		in r30,__SP_L__
 1487 083a 9091 0000 		in r31,__SP_H__
 1488 083e A091 0000 		std Z+3,r24
 1489 0842 B091 0000 		std Z+4,r25
 1490 0846 EDB7      		std Z+5,r26
 1491 0848 FEB7      		std Z+6,r27
 1492 084a 8383      		call printf
 1494 084e A583      	.LM95:
 1495 0850 B683      		ldi r24,lo8(.LC23)
 1496 0852 0E94 0000 		ldi r25,hi8(.LC23)
 1497               		in r26,__SP_L__
 1498               		in r27,__SP_H__
 1499 0856 80E0      		adiw r26,1+1
 1500 0858 90E0      		st X,r25
 1501 085a ADB7      		st -X,r24
 1502 085c BEB7      		sbiw r26,1
 1503 085e 1296      		lds r24,Pose.3710+18
 1504 0860 9C93      		lds r25,(Pose.3710+18)+1
 1505 0862 8E93      		lds r26,(Pose.3710+18)+2
 1506 0864 1197      		lds r27,(Pose.3710+18)+3
 1507 0866 8091 0000 		in r30,__SP_L__
 1508 086a 9091 0000 		in r31,__SP_H__
 1509 086e A091 0000 		std Z+3,r24
 1510 0872 B091 0000 		std Z+4,r25
 1511 0876 EDB7      		std Z+5,r26
 1512 0878 FEB7      		std Z+6,r27
 1513 087a 8383      		call printf
 1515 087e A583      	.LM96:
 1516 0880 B683      		pop __tmp_reg__
 1517 0882 0E94 0000 		pop __tmp_reg__
 1518               		ldi r24,lo8(.LC24)
 1519               		ldi r25,hi8(.LC24)
 1520 0886 0F90      		in r26,__SP_L__
 1521 0888 0F90      		in r27,__SP_H__
 1522 088a 80E0      		adiw r26,1+1
 1523 088c 90E0      		st X,r25
 1524 088e ADB7      		st -X,r24
 1525 0890 BEB7      		sbiw r26,1
 1526 0892 1296      		lds r24,Pose.3710+22
 1527 0894 9C93      		clr r25
 1528 0896 8E93      		sbrc r24,7
 1529 0898 1197      		com r25
 1530 089a 8091 0000 		adiw r26,3+1
 1531 089e 9927      		st X,r25
 1532 08a0 87FD      		st -X,r24
 1533 08a2 9095      		sbiw r26,3
 1534 08a4 1496      		call printf
 1536 08a8 8E93      	.LM97:
 1537 08aa 1397      		pop __tmp_reg__
 1538 08ac 0E94 0000 		pop __tmp_reg__
 1539               		pop __tmp_reg__
 1540               		pop __tmp_reg__
 1541 08b0 0F90      		call Estado_gripper
 1542 08b2 0F90      		sts Pose.3710+22,r24
 1544 08b6 0F90      	.LM98:
 1545 08b8 0E94 0000 		cpi r24,lo8(-1)
 1546 08bc 8093 0000 		brne .L33
 1548               	.LM99:
 1549 08c0 8F3F      		ldi r24,lo8(1)
 1550 08c2 01F4      		sts Pose.3710+22,r24
 1551               	.L33:
 1553 08c4 81E0      	.LM100:
 1554 08c6 8093 0000 		in r30,__SP_L__
 1555               		in r31,__SP_H__
 1556               		sbiw r30,23
 1557               		in __tmp_reg__,__SREG__
 1558 08ca EDB7      		cli
 1559 08cc FEB7      		out __SP_H__,r31
 1560 08ce 7797      		out __SREG__,__tmp_reg__
 1561 08d0 0FB6      		out __SP_L__,r30
 1562 08d2 F894      		in r26,__SP_L__
 1563 08d4 FEBF      		in r27,__SP_H__
 1564 08d6 0FBE      		adiw r26,1
 1565 08d8 EDBF      		ldi r30,lo8(Pose.3710)
 1566 08da ADB7      		ldi r31,hi8(Pose.3710)
 1567 08dc BEB7      		ldi r24,lo8(23)
 1568 08de 1196      	.L34:
 1569 08e0 E0E0      		ld r0,Z+
 1570 08e2 F0E0      		st X+,r0
 1571 08e4 87E1      		subi r24,lo8(-(-1))
 1572               		brne .L34
 1573 08e6 0190      		call SobreEscribir_Pose
 1574 08e8 0D92      		in r18,__SP_L__
 1575 08ea 8150      		in r19,__SP_H__
 1576 08ec 01F4      		subi r18,lo8(-(23))
 1577 08ee 0E94 0000 		sbci r19,hi8(-(23))
 1578 08f2 2DB7      		in __tmp_reg__,__SREG__
 1579 08f4 3EB7      		cli
 1580 08f6 295E      		out __SP_H__,r19
 1581 08f8 3F4F      		out __SREG__,__tmp_reg__
 1582 08fa 0FB6      		out __SP_L__,r18
 1583 08fc F894      	.L32:
 1585 0900 0FBE      	.LM101:
 1586 0902 2DBF      		lds r24,rxCommand
 1587               		lds r25,(rxCommand)+1
 1588               		sbiw r24,7
 1589               		breq .+2
 1590 0904 8091 0000 		rjmp .L35
 1592 090c 0797      	.LM102:
 1593 090e 01F0      		lds r24,rxCommand+4
 1594 0910 00C0      		lds r25,(rxCommand+4)+1
 1595               		ldi r22,lo8(Pose.3710)
 1596               		ldi r23,hi8(Pose.3710)
 1597 0912 8091 0000 		call Leer_PoseTWI
 1599 091a 60E0      	.LM103:
 1600 091c 70E0      		rcall .
 1601 091e 0E94 0000 		rcall .
 1602               		ldi r24,lo8(.LC25)
 1603               		ldi r25,hi8(.LC25)
 1604 0922 00D0      		in r26,__SP_L__
 1605 0924 00D0      		in r27,__SP_H__
 1606 0926 80E0      		adiw r26,1+1
 1607 0928 90E0      		st X,r25
 1608 092a ADB7      		st -X,r24
 1609 092c BEB7      		sbiw r26,1
 1610 092e 1296      		lds r24,Pose.3710
 1611 0930 9C93      		lds r25,(Pose.3710)+1
 1612 0932 8E93      		adiw r26,3+1
 1613 0934 1197      		st X,r25
 1614 0936 8091 0000 		st -X,r24
 1615 093a 9091 0000 		sbiw r26,3
 1616 093e 1496      		call printf
 1618 0942 8E93      	.LM104:
 1619 0944 1397      		pop __tmp_reg__
 1620 0946 0E94 0000 		pop __tmp_reg__
 1621               		pop __tmp_reg__
 1622               		pop __tmp_reg__
 1623 094a 0F90      		lds r20,Pose.3710+2
 1624 094c 0F90      		lds r21,(Pose.3710+2)+1
 1625 094e 0F90      		lds r22,(Pose.3710+2)+2
 1626 0950 0F90      		lds r23,(Pose.3710+2)+3
 1627 0952 4091 0000 		ldi r24,lo8(hAxis+4)
 1628 0956 5091 0000 		ldi r25,hi8(hAxis+4)
 1629 095a 6091 0000 		ldi r18,lo8(0)
 1630 095e 7091 0000 		ldi r19,hi8(0)
 1631 0962 80E0      		call uPasosTOgradros
 1633 0966 20E0      	.LM105:
 1634 0968 30E0      		in r30,__SP_L__
 1635 096a 0E94 0000 		in r31,__SP_H__
 1636               		sbiw r30,10
 1637               		in __tmp_reg__,__SREG__
 1638 096e EDB7      		cli
 1639 0970 FEB7      		out __SP_H__,r31
 1640 0972 3A97      		out __SREG__,__tmp_reg__
 1641 0974 0FB6      		out __SP_L__,r30
 1642 0976 F894      		adiw r30,1
 1643 0978 FEBF      		ldi r18,lo8(.LC26)
 1644 097a 0FBE      		ldi r19,hi8(.LC26)
 1645 097c EDBF      		in r26,__SP_L__
 1646 097e 3196      		in r27,__SP_H__
 1647 0980 20E0      		adiw r26,1+1
 1648 0982 30E0      		st X,r19
 1649 0984 ADB7      		st -X,r18
 1650 0986 BEB7      		sbiw r26,1
 1651 0988 1296      		lds r18,Pose.3710+2
 1652 098a 3C93      		lds r19,(Pose.3710+2)+1
 1653 098c 2E93      		lds r20,(Pose.3710+2)+2
 1654 098e 1197      		lds r21,(Pose.3710+2)+3
 1655 0990 2091 0000 		std Z+2,r18
 1656 0994 3091 0000 		std Z+3,r19
 1657 0998 4091 0000 		std Z+4,r20
 1658 099c 5091 0000 		std Z+5,r21
 1659 09a0 2283      		std Z+6,r22
 1660 09a2 3383      		std Z+7,r23
 1661 09a4 4483      		std Z+8,r24
 1662 09a6 5583      		std Z+9,r25
 1663 09a8 6683      		call printf
 1665 09ac 8087      	.LM106:
 1666 09ae 9187      		in r30,__SP_L__
 1667 09b0 0E94 0000 		in r31,__SP_H__
 1668               		adiw r30,10
 1669               		in __tmp_reg__,__SREG__
 1670 09b4 EDB7      		cli
 1671 09b6 FEB7      		out __SP_H__,r31
 1672 09b8 3A96      		out __SREG__,__tmp_reg__
 1673 09ba 0FB6      		out __SP_L__,r30
 1674 09bc F894      		lds r20,Pose.3710+6
 1675 09be FEBF      		lds r21,(Pose.3710+6)+1
 1676 09c0 0FBE      		lds r22,(Pose.3710+6)+2
 1677 09c2 EDBF      		lds r23,(Pose.3710+6)+3
 1678 09c4 4091 0000 		ldi r24,lo8(hAxis+100)
 1679 09c8 5091 0000 		ldi r25,hi8(hAxis+100)
 1680 09cc 6091 0000 		ldi r18,lo8(0)
 1681 09d0 7091 0000 		ldi r19,hi8(0)
 1682 09d4 80E0      		call uPasosTOgradros
 1684 09d8 20E0      	.LM107:
 1685 09da 30E0      		in r18,__SP_L__
 1686 09dc 0E94 0000 		in r19,__SP_H__
 1687               		subi r18,lo8(-(-10))
 1688               		sbci r19,hi8(-(-10))
 1689 09e0 2DB7      		in __tmp_reg__,__SREG__
 1690 09e2 3EB7      		cli
 1691 09e4 2A50      		out __SP_H__,r19
 1692 09e6 3040      		out __SREG__,__tmp_reg__
 1693 09e8 0FB6      		out __SP_L__,r18
 1694 09ea F894      		in r16,__SP_L__
 1695 09ec 3EBF      		in r17,__SP_H__
 1696 09ee 0FBE      		subi r16,lo8(-(1))
 1697 09f0 2DBF      		sbci r17,hi8(-(1))
 1698 09f2 0DB7      		ldi r18,lo8(.LC27)
 1699 09f4 1EB7      		ldi r19,hi8(.LC27)
 1700 09f6 0F5F      		in r26,__SP_L__
 1701 09f8 1F4F      		in r27,__SP_H__
 1702 09fa 20E0      		adiw r26,1+1
 1703 09fc 30E0      		st X,r19
 1704 09fe ADB7      		st -X,r18
 1705 0a00 BEB7      		sbiw r26,1
 1706 0a02 1296      		lds r18,Pose.3710+6
 1707 0a04 3C93      		lds r19,(Pose.3710+6)+1
 1708 0a06 2E93      		lds r20,(Pose.3710+6)+2
 1709 0a08 1197      		lds r21,(Pose.3710+6)+3
 1710 0a0a 2091 0000 		movw r30,r16
 1711 0a0e 3091 0000 		std Z+2,r18
 1712 0a12 4091 0000 		std Z+3,r19
 1713 0a16 5091 0000 		std Z+4,r20
 1714 0a1a F801      		std Z+5,r21
 1715 0a1c 2283      		ldi r18,lo8(0x430c0000)
 1716 0a1e 3383      		ldi r19,hi8(0x430c0000)
 1717 0a20 4483      		ldi r20,hlo8(0x430c0000)
 1718 0a22 5583      		ldi r21,hhi8(0x430c0000)
 1719 0a24 20E0      		call __subsf3
 1720 0a26 30E0      		movw r26,r16
 1721 0a28 4CE0      		adiw r26,6
 1722 0a2a 53E4      		st X+,r22
 1723 0a2c 0E94 0000 		st X+,r23
 1724 0a30 D801      		st X+,r24
 1725 0a32 1696      		st X,r25
 1726 0a34 6D93      		sbiw r26,6+3
 1727 0a36 7D93      		call printf
 1729 0a3a 9C93      	.LM108:
 1730 0a3c 1997      		in r30,__SP_L__
 1731 0a3e 0E94 0000 		in r31,__SP_H__
 1732               		adiw r30,10
 1733               		in __tmp_reg__,__SREG__
 1734 0a42 EDB7      		cli
 1735 0a44 FEB7      		out __SP_H__,r31
 1736 0a46 3A96      		out __SREG__,__tmp_reg__
 1737 0a48 0FB6      		out __SP_L__,r30
 1738 0a4a F894      		lds r20,Pose.3710+10
 1739 0a4c FEBF      		lds r21,(Pose.3710+10)+1
 1740 0a4e 0FBE      		lds r22,(Pose.3710+10)+2
 1741 0a50 EDBF      		lds r23,(Pose.3710+10)+3
 1742 0a52 4091 0000 		ldi r24,lo8(hAxis+196)
 1743 0a56 5091 0000 		ldi r25,hi8(hAxis+196)
 1744 0a5a 6091 0000 		ldi r18,lo8(0)
 1745 0a5e 7091 0000 		ldi r19,hi8(0)
 1746 0a62 80E0      		call uPasosTOgradros
 1748 0a66 20E0      	.LM109:
 1749 0a68 30E0      		in r18,__SP_L__
 1750 0a6a 0E94 0000 		in r19,__SP_H__
 1751               		subi r18,lo8(-(-10))
 1752               		sbci r19,hi8(-(-10))
 1753 0a6e 2DB7      		in __tmp_reg__,__SREG__
 1754 0a70 3EB7      		cli
 1755 0a72 2A50      		out __SP_H__,r19
 1756 0a74 3040      		out __SREG__,__tmp_reg__
 1757 0a76 0FB6      		out __SP_L__,r18
 1758 0a78 F894      		in r16,__SP_L__
 1759 0a7a 3EBF      		in r17,__SP_H__
 1760 0a7c 0FBE      		subi r16,lo8(-(1))
 1761 0a7e 2DBF      		sbci r17,hi8(-(1))
 1762 0a80 0DB7      		ldi r18,lo8(.LC28)
 1763 0a82 1EB7      		ldi r19,hi8(.LC28)
 1764 0a84 0F5F      		in r26,__SP_L__
 1765 0a86 1F4F      		in r27,__SP_H__
 1766 0a88 20E0      		adiw r26,1+1
 1767 0a8a 30E0      		st X,r19
 1768 0a8c ADB7      		st -X,r18
 1769 0a8e BEB7      		sbiw r26,1
 1770 0a90 1296      		lds r18,Pose.3710+10
 1771 0a92 3C93      		lds r19,(Pose.3710+10)+1
 1772 0a94 2E93      		lds r20,(Pose.3710+10)+2
 1773 0a96 1197      		lds r21,(Pose.3710+10)+3
 1774 0a98 2091 0000 		movw r30,r16
 1775 0a9c 3091 0000 		std Z+2,r18
 1776 0aa0 4091 0000 		std Z+3,r19
 1777 0aa4 5091 0000 		std Z+4,r20
 1778 0aa8 F801      		std Z+5,r21
 1779 0aaa 2283      		ldi r18,lo8(0x42f80000)
 1780 0aac 3383      		ldi r19,hi8(0x42f80000)
 1781 0aae 4483      		ldi r20,hlo8(0x42f80000)
 1782 0ab0 5583      		ldi r21,hhi8(0x42f80000)
 1783 0ab2 20E0      		call __addsf3
 1784 0ab4 30E0      		movw r26,r16
 1785 0ab6 48EF      		adiw r26,6
 1786 0ab8 52E4      		st X+,r22
 1787 0aba 0E94 0000 		st X+,r23
 1788 0abe D801      		st X+,r24
 1789 0ac0 1696      		st X,r25
 1790 0ac2 6D93      		sbiw r26,6+3
 1791 0ac4 7D93      		call printf
 1793 0ac8 9C93      	.LM110:
 1794 0aca 1997      		in r30,__SP_L__
 1795 0acc 0E94 0000 		in r31,__SP_H__
 1796               		adiw r30,10
 1797               		in __tmp_reg__,__SREG__
 1798 0ad0 EDB7      		cli
 1799 0ad2 FEB7      		out __SP_H__,r31
 1800 0ad4 3A96      		out __SREG__,__tmp_reg__
 1801 0ad6 0FB6      		out __SP_L__,r30
 1802 0ad8 F894      		lds r20,Pose.3710+14
 1803 0ada FEBF      		lds r21,(Pose.3710+14)+1
 1804 0adc 0FBE      		lds r22,(Pose.3710+14)+2
 1805 0ade EDBF      		lds r23,(Pose.3710+14)+3
 1806 0ae0 4091 0000 		ldi r24,lo8(hAxis+292)
 1807 0ae4 5091 0000 		ldi r25,hi8(hAxis+292)
 1808 0ae8 6091 0000 		ldi r18,lo8(0)
 1809 0aec 7091 0000 		ldi r19,hi8(0)
 1810 0af0 80E0      		call uPasosTOgradros
 1812 0af4 20E0      	.LM111:
 1813 0af6 30E0      		in r18,__SP_L__
 1814 0af8 0E94 0000 		in r19,__SP_H__
 1815               		subi r18,lo8(-(-10))
 1816               		sbci r19,hi8(-(-10))
 1817 0afc 2DB7      		in __tmp_reg__,__SREG__
 1818 0afe 3EB7      		cli
 1819 0b00 2A50      		out __SP_H__,r19
 1820 0b02 3040      		out __SREG__,__tmp_reg__
 1821 0b04 0FB6      		out __SP_L__,r18
 1822 0b06 F894      		in r16,__SP_L__
 1823 0b08 3EBF      		in r17,__SP_H__
 1824 0b0a 0FBE      		subi r16,lo8(-(1))
 1825 0b0c 2DBF      		sbci r17,hi8(-(1))
 1826 0b0e 0DB7      		ldi r18,lo8(.LC29)
 1827 0b10 1EB7      		ldi r19,hi8(.LC29)
 1828 0b12 0F5F      		in r26,__SP_L__
 1829 0b14 1F4F      		in r27,__SP_H__
 1830 0b16 20E0      		adiw r26,1+1
 1831 0b18 30E0      		st X,r19
 1832 0b1a ADB7      		st -X,r18
 1833 0b1c BEB7      		sbiw r26,1
 1834 0b1e 1296      		lds r18,Pose.3710+14
 1835 0b20 3C93      		lds r19,(Pose.3710+14)+1
 1836 0b22 2E93      		lds r20,(Pose.3710+14)+2
 1837 0b24 1197      		lds r21,(Pose.3710+14)+3
 1838 0b26 2091 0000 		movw r30,r16
 1839 0b2a 3091 0000 		std Z+2,r18
 1840 0b2e 4091 0000 		std Z+3,r19
 1841 0b32 5091 0000 		std Z+4,r20
 1842 0b36 F801      		std Z+5,r21
 1843 0b38 2283      		ldi r18,lo8(0x432a0000)
 1844 0b3a 3383      		ldi r19,hi8(0x432a0000)
 1845 0b3c 4483      		ldi r20,hlo8(0x432a0000)
 1846 0b3e 5583      		ldi r21,hhi8(0x432a0000)
 1847 0b40 20E0      		call __addsf3
 1848 0b42 30E0      		movw r26,r16
 1849 0b44 4AE2      		adiw r26,6
 1850 0b46 53E4      		st X+,r22
 1851 0b48 0E94 0000 		st X+,r23
 1852 0b4c D801      		st X+,r24
 1853 0b4e 1696      		st X,r25
 1854 0b50 6D93      		sbiw r26,6+3
 1855 0b52 7D93      		call printf
 1857 0b56 9C93      	.LM112:
 1858 0b58 1997      		in r30,__SP_L__
 1859 0b5a 0E94 0000 		in r31,__SP_H__
 1860               		adiw r30,10
 1861               		in __tmp_reg__,__SREG__
 1862 0b5e EDB7      		cli
 1863 0b60 FEB7      		out __SP_H__,r31
 1864 0b62 3A96      		out __SREG__,__tmp_reg__
 1865 0b64 0FB6      		out __SP_L__,r30
 1866 0b66 F894      		lds r20,Pose.3710+18
 1867 0b68 FEBF      		lds r21,(Pose.3710+18)+1
 1868 0b6a 0FBE      		lds r22,(Pose.3710+18)+2
 1869 0b6c EDBF      		lds r23,(Pose.3710+18)+3
 1870 0b6e 4091 0000 		ldi r24,lo8(hAxis+388)
 1871 0b72 5091 0000 		ldi r25,hi8(hAxis+388)
 1872 0b76 6091 0000 		ldi r18,lo8(0)
 1873 0b7a 7091 0000 		ldi r19,hi8(0)
 1874 0b7e 80E0      		call uPasosTOgradros
 1876 0b82 20E0      	.LM113:
 1877 0b84 30E0      		in r18,__SP_L__
 1878 0b86 0E94 0000 		in r19,__SP_H__
 1879               		subi r18,lo8(-(-10))
 1880               		sbci r19,hi8(-(-10))
 1881 0b8a 2DB7      		in __tmp_reg__,__SREG__
 1882 0b8c 3EB7      		cli
 1883 0b8e 2A50      		out __SP_H__,r19
 1884 0b90 3040      		out __SREG__,__tmp_reg__
 1885 0b92 0FB6      		out __SP_L__,r18
 1886 0b94 F894      		in r30,__SP_L__
 1887 0b96 3EBF      		in r31,__SP_H__
 1888 0b98 0FBE      		adiw r30,1
 1889 0b9a 2DBF      		ldi r18,lo8(.LC30)
 1890 0b9c EDB7      		ldi r19,hi8(.LC30)
 1891 0b9e FEB7      		in r26,__SP_L__
 1892 0ba0 3196      		in r27,__SP_H__
 1893 0ba2 20E0      		adiw r26,1+1
 1894 0ba4 30E0      		st X,r19
 1895 0ba6 ADB7      		st -X,r18
 1896 0ba8 BEB7      		sbiw r26,1
 1897 0baa 1296      		lds r18,Pose.3710+18
 1898 0bac 3C93      		lds r19,(Pose.3710+18)+1
 1899 0bae 2E93      		lds r20,(Pose.3710+18)+2
 1900 0bb0 1197      		lds r21,(Pose.3710+18)+3
 1901 0bb2 2091 0000 		std Z+2,r18
 1902 0bb6 3091 0000 		std Z+3,r19
 1903 0bba 4091 0000 		std Z+4,r20
 1904 0bbe 5091 0000 		std Z+5,r21
 1905 0bc2 2283      		std Z+6,r22
 1906 0bc4 3383      		std Z+7,r23
 1907 0bc6 4483      		std Z+8,r24
 1908 0bc8 5583      		std Z+9,r25
 1909 0bca 6683      		call printf
 1911 0bce 8087      	.LM114:
 1912 0bd0 9187      		lds r24,Pose.3710
 1913 0bd2 0E94 0000 		lds r25,(Pose.3710)+1
 1914               		sts (TXPoseActual)+1,r25
 1915               		sts TXPoseActual,r24
 1917 0bda 9091 0000 	.LM115:
 1918 0bde 9093 0000 		in r30,__SP_L__
 1919 0be2 8093 0000 		in r31,__SP_H__
 1920               		adiw r30,10
 1921               		in __tmp_reg__,__SREG__
 1922 0be6 EDB7      		cli
 1923 0be8 FEB7      		out __SP_H__,r31
 1924 0bea 3A96      		out __SREG__,__tmp_reg__
 1925 0bec 0FB6      		out __SP_L__,r30
 1926 0bee F894      		ldi r24,lo8(Pose.3710)
 1927 0bf0 FEBF      		ldi r25,hi8(Pose.3710)
 1928 0bf2 0FBE      		call Pose2rxTrayectoria
 1929 0bf4 EDBF      		clr r12
 1930 0bf6 80E0      		clr r13
 1932 0bfa 0E94 0000 	.LM116:
 1933 0bfe CC24      		ldi r18,lo8(.LC31)
 1934 0c00 DD24      		mov r8,r18
 1935               		ldi r18,hi8(.LC31)
 1936               		mov r9,r18
 1938 0c04 822E      	.LM117:
 1939 0c06 20E0      		ldi r25,lo8(.LC32)
 1940 0c08 922E      		mov r10,r25
 1941               		ldi r25,hi8(.LC32)
 1942               		mov r11,r25
 1943 0c0a 90E0      	.L36:
 1945 0c0e 90E0      	.LM118:
 1946 0c10 B92E      		movw r24,r12
 1947               		call AxisName
 1948               		in r18,__SP_L__
 1949               		in r19,__SP_H__
 1950 0c12 C601      		subi r18,lo8(-(-8))
 1951 0c14 0E94 0000 		sbci r19,hi8(-(-8))
 1952 0c18 2DB7      		in __tmp_reg__,__SREG__
 1953 0c1a 3EB7      		cli
 1954 0c1c 2850      		out __SP_H__,r19
 1955 0c1e 3040      		out __SREG__,__tmp_reg__
 1956 0c20 0FB6      		out __SP_L__,r18
 1957 0c22 F894      		subi r18,lo8(-(1))
 1958 0c24 3EBF      		sbci r19,hi8(-(1))
 1959 0c26 0FBE      		in r26,__SP_L__
 1960 0c28 2DBF      		in r27,__SP_H__
 1961 0c2a 2F5F      		adiw r26,1+1
 1962 0c2c 3F4F      		st X,r9
 1963 0c2e ADB7      		st -X,r8
 1964 0c30 BEB7      		sbiw r26,1
 1965 0c32 1296      		movw r30,r18
 1966 0c34 9C92      		std Z+3,r25
 1967 0c36 8E92      		std Z+2,r24
 1968 0c38 1197      		lds r30,Trajectoryvectorpunto+4
 1969 0c3a F901      		lds r31,(Trajectoryvectorpunto+4)+1
 1970 0c3c 9383      		movw r16,r12
 1971 0c3e 8283      		lsl r16
 1972 0c40 E091 0000 		rol r17
 1973 0c44 F091 0000 		add r16,r12
 1974 0c48 8601      		adc r17,r13
 1975 0c4a 000F      		movw r14,r16
 1976 0c4c 111F      		lsl r14
 1977 0c4e 0C0D      		rol r15
 1978 0c50 1D1D      		lsl r14
 1979 0c52 7801      		rol r15
 1980 0c54 EE0C      		add r30,r14
 1981 0c56 FF1C      		adc r31,r15
 1982 0c58 EE0C      		ld r24,Z
 1983 0c5a FF1C      		ldd r25,Z+1
 1984 0c5c EE0D      		ldd r26,Z+2
 1985 0c5e FF1D      		ldd r27,Z+3
 1986 0c60 8081      		movw r30,r18
 1987 0c62 9181      		std Z+4,r24
 1988 0c64 A281      		std Z+5,r25
 1989 0c66 B381      		std Z+6,r26
 1990 0c68 F901      		std Z+7,r27
 1991 0c6a 8483      		call printf
 1993 0c6e A683      	.LM119:
 1994 0c70 B783      		lds r30,Trajectoryvectorpunto+4
 1995 0c72 0E94 0000 		lds r31,(Trajectoryvectorpunto+4)+1
 1996               		rcall .
 1997               		in r18,__SP_L__
 1998 0c76 E091 0000 		in r19,__SP_H__
 1999 0c7a F091 0000 		subi r18,lo8(-(1))
 2000 0c7e 00D0      		sbci r19,hi8(-(1))
 2001 0c80 2DB7      		in r26,__SP_L__
 2002 0c82 3EB7      		in r27,__SP_H__
 2003 0c84 2F5F      		adiw r26,1+1
 2004 0c86 3F4F      		st X,r11
 2005 0c88 ADB7      		st -X,r10
 2006 0c8a BEB7      		sbiw r26,1
 2007 0c8c 1296      		subi r16,lo8(-(1))
 2008 0c8e BC92      		sbci r17,hi8(-(1))
 2009 0c90 AE92      		lsl r16
 2010 0c92 1197      		rol r17
 2011 0c94 0F5F      		lsl r16
 2012 0c96 1F4F      		rol r17
 2013 0c98 000F      		add r16,r30
 2014 0c9a 111F      		adc r17,r31
 2015 0c9c 000F      		movw r26,r16
 2016 0c9e 111F      		ld r20,X+
 2017 0ca0 0E0F      		ld r21,X+
 2018 0ca2 1F1F      		ld r22,X+
 2019 0ca4 D801      		ld r23,X
 2020 0ca6 4D91      		movw r26,r18
 2021 0ca8 5D91      		adiw r26,2
 2022 0caa 6D91      		st X+,r20
 2023 0cac 7C91      		st X+,r21
 2024 0cae D901      		st X+,r22
 2025 0cb0 1296      		st X,r23
 2026 0cb2 4D93      		sbiw r26,2+3
 2027 0cb4 5D93      		add r30,r14
 2028 0cb6 6D93      		adc r31,r15
 2029 0cb8 7C93      		ldd r24,Z+8
 2030 0cba 1597      		ldd r25,Z+9
 2031 0cbc EE0D      		ldd r26,Z+10
 2032 0cbe FF1D      		ldd r27,Z+11
 2033 0cc0 8085      		movw r30,r18
 2034 0cc2 9185      		std Z+6,r24
 2035 0cc4 A285      		std Z+7,r25
 2036 0cc6 B385      		std Z+8,r26
 2037 0cc8 F901      		std Z+9,r27
 2038 0cca 8683      		call printf
 2040 0cce A087      	.LM120:
 2041 0cd0 B187      		sec
 2042 0cd2 0E94 0000 		adc r12,__zero_reg__
 2043               		adc r13,__zero_reg__
 2044               		in r18,__SP_L__
 2045 0cd6 0894      		in r19,__SP_H__
 2046 0cd8 C11C      		subi r18,lo8(-(10))
 2047 0cda D11C      		sbci r19,hi8(-(10))
 2048 0cdc 2DB7      		in __tmp_reg__,__SREG__
 2049 0cde 3EB7      		cli
 2050 0ce0 265F      		out __SP_H__,r19
 2051 0ce2 3F4F      		out __SREG__,__tmp_reg__
 2052 0ce4 0FB6      		out __SP_L__,r18
 2053 0ce6 F894      		ldi r19,lo8(5)
 2054 0ce8 3EBF      		cp r12,r19
 2055 0cea 0FBE      		cpc r13,__zero_reg__
 2056 0cec 2DBF      		breq .+2
 2057 0cee 35E0      		rjmp .L36
 2059 0cf2 D104      	.LM121:
 2060 0cf4 01F0      		rcall .
 2061 0cf6 00C0      		rcall .
 2062               		ldi r24,lo8(.LC33)
 2063               		ldi r25,hi8(.LC33)
 2064 0cf8 00D0      		in r26,__SP_L__
 2065 0cfa 00D0      		in r27,__SP_H__
 2066 0cfc 80E0      		adiw r26,1+1
 2067 0cfe 90E0      		st X,r25
 2068 0d00 ADB7      		st -X,r24
 2069 0d02 BEB7      		sbiw r26,1
 2070 0d04 1296      		lds r24,Trajectoryvectorpunto+2
 2071 0d06 9C93      		lds r25,(Trajectoryvectorpunto+2)+1
 2072 0d08 8E93      		adiw r26,3+1
 2073 0d0a 1197      		st X,r25
 2074 0d0c 8091 0000 		st -X,r24
 2075 0d10 9091 0000 		sbiw r26,3
 2076 0d14 1496      		call printf
 2078 0d18 8E93      	.LM122:
 2079 0d1a 1397      		ldi r24,lo8(.LC34)
 2080 0d1c 0E94 0000 		ldi r25,hi8(.LC34)
 2081               		in r30,__SP_L__
 2082               		in r31,__SP_H__
 2083 0d20 80E0      		std Z+2,r25
 2084 0d22 90E0      		std Z+1,r24
 2085 0d24 EDB7      		lds r24,Trajectoryvectorpunto
 2086 0d26 FEB7      		lds r25,(Trajectoryvectorpunto)+1
 2087 0d28 9283      		std Z+4,r25
 2088 0d2a 8183      		std Z+3,r24
 2089 0d2c 8091 0000 		call printf
 2091 0d34 9483      	.LM123:
 2092 0d36 8383      		pop __tmp_reg__
 2093 0d38 0E94 0000 		pop __tmp_reg__
 2094               		pop __tmp_reg__
 2095               		pop __tmp_reg__
 2096 0d3c 0F90      		ldi r24,lo8(Trajectoryvectorpunto)
 2097 0d3e 0F90      		ldi r25,hi8(Trajectoryvectorpunto)
 2098 0d40 0F90      		ldi r22,lo8(0)
 2099 0d42 0F90      		ldi r23,hi8(0)
 2100 0d44 80E0      		call teach_pendant_point
 2102 0d48 60E0      	.LM124:
 2103 0d4a 70E0      		lds r24,Pose.3710+22
 2104 0d4c 0E94 0000 		cpi r24,lo8(1)
 2105               		brne .L37
 2107 0d50 8091 0000 	.LM125:
 2108 0d54 8130      		lds r24,GripperActual
 2109 0d56 01F4      		lds r25,(GripperActual)+1
 2110               		sbiw r24,1
 2111               		breq .L38
 2113 0d5c 9091 0000 	.LM126:
 2114 0d60 0197      		call closeGripper
 2116               	.LM127:
 2117               		ldi r24,lo8(1)
 2118 0d64 0E94 0000 		ldi r25,hi8(1)
 2119               		sts (GripperActual)+1,r25
 2120               		sts GripperActual,r24
 2121 0d68 81E0      	.L38:
 2123 0d6c 9093 0000 	.LM128:
 2124 0d70 8093 0000 		ldi r24,lo8(.LC35)
 2125               		ldi r25,hi8(.LC35)
 2126               		call puts
 2127               	.L37:
 2129 0d76 90E0      	.LM129:
 2130 0d78 0E94 0000 		lds r24,Pose.3710+22
 2131               		tst r24
 2132               		brne .L35
 2134 0d7c 8091 0000 	.LM130:
 2135 0d80 8823      		call openGripper
 2137               	.LM131:
 2138               		sts (GripperActual)+1,__zero_reg__
 2139 0d84 0E94 0000 		sts GripperActual,__zero_reg__
 2141               	.LM132:
 2142 0d88 1092 0000 		ldi r24,lo8(.LC36)
 2143 0d8c 1092 0000 		ldi r25,hi8(.LC36)
 2144               		call puts
 2145               	.L35:
 2147 0d92 90E0      	.LM133:
 2148 0d94 0E94 0000 		lds r24,rxCommand
 2149               		lds r25,(rxCommand)+1
 2150               		sbiw r24,9
 2151               		brne .L39
 2153 0d9c 9091 0000 	.LM134:
 2154 0da0 0997      		ldi r24,lo8(.LC37)
 2155 0da2 01F4      		ldi r25,hi8(.LC37)
 2156               		call puts
 2158 0da4 80E0      	.LM135:
 2159 0da6 90E0      		call BorrarEEPROM
 2161               	.LM136:
 2162               		call return_id_vector
 2163 0dac 0E94 0000 	.L39:
 2165               	.LM137:
 2166 0db0 0E94 0000 		lds r24,rxCommand
 2167               		lds r25,(rxCommand)+1
 2168               		sbiw r24,10
 2169               		brne .L40
 2171 0db8 9091 0000 	.LM138:
 2172 0dbc 0A97      		call return_id_vector
 2173 0dbe 01F4      	.L40:
 2175               	.LM139:
 2176 0dc0 0E94 0000 		lds r24,rxCommand
 2177               		lds r25,(rxCommand)+1
 2178               		sbiw r24,13
 2179               		breq .+2
 2180 0dc4 8091 0000 		rjmp .L41
 2182 0dcc 0D97      	.LM140:
 2183 0dce 01F0      		ldi r24,lo8(txFecha)
 2184 0dd0 00C0      		ldi r25,hi8(txFecha)
 2185               		call Read_Fecha
 2187 0dd2 80E0      	.LM141:
 2188 0dd4 90E0      		lds r24,txFecha+6
 2189 0dd6 0E94 0000 		call Dayname
 2190               		movw r16,r24
 2191               		lds r15,txFecha+3
 2192 0dda 8091 0000 		lds r24,txFecha+4
 2193 0dde 0E94 0000 		call Monthname
 2194 0de2 8C01      		in r18,__SP_L__
 2195 0de4 F090 0000 		in r19,__SP_H__
 2196 0de8 8091 0000 		subi r18,lo8(-(-10))
 2197 0dec 0E94 0000 		sbci r19,hi8(-(-10))
 2198 0df0 2DB7      		in __tmp_reg__,__SREG__
 2199 0df2 3EB7      		cli
 2200 0df4 2A50      		out __SP_H__,r19
 2201 0df6 3040      		out __SREG__,__tmp_reg__
 2202 0df8 0FB6      		out __SP_L__,r18
 2203 0dfa F894      		in r30,__SP_L__
 2204 0dfc 3EBF      		in r31,__SP_H__
 2205 0dfe 0FBE      		adiw r30,1
 2206 0e00 2DBF      		ldi r18,lo8(.LC38)
 2207 0e02 EDB7      		ldi r19,hi8(.LC38)
 2208 0e04 FEB7      		in r26,__SP_L__
 2209 0e06 3196      		in r27,__SP_H__
 2210 0e08 20E0      		adiw r26,1+1
 2211 0e0a 30E0      		st X,r19
 2212 0e0c ADB7      		st -X,r18
 2213 0e0e BEB7      		sbiw r26,1
 2214 0e10 1296      		std Z+3,r17
 2215 0e12 3C93      		std Z+2,r16
 2216 0e14 2E93      		std Z+4,r15
 2217 0e16 1197      		std Z+5,__zero_reg__
 2218 0e18 1383      		std Z+7,r25
 2219 0e1a 0283      		std Z+6,r24
 2220 0e1c F482      		lds r24,txFecha+5
 2221 0e1e 1582      		std Z+8,r24
 2222 0e20 9783      		std Z+9,__zero_reg__
 2223 0e22 8683      		call printf
 2225 0e28 8087      	.LM142:
 2226 0e2a 1186      		lds r24,txFecha+2
 2227 0e2c 0E94 0000 		ldi r25,lo8(0)
 2228               		in r30,__SP_L__
 2229               		in r31,__SP_H__
 2230 0e30 8091 0000 		adiw r30,10
 2231 0e34 90E0      		in __tmp_reg__,__SREG__
 2232 0e36 EDB7      		cli
 2233 0e38 FEB7      		out __SP_H__,r31
 2234 0e3a 3A96      		out __SREG__,__tmp_reg__
 2235 0e3c 0FB6      		out __SP_L__,r30
 2236 0e3e F894      		movw r18,r24
 2237 0e40 FEBF      		andi r18,lo8(31)
 2238 0e42 0FBE      		andi r19,hi8(31)
 2239 0e44 EDBF      		sbrs r24,5
 2240 0e46 9C01      		rjmp .L42
 2242 0e4a 3070      	.LM143:
 2243 0e4c 85FF      		in r24,__SP_L__
 2244 0e4e 00C0      		in r25,__SP_H__
 2245               		sbiw r24,8
 2246               		in __tmp_reg__,__SREG__
 2247 0e50 8DB7      		cli
 2248 0e52 9EB7      		out __SP_H__,r25
 2249 0e54 0897      		out __SREG__,__tmp_reg__
 2250 0e56 0FB6      		out __SP_L__,r24
 2251 0e58 F894      		in r30,__SP_L__
 2252 0e5a 9EBF      		in r31,__SP_H__
 2253 0e5c 0FBE      		adiw r30,1
 2254 0e5e 8DBF      		ldi r24,lo8(.LC39)
 2255 0e60 EDB7      		ldi r25,hi8(.LC39)
 2256 0e62 FEB7      		rjmp .L68
 2257 0e64 3196      	.L42:
 2259 0e68 90E0      	.LM144:
 2260 0e6a 00C0      		in r24,__SP_L__
 2261               		in r25,__SP_H__
 2262               		sbiw r24,8
 2263               		in __tmp_reg__,__SREG__
 2264 0e6c 8DB7      		cli
 2265 0e6e 9EB7      		out __SP_H__,r25
 2266 0e70 0897      		out __SREG__,__tmp_reg__
 2267 0e72 0FB6      		out __SP_L__,r24
 2268 0e74 F894      		in r30,__SP_L__
 2269 0e76 9EBF      		in r31,__SP_H__
 2270 0e78 0FBE      		adiw r30,1
 2271 0e7a 8DBF      		ldi r24,lo8(.LC40)
 2272 0e7c EDB7      		ldi r25,hi8(.LC40)
 2273 0e7e FEB7      	.L68:
 2274 0e80 3196      		in r26,__SP_L__
 2275 0e82 80E0      		in r27,__SP_H__
 2276 0e84 90E0      		adiw r26,1+1
 2277               		st X,r25
 2278 0e86 ADB7      		st -X,r24
 2279 0e88 BEB7      		sbiw r26,1
 2280 0e8a 1296      		std Z+3,r19
 2281 0e8c 9C93      		std Z+2,r18
 2282 0e8e 8E93      		lds r24,txFecha+1
 2283 0e90 1197      		std Z+4,r24
 2284 0e92 3383      		std Z+5,__zero_reg__
 2285 0e94 2283      		lds r24,txFecha
 2286 0e96 8091 0000 		std Z+6,r24
 2287 0e9a 8483      		std Z+7,__zero_reg__
 2288 0e9c 1582      		call printf
 2289 0e9e 8091 0000 		in r30,__SP_L__
 2290 0ea2 8683      		in r31,__SP_H__
 2291 0ea4 1782      		adiw r30,8
 2292 0ea6 0E94 0000 		in __tmp_reg__,__SREG__
 2293 0eaa EDB7      		cli
 2294 0eac FEB7      		out __SP_H__,r31
 2295 0eae 3896      		out __SREG__,__tmp_reg__
 2296 0eb0 0FB6      		out __SP_L__,r30
 2297 0eb2 F894      	.L41:
 2299 0eb6 0FBE      	.LM145:
 2300 0eb8 EDBF      		lds r24,rxCommand
 2301               		lds r25,(rxCommand)+1
 2302               		sbiw r24,2
 2303               		brne .L43
 2305 0ebe 9091 0000 	.LM146:
 2306 0ec2 0297      		ldi r24,lo8(.LC41)
 2307 0ec4 01F4      		ldi r25,hi8(.LC41)
 2308               		call puts
 2310 0ec6 80E0      	.LM147:
 2311 0ec8 90E0      		ldi r24,lo8(TxAxisSettings)
 2312 0eca 0E94 0000 		ldi r25,hi8(TxAxisSettings)
 2313               		call GetAxissetting
 2314               	.L43:
 2316 0ed0 90E0      	.LM148:
 2317 0ed2 0E94 0000 		lds r24,rxCommand
 2318               		lds r25,(rxCommand)+1
 2319               		sbiw r24,11
 2320               		breq .+2
 2321 0ed6 8091 0000 		rjmp .L44
 2323 0ede 0B97      	.LM149:
 2324 0ee0 01F0      		in r18,__SP_L__
 2325 0ee2 00C0      		in r19,__SP_H__
 2326               		subi r18,lo8(-(-18))
 2327               		sbci r19,hi8(-(-18))
 2328 0ee4 2DB7      		in __tmp_reg__,__SREG__
 2329 0ee6 3EB7      		cli
 2330 0ee8 2251      		out __SP_H__,r19
 2331 0eea 3040      		out __SREG__,__tmp_reg__
 2332 0eec 0FB6      		out __SP_L__,r18
 2333 0eee F894      		in r30,__SP_L__
 2334 0ef0 3EBF      		in r31,__SP_H__
 2335 0ef2 0FBE      		adiw r30,1
 2336 0ef4 2DBF      		ldi r24,lo8(.LC42)
 2337 0ef6 EDB7      		ldi r25,hi8(.LC42)
 2338 0ef8 FEB7      		in r26,__SP_L__
 2339 0efa 3196      		in r27,__SP_H__
 2340 0efc 80E0      		adiw r26,1+1
 2341 0efe 90E0      		st X,r25
 2342 0f00 ADB7      		st -X,r24
 2343 0f02 BEB7      		sbiw r26,1
 2344 0f04 1296      		lds r24,rxCommand+11
 2345 0f06 9C93      		clr r25
 2346 0f08 8E93      		sbrc r24,7
 2347 0f0a 1197      		com r25
 2348 0f0c 8091 0000 		std Z+3,r25
 2349 0f10 9927      		std Z+2,r24
 2350 0f12 87FD      		lds r24,rxCommand+13
 2351 0f14 9095      		clr r25
 2352 0f16 9383      		sbrc r24,7
 2353 0f18 8283      		com r25
 2354 0f1a 8091 0000 		std Z+5,r25
 2355 0f1e 9927      		std Z+4,r24
 2356 0f20 87FD      		lds r24,rxCommand+15
 2357 0f22 9095      		clr r25
 2358 0f24 9583      		sbrc r24,7
 2359 0f26 8483      		com r25
 2360 0f28 8091 0000 		std Z+7,r25
 2361 0f2c 9927      		std Z+6,r24
 2362 0f2e 87FD      		lds r24,rxCommand+17
 2363 0f30 9095      		clr r25
 2364 0f32 9783      		sbrc r24,7
 2365 0f34 8683      		com r25
 2366 0f36 8091 0000 		std Z+9,r25
 2367 0f3a 9927      		std Z+8,r24
 2368 0f3c 87FD      		lds r24,rxCommand+19
 2369 0f3e 9095      		clr r25
 2370 0f40 9187      		sbrc r24,7
 2371 0f42 8087      		com r25
 2372 0f44 8091 0000 		std Z+11,r25
 2373 0f48 9927      		std Z+10,r24
 2374 0f4a 87FD      		lds r24,rxCommand+21
 2375 0f4c 9095      		clr r25
 2376 0f4e 9387      		sbrc r24,7
 2377 0f50 8287      		com r25
 2378 0f52 8091 0000 		std Z+13,r25
 2379 0f56 9927      		std Z+12,r24
 2380 0f58 87FD      		lds r24,rxCommand+23
 2381 0f5a 9095      		clr r25
 2382 0f5c 9587      		sbrc r24,7
 2383 0f5e 8487      		com r25
 2384 0f60 8091 0000 		std Z+15,r25
 2385 0f64 9927      		std Z+14,r24
 2386 0f66 87FD      		lds r24,rxCommand+25
 2387 0f68 9095      		clr r25
 2388 0f6a 9787      		sbrc r24,7
 2389 0f6c 8687      		com r25
 2390 0f6e 8091 0000 		std Z+17,r25
 2391 0f72 9927      		std Z+16,r24
 2392 0f74 87FD      		call printf
 2394 0f78 918B      	.LM150:
 2395 0f7a 808B      		lds r24,rxCommand+4
 2396 0f7c 0E94 0000 		sts Num_Variables_Trazar.3711,r24
 2398               	.LM151:
 2399 0f80 8091 0000 		in r30,__SP_L__
 2400 0f84 8093 0000 		in r31,__SP_H__
 2401               		sbiw r30,9
 2402               		in __tmp_reg__,__SREG__
 2403 0f88 EDB7      		cli
 2404 0f8a FEB7      		out __SP_H__,r31
 2405 0f8c 3997      		out __SREG__,__tmp_reg__
 2406 0f8e 0FB6      		out __SP_L__,r30
 2407 0f90 F894      		in r26,__SP_L__
 2408 0f92 FEBF      		in r27,__SP_H__
 2409 0f94 0FBE      		adiw r26,1
 2410 0f96 EDBF      		ldi r30,lo8(rxCommand)
 2411 0f98 ADB7      		ldi r31,hi8(rxCommand)
 2412 0f9a BEB7      		ldi r24,lo8(27)
 2413 0f9c 1196      	.L45:
 2414 0f9e E0E0      		ld r0,Z+
 2415 0fa0 F0E0      		st X+,r0
 2416 0fa2 8BE1      		subi r24,lo8(-(-1))
 2417               		brne .L45
 2418 0fa4 0190      		call SetupAxisTrace
 2420 0fa8 8150      	.LM152:
 2421 0faa 01F4      		lds r24,rxCommand+10
 2422 0fac 0E94 0000 		clr r25
 2423               		sbrc r24,7
 2424               		com r25
 2425 0fb0 8091 0000 		sts (TRACETrajFlag)+1,r25
 2426 0fb4 9927      		sts TRACETrajFlag,r24
 2428 0fb8 9095      	.LM153:
 2429 0fba 9093 0000 		ldi r24,lo8(1)
 2430 0fbe 8093 0000 		sts GetBufferFlag,r24
 2432               	.LM154:
 2433 0fc2 81E0      		in r18,__SP_L__
 2434 0fc4 8093 0000 		in r19,__SP_H__
 2435               		subi r18,lo8(-(23))
 2436               		sbci r19,hi8(-(23))
 2437 0fc8 2DB7      		in __tmp_reg__,__SREG__
 2438 0fca 3EB7      		cli
 2439 0fcc 295E      		out __SP_H__,r19
 2440 0fce 3F4F      		out __SREG__,__tmp_reg__
 2441 0fd0 0FB6      		out __SP_L__,r18
 2442 0fd2 F894      		ldi r24,lo8(.LC43)
 2443 0fd4 3EBF      		ldi r25,hi8(.LC43)
 2444 0fd6 0FBE      		in r26,__SP_L__
 2445 0fd8 2DBF      		in r27,__SP_H__
 2446 0fda 80E0      		adiw r26,1+1
 2447 0fdc 90E0      		st X,r25
 2448 0fde ADB7      		st -X,r24
 2449 0fe0 BEB7      		sbiw r26,1
 2450 0fe2 1296      		lds r24,Num_Variables_Trazar.3711
 2451 0fe4 9C93      		clr r25
 2452 0fe6 8E93      		sbrc r24,7
 2453 0fe8 1197      		com r25
 2454 0fea 8091 0000 		adiw r26,3+1
 2455 0fee 9927      		st X,r25
 2456 0ff0 87FD      		st -X,r24
 2457 0ff2 9095      		sbiw r26,3
 2458 0ff4 1496      		call printf
 2460 0ff8 8E93      	.LM155:
 2461 0ffa 1397      		ldi r24,lo8(.LC44)
 2462 0ffc 0E94 0000 		ldi r25,hi8(.LC44)
 2463               		in r30,__SP_L__
 2464               		in r31,__SP_H__
 2465 1000 80E0      		std Z+2,r25
 2466 1002 90E0      		std Z+1,r24
 2467 1004 EDB7      		lds r24,TRACETrajFlag
 2468 1006 FEB7      		lds r25,(TRACETrajFlag)+1
 2469 1008 9283      		std Z+4,r25
 2470 100a 8183      		std Z+3,r24
 2471 100c 8091 0000 		call printf
 2472 1010 9091 0000 		pop __tmp_reg__
 2473 1014 9483      		pop __tmp_reg__
 2474 1016 8383      		pop __tmp_reg__
 2475 1018 0E94 0000 		pop __tmp_reg__
 2476 101c 0F90      	.L44:
 2478 1020 0F90      	.LM156:
 2479 1022 0F90      		lds r24,rxCommand
 2480               		lds r25,(rxCommand)+1
 2481               		sbiw r24,12
 2482               		brne .L46
 2484 1028 9091 0000 	.LM157:
 2485 102c 0C97      		rcall .
 2486 102e 01F4      		rcall .
 2487               		rcall .
 2488               		ldi r24,lo8(.LC45)
 2489 1030 00D0      		ldi r25,hi8(.LC45)
 2490 1032 00D0      		in r26,__SP_L__
 2491 1034 00D0      		in r27,__SP_H__
 2492 1036 80E0      		adiw r26,1+1
 2493 1038 90E0      		st X,r25
 2494 103a ADB7      		st -X,r24
 2495 103c BEB7      		sbiw r26,1
 2496 103e 1296      		lds r24,rxCommand+4
 2497 1040 9C93      		lds r25,(rxCommand+4)+1
 2498 1042 8E93      		lds r26,(rxCommand+4)+2
 2499 1044 1197      		lds r27,(rxCommand+4)+3
 2500 1046 8091 0000 		in r30,__SP_L__
 2501 104a 9091 0000 		in r31,__SP_H__
 2502 104e A091 0000 		std Z+3,r24
 2503 1052 B091 0000 		std Z+4,r25
 2504 1056 EDB7      		std Z+5,r26
 2505 1058 FEB7      		std Z+6,r27
 2506 105a 8383      		call printf
 2507 105c 9483      		in r18,__SP_L__
 2508 105e A583      		in r19,__SP_H__
 2509 1060 B683      		subi r18,lo8(-(6))
 2510 1062 0E94 0000 		sbci r19,hi8(-(6))
 2511 1066 2DB7      		in __tmp_reg__,__SREG__
 2512 1068 3EB7      		cli
 2513 106a 2A5F      		out __SP_H__,r19
 2514 106c 3F4F      		out __SREG__,__tmp_reg__
 2515 106e 0FB6      		out __SP_L__,r18
 2516 1070 F894      	.L46:
 2518 1074 0FBE      	.LM158:
 2519 1076 2DBF      		lds r24,rxCommand
 2520               		lds r25,(rxCommand)+1
 2521               		sbiw r24,14
 2522               		brne .L47
 2524 107c 9091 0000 	.LM159:
 2525 1080 0E97      		call maxavail
 2527               	.LM160:
 2528               		rcall .
 2529 1084 0E94 0000 		rcall .
 2530               		ldi r18,lo8(.LC46)
 2531               		ldi r19,hi8(.LC46)
 2532 1088 00D0      		in r26,__SP_L__
 2533 108a 00D0      		in r27,__SP_H__
 2534 108c 20E0      		adiw r26,1+1
 2535 108e 30E0      		st X,r19
 2536 1090 ADB7      		st -X,r18
 2537 1092 BEB7      		sbiw r26,1
 2538 1094 1296      		adiw r26,3+1
 2539 1096 3C93      		st X,r25
 2540 1098 2E93      		st -X,r24
 2541 109a 1197      		sbiw r26,3
 2542 109c 1496      		call printf
 2543 109e 9C93      		pop __tmp_reg__
 2544 10a0 8E93      		pop __tmp_reg__
 2545 10a2 1397      		pop __tmp_reg__
 2546 10a4 0E94 0000 		pop __tmp_reg__
 2547 10a8 0F90      	.L47:
 2549 10ac 0F90      	.LM161:
 2550 10ae 0F90      		lds r24,rxCommand
 2551               		lds r25,(rxCommand)+1
 2552               		sbiw r24,1
 2553               		brne .L48
 2555 10b4 9091 0000 	.LM162:
 2556 10b8 0197      		ldi r24,lo8(.LC47)
 2557 10ba 01F4      		ldi r25,hi8(.LC47)
 2558               		call puts
 2560 10bc 80E0      	.LM163:
 2561 10be 90E0      		call go_home
 2562 10c0 0E94 0000 	.L48:
 2564               	.LM164:
 2565 10c4 0E94 0000 		lds r24,rxCommand
 2566               		lds r25,(rxCommand)+1
 2567               		sbiw r24,15
 2568               		brne .L49
 2570 10cc 9091 0000 	.LM165:
 2571 10d0 0F97      		ldi r24,lo8(.LC48)
 2572 10d2 01F4      		ldi r25,hi8(.LC48)
 2573               		call puts
 2575 10d4 80E0      	.LM166:
 2576 10d6 90E0      		lds r24,rxCommand+2
 2577 10d8 0E94 0000 		lds r25,(rxCommand+2)+1
 2578               		call AxisName
 2579               		rcall .
 2580 10dc 8091 0000 		rcall .
 2581 10e0 9091 0000 		ldi r18,lo8(.LC49)
 2582 10e4 0E94 0000 		ldi r19,hi8(.LC49)
 2583 10e8 00D0      		in r30,__SP_L__
 2584 10ea 00D0      		in r31,__SP_H__
 2585 10ec 20E0      		std Z+2,r19
 2586 10ee 30E0      		std Z+1,r18
 2587 10f0 EDB7      		std Z+4,r25
 2588 10f2 FEB7      		std Z+3,r24
 2589 10f4 3283      		call printf
 2591 10f8 9483      	.LM167:
 2592 10fa 8383      		pop __tmp_reg__
 2593 10fc 0E94 0000 		pop __tmp_reg__
 2594               		pop __tmp_reg__
 2595               		pop __tmp_reg__
 2596 1100 0F90      		lds r24,rxCommand+2
 2597 1102 0F90      		lds r25,(rxCommand+2)+1
 2598 1104 0F90      		ldi r22,lo8(-18)
 2599 1106 0F90      		ldi r23,hi8(-18)
 2600 1108 8091 0000 		call PMDCheckSignalStatus
 2601 110c 9091 0000 	.L49:
 2603 1112 7FEF      	.LM168:
 2604 1114 0E94 0000 		lds r24,rxCommand
 2605               		lds r25,(rxCommand)+1
 2606               		sbiw r24,16
 2607               		brne .L50
 2609 111c 9091 0000 	.LM169:
 2610 1120 4097      		ldi r24,lo8(.LC50)
 2611 1122 01F4      		ldi r25,hi8(.LC50)
 2612               		call puts
 2614 1124 80E0      	.LM170:
 2615 1126 90E0      		lds r24,rxCommand+2
 2616 1128 0E94 0000 		lds r25,(rxCommand+2)+1
 2617               		call AxisName
 2618               		rcall .
 2619 112c 8091 0000 		rcall .
 2620 1130 9091 0000 		ldi r18,lo8(.LC51)
 2621 1134 0E94 0000 		ldi r19,hi8(.LC51)
 2622 1138 00D0      		in r26,__SP_L__
 2623 113a 00D0      		in r27,__SP_H__
 2624 113c 20E0      		adiw r26,1+1
 2625 113e 30E0      		st X,r19
 2626 1140 ADB7      		st -X,r18
 2627 1142 BEB7      		sbiw r26,1
 2628 1144 1296      		adiw r26,3+1
 2629 1146 3C93      		st X,r25
 2630 1148 2E93      		st -X,r24
 2631 114a 1197      		sbiw r26,3
 2632 114c 1496      		call printf
 2634 1150 8E93      	.LM171:
 2635 1152 1397      		pop __tmp_reg__
 2636 1154 0E94 0000 		pop __tmp_reg__
 2637               		pop __tmp_reg__
 2638               		pop __tmp_reg__
 2639 1158 0F90      		lds r24,rxCommand+2
 2640 115a 0F90      		lds r25,(rxCommand+2)+1
 2641 115c 0F90      		ldi r22,lo8(-18)
 2642 115e 0F90      		ldi r23,hi8(-18)
 2643 1160 8091 0000 		call PMDCheckEventStatus
 2644 1164 9091 0000 	.L50:
 2646 116a 7FEF      	.LM172:
 2647 116c 0E94 0000 		lds r24,rxCommand
 2648               		lds r25,(rxCommand)+1
 2649               		sbiw r24,17
 2650               		brne .L51
 2652 1174 9091 0000 	.LM173:
 2653 1178 4197      		ldi r24,lo8(.LC52)
 2654 117a 01F4      		ldi r25,hi8(.LC52)
 2655               		call puts
 2657 117c 80E0      	.LM174:
 2658 117e 90E0      		lds r24,rxCommand+2
 2659 1180 0E94 0000 		lds r25,(rxCommand+2)+1
 2660               		call AxisName
 2661               		rcall .
 2662 1184 8091 0000 		rcall .
 2663 1188 9091 0000 		ldi r18,lo8(.LC53)
 2664 118c 0E94 0000 		ldi r19,hi8(.LC53)
 2665 1190 00D0      		in r30,__SP_L__
 2666 1192 00D0      		in r31,__SP_H__
 2667 1194 20E0      		std Z+2,r19
 2668 1196 30E0      		std Z+1,r18
 2669 1198 EDB7      		std Z+4,r25
 2670 119a FEB7      		std Z+3,r24
 2671 119c 3283      		call printf
 2673 11a0 9483      	.LM175:
 2674 11a2 8383      		pop __tmp_reg__
 2675 11a4 0E94 0000 		pop __tmp_reg__
 2676               		pop __tmp_reg__
 2677               		pop __tmp_reg__
 2678 11a8 0F90      		lds r24,rxCommand+2
 2679 11aa 0F90      		lds r25,(rxCommand+2)+1
 2680 11ac 0F90      		ldi r22,lo8(-18)
 2681 11ae 0F90      		ldi r23,hi8(-18)
 2682 11b0 8091 0000 		call PMDCheckActivityStatus
 2683 11b4 9091 0000 	.L51:
 2685 11ba 7FEF      	.LM176:
 2686 11bc 0E94 0000 		lds r24,rxCommand
 2687               		lds r25,(rxCommand)+1
 2688               		sbiw r24,18
 2689               		breq .+2
 2690 11c0 8091 0000 		rjmp .L61
 2692 11c8 4297      	.LM177:
 2693 11ca 01F0      		rcall .
 2694 11cc 00C0      		rcall .
 2695               		rcall .
 2696               		in r30,__SP_L__
 2697 11ce 00D0      		in r31,__SP_H__
 2698 11d0 00D0      		adiw r30,1
 2699 11d2 00D0      		lds r24,rxCommand+2
 2700 11d4 EDB7      		lds r25,(rxCommand+2)+1
 2701 11d6 FEB7      		ldi r18,lo8(readerror)
 2702 11d8 3196      		ldi r19,hi8(readerror)
 2703 11da 8091 0000 		in r26,__SP_L__
 2704 11de 9091 0000 		in r27,__SP_H__
 2705 11e2 20E0      		adiw r26,1+1
 2706 11e4 30E0      		st X,r19
 2707 11e6 ADB7      		st -X,r18
 2708 11e8 BEB7      		sbiw r26,1
 2709 11ea 1296      		ldi r18,lo8(cuentas_encoder)
 2710 11ec 3C93      		ldi r19,hi8(cuentas_encoder)
 2711 11ee 2E93      		std Z+3,r19
 2712 11f0 1197      		std Z+2,r18
 2713 11f2 20E0      		ldi r18,lo8(micropasos)
 2714 11f4 30E0      		ldi r19,hi8(micropasos)
 2715 11f6 3383      		std Z+5,r19
 2716 11f8 2283      		std Z+4,r18
 2717 11fa 20E0      		ldi r22,lo8(position1)
 2718 11fc 30E0      		ldi r23,hi8(position1)
 2719 11fe 3583      		ldi r20,lo8(velocity1)
 2720 1200 2483      		ldi r21,hi8(velocity1)
 2721 1202 60E0      		ldi r18,lo8(acceleration1)
 2722 1204 70E0      		ldi r19,hi8(acceleration1)
 2723 1206 40E0      		ldi r16,lo8(deceleration)
 2724 1208 50E0      		ldi r17,hi8(deceleration)
 2725 120a 20E0      		ldi r31,lo8(commandedposition)
 2726 120c 30E0      		mov r14,r31
 2727 120e 00E0      		ldi r31,hi8(commandedposition)
 2728 1210 10E0      		mov r15,r31
 2729 1212 F0E0      		ldi r30,lo8(commandedvelocity)
 2730 1214 EF2E      		mov r12,r30
 2731 1216 F0E0      		ldi r30,hi8(commandedvelocity)
 2732 1218 FF2E      		mov r13,r30
 2733 121a E0E0      		ldi r27,lo8(commandedacceleration)
 2734 121c CE2E      		mov r10,r27
 2735 121e E0E0      		ldi r27,hi8(commandedacceleration)
 2736 1220 DE2E      		mov r11,r27
 2737 1222 B0E0      		ldi r26,lo8(readencoder1)
 2738 1224 AB2E      		mov r8,r26
 2739 1226 B0E0      		ldi r26,hi8(readencoder1)
 2740 1228 BB2E      		mov r9,r26
 2741 122a A0E0      		call infomov
 2742 122c 8A2E      		in r30,__SP_L__
 2743 122e A0E0      		in r31,__SP_H__
 2744 1230 9A2E      		adiw r30,6
 2745 1232 0E94 0000 		rjmp .L70
 2746 1236 EDB7      	.L19:
 2748 123a 3696      	.LM178:
 2749 123c 00C0      		rcall .
 2750               		rcall .
 2751               		ldi r24,lo8(.LC34)
 2752               		ldi r25,hi8(.LC34)
 2753 123e 00D0      		in r26,__SP_L__
 2754 1240 00D0      		in r27,__SP_H__
 2755 1242 80E0      		adiw r26,1+1
 2756 1244 90E0      		st X,r25
 2757 1246 ADB7      		st -X,r24
 2758 1248 BEB7      		sbiw r26,1
 2759 124a 1296      		lds r24,rxTrajectory
 2760 124c 9C93      		lds r25,(rxTrajectory)+1
 2761 124e 8E93      		adiw r26,3+1
 2762 1250 1197      		st X,r25
 2763 1252 8091 0000 		st -X,r24
 2764 1256 9091 0000 		sbiw r26,3
 2765 125a 1496      		call printf
 2767 125e 8E93      	.LM179:
 2768 1260 1397      		ldi r24,lo8(.LC33)
 2769 1262 0E94 0000 		ldi r25,hi8(.LC33)
 2770               		in r30,__SP_L__
 2771               		in r31,__SP_H__
 2772 1266 80E0      		std Z+2,r25
 2773 1268 90E0      		std Z+1,r24
 2774 126a EDB7      		lds r24,rxTrajectory+2
 2775 126c FEB7      		lds r25,(rxTrajectory+2)+1
 2776 126e 9283      		std Z+4,r25
 2777 1270 8183      		std Z+3,r24
 2778 1272 8091 0000 		call printf
 2779 1276 9091 0000 		clr r10
 2780 127a 9483      		clr r11
 2781 127c 8383      		clr r8
 2782 127e 0E94 0000 		clr r9
 2783 1282 AA24      		pop __tmp_reg__
 2784 1284 BB24      		pop __tmp_reg__
 2785 1286 8824      		pop __tmp_reg__
 2786 1288 9924      		pop __tmp_reg__
 2788 128c 0F90      	.LM180:
 2789 128e 0F90      		ldi r31,lo8(.LC54)
 2790 1290 0F90      		mov r2,r31
 2791               		ldi r31,hi8(.LC54)
 2792               		mov r3,r31
 2794 1294 2F2E      	.LM181:
 2795 1296 F0E0      		ldi r30,lo8(.LC31)
 2796 1298 3F2E      		mov r4,r30
 2797               		ldi r30,hi8(.LC31)
 2798               		mov r5,r30
 2800 129c 4E2E      	.LM182:
 2801 129e E0E0      		ldi r23,lo8(.LC32)
 2802 12a0 5E2E      		mov r6,r23
 2803               		ldi r23,hi8(.LC32)
 2804               		mov r7,r23
 2805 12a2 70E0      		rjmp .L52
 2806 12a4 672E      	.L55:
 2808 12a8 772E      	.LM183:
 2809 12aa 00C0      		rcall .
 2810               		rcall .
 2811               		in r26,__SP_L__
 2812               		in r27,__SP_H__
 2813 12ac 00D0      		adiw r26,1+1
 2814 12ae 00D0      		st X,r3
 2815 12b0 ADB7      		st -X,r2
 2816 12b2 BEB7      		sbiw r26,1
 2817 12b4 1296      		adiw r26,3+1
 2818 12b6 3C92      		st X,r11
 2819 12b8 2E92      		st -X,r10
 2820 12ba 1197      		sbiw r26,3
 2821 12bc 1496      		call printf
 2822 12be BC92      		clr r12
 2823 12c0 AE92      		clr r13
 2824 12c2 1397      		pop __tmp_reg__
 2825 12c4 0E94 0000 		pop __tmp_reg__
 2826 12c8 CC24      		pop __tmp_reg__
 2827 12ca DD24      		pop __tmp_reg__
 2828 12cc 0F90      	.L53:
 2830 12d0 0F90      	.LM184:
 2831 12d2 0F90      		movw r24,r12
 2832               		call AxisName
 2833               		in r30,__SP_L__
 2834               		in r31,__SP_H__
 2835 12d4 C601      		sbiw r30,8
 2836 12d6 0E94 0000 		in __tmp_reg__,__SREG__
 2837 12da EDB7      		cli
 2838 12dc FEB7      		out __SP_H__,r31
 2839 12de 3897      		out __SREG__,__tmp_reg__
 2840 12e0 0FB6      		out __SP_L__,r30
 2841 12e2 F894      		in r18,__SP_L__
 2842 12e4 FEBF      		in r19,__SP_H__
 2843 12e6 0FBE      		subi r18,lo8(-(1))
 2844 12e8 EDBF      		sbci r19,hi8(-(1))
 2845 12ea 2DB7      		std Z+2,r5
 2846 12ec 3EB7      		std Z+1,r4
 2847 12ee 2F5F      		movw r26,r18
 2848 12f0 3F4F      		adiw r26,2+1
 2849 12f2 5282      		st X,r25
 2850 12f4 4182      		st -X,r24
 2851 12f6 D901      		sbiw r26,2
 2852 12f8 1396      		lds r30,rxTrajectory+4
 2853 12fa 9C93      		lds r31,(rxTrajectory+4)+1
 2854 12fc 8E93      		add r30,r8
 2855 12fe 1297      		adc r31,r9
 2856 1300 E091 0000 		movw r16,r12
 2857 1304 F091 0000 		lsl r16
 2858 1308 E80D      		rol r17
 2859 130a F91D      		add r16,r12
 2860 130c 8601      		adc r17,r13
 2861 130e 000F      		movw r14,r16
 2862 1310 111F      		lsl r14
 2863 1312 0C0D      		rol r15
 2864 1314 1D1D      		lsl r14
 2865 1316 7801      		rol r15
 2866 1318 EE0C      		add r30,r14
 2867 131a FF1C      		adc r31,r15
 2868 131c EE0C      		ld r24,Z
 2869 131e FF1C      		ldd r25,Z+1
 2870 1320 EE0D      		ldd r26,Z+2
 2871 1322 FF1D      		ldd r27,Z+3
 2872 1324 8081      		movw r30,r18
 2873 1326 9181      		std Z+4,r24
 2874 1328 A281      		std Z+5,r25
 2875 132a B381      		std Z+6,r26
 2876 132c F901      		std Z+7,r27
 2877 132e 8483      		call printf
 2879 1332 A683      	.LM185:
 2880 1334 B783      		lds r30,rxTrajectory+4
 2881 1336 0E94 0000 		lds r31,(rxTrajectory+4)+1
 2882               		add r30,r8
 2883               		adc r31,r9
 2884 133a E091 0000 		rcall .
 2885 133e F091 0000 		in r18,__SP_L__
 2886 1342 E80D      		in r19,__SP_H__
 2887 1344 F91D      		subi r18,lo8(-(1))
 2888 1346 00D0      		sbci r19,hi8(-(1))
 2889 1348 2DB7      		in r26,__SP_L__
 2890 134a 3EB7      		in r27,__SP_H__
 2891 134c 2F5F      		adiw r26,1+1
 2892 134e 3F4F      		st X,r7
 2893 1350 ADB7      		st -X,r6
 2894 1352 BEB7      		sbiw r26,1
 2895 1354 1296      		subi r16,lo8(-(1))
 2896 1356 7C92      		sbci r17,hi8(-(1))
 2897 1358 6E92      		lsl r16
 2898 135a 1197      		rol r17
 2899 135c 0F5F      		lsl r16
 2900 135e 1F4F      		rol r17
 2901 1360 000F      		add r16,r30
 2902 1362 111F      		adc r17,r31
 2903 1364 000F      		movw r26,r16
 2904 1366 111F      		ld r20,X+
 2905 1368 0E0F      		ld r21,X+
 2906 136a 1F1F      		ld r22,X+
 2907 136c D801      		ld r23,X
 2908 136e 4D91      		movw r26,r18
 2909 1370 5D91      		adiw r26,2
 2910 1372 6D91      		st X+,r20
 2911 1374 7C91      		st X+,r21
 2912 1376 D901      		st X+,r22
 2913 1378 1296      		st X,r23
 2914 137a 4D93      		sbiw r26,2+3
 2915 137c 5D93      		add r30,r14
 2916 137e 6D93      		adc r31,r15
 2917 1380 7C93      		ldd r24,Z+8
 2918 1382 1597      		ldd r25,Z+9
 2919 1384 EE0D      		ldd r26,Z+10
 2920 1386 FF1D      		ldd r27,Z+11
 2921 1388 8085      		movw r30,r18
 2922 138a 9185      		std Z+6,r24
 2923 138c A285      		std Z+7,r25
 2924 138e B385      		std Z+8,r26
 2925 1390 F901      		std Z+9,r27
 2926 1392 8683      		call printf
 2928 1396 A087      	.LM186:
 2929 1398 B187      		sec
 2930 139a 0E94 0000 		adc r12,__zero_reg__
 2931               		adc r13,__zero_reg__
 2932               		in r18,__SP_L__
 2933 139e 0894      		in r19,__SP_H__
 2934 13a0 C11C      		subi r18,lo8(-(10))
 2935 13a2 D11C      		sbci r19,hi8(-(10))
 2936 13a4 2DB7      		in __tmp_reg__,__SREG__
 2937 13a6 3EB7      		cli
 2938 13a8 265F      		out __SP_H__,r19
 2939 13aa 3F4F      		out __SREG__,__tmp_reg__
 2940 13ac 0FB6      		out __SP_L__,r18
 2941 13ae F894      		ldi r19,lo8(5)
 2942 13b0 3EBF      		cp r12,r19
 2943 13b2 0FBE      		cpc r13,__zero_reg__
 2944 13b4 2DBF      		breq .+2
 2945 13b6 35E0      		rjmp .L53
 2946 13b8 C316      		ldi r24,lo8(61)
 2947 13ba D104      		ldi r25,hi8(61)
 2948 13bc 01F0      		add r8,r24
 2949 13be 00C0      		adc r9,r25
 2951 13c2 90E0      	.LM187:
 2952 13c4 880E      		ldi r25,lo8(11)
 2953 13c6 991E      		cp r10,r25
 2954               		cpc r11,__zero_reg__
 2955               		breq .L54
 2957 13ca A916      	.LM188:
 2958 13cc B104      		sec
 2959 13ce 01F0      		adc r10,__zero_reg__
 2960               		adc r11,__zero_reg__
 2961               	.L52:
 2962 13d0 0894      		lds r24,rxTrajectory
 2963 13d2 A11C      		lds r25,(rxTrajectory)+1
 2964 13d4 B11C      		cp r10,r24
 2965               		cpc r11,r25
 2966 13d6 8091 0000 		brge .+2
 2967 13da 9091 0000 		rjmp .L55
 2968 13de A816      	.L54:
 2970 13e2 04F4      	.LM189:
 2971 13e4 00C0      		ldi r24,lo8(.LC55)
 2972               		ldi r25,hi8(.LC55)
 2973               		call puts
 2975 13e6 80E0      	.LM190:
 2976 13e8 90E0      		lds r22,TRACETrajFlag
 2977 13ea 0E94 0000 		lds r23,(TRACETrajFlag)+1
 2978               		ldi r24,lo8(rxTrajectory)
 2979               		ldi r25,hi8(rxTrajectory)
 2980 13ee 6091 0000 		rjmp .L71
 2981 13f2 7091 0000 	.L74:
 2983 13f8 90E0      	.LM191:
 2984 13fa 00C0      		lds r30,rxvector
 2985               		lds r31,(rxvector)+1
 2986               		ld r14,Z
 2987               		ldd r15,Z+1
 2989 1400 F091 0000 	.LM192:
 2990 1404 E080      		rcall .
 2991 1406 F180      		rcall .
 2992               		ldi r24,lo8(.LC56)
 2993               		ldi r25,hi8(.LC56)
 2994 1408 00D0      		in r26,__SP_L__
 2995 140a 00D0      		in r27,__SP_H__
 2996 140c 80E0      		adiw r26,1+1
 2997 140e 90E0      		st X,r25
 2998 1410 ADB7      		st -X,r24
 2999 1412 BEB7      		sbiw r26,1
 3000 1414 1296      		adiw r26,3+1
 3001 1416 9C93      		st X,r15
 3002 1418 8E93      		st -X,r14
 3003 141a 1197      		sbiw r26,3
 3004 141c 1496      		call printf
 3005 141e FC92      		ldi r16,lo8(0)
 3006 1420 EE92      		ldi r17,hi8(0)
 3007 1422 1397      		pop __tmp_reg__
 3008 1424 0E94 0000 		pop __tmp_reg__
 3009 1428 00E0      		pop __tmp_reg__
 3010 142a 10E0      		pop __tmp_reg__
 3012 142e 0F90      	.LM193:
 3013 1430 0F90      		ldi r19,lo8(.LC57)
 3014 1432 0F90      		mov r12,r19
 3015               		ldi r19,hi8(.LC57)
 3016               		mov r13,r19
 3017 1434 30E0      		rjmp .L56
 3018 1436 C32E      	.L57:
 3019 1438 30E0      		rcall .
 3020 143a D32E      		rcall .
 3021 143c 00C0      		rcall .
 3022               		in r26,__SP_L__
 3023 143e 00D0      		in r27,__SP_H__
 3024 1440 00D0      		adiw r26,1
 3025 1442 00D0      		in r30,__SP_L__
 3026 1444 ADB7      		in r31,__SP_H__
 3027 1446 BEB7      		std Z+2,r13
 3028 1448 1196      		std Z+1,r12
 3029 144a EDB7      		adiw r26,2+1
 3030 144c FEB7      		st X,r17
 3031 144e D282      		st -X,r16
 3032 1450 C182      		sbiw r26,2
 3033 1452 1396      		movw r24,r16
 3034 1454 1C93      		lsl r24
 3035 1456 0E93      		rol r25
 3036 1458 1297      		lds r30,rxvector
 3037 145a C801      		lds r31,(rxvector)+1
 3038 145c 880F      		add r30,r24
 3039 145e 991F      		adc r31,r25
 3040 1460 E091 0000 		ld r24,Z
 3041 1464 F091 0000 		ldd r25,Z+1
 3042 1468 E80F      		adiw r26,4+1
 3043 146a F91F      		st X,r25
 3044 146c 8081      		st -X,r24
 3045 146e 9181      		sbiw r26,4
 3046 1470 1596      		call printf
 3048 1474 8E93      	.LM194:
 3049 1476 1497      		subi r16,lo8(-(1))
 3050 1478 0E94 0000 		sbci r17,hi8(-(1))
 3051               		in r18,__SP_L__
 3052               		in r19,__SP_H__
 3053 147c 0F5F      		subi r18,lo8(-(6))
 3054 147e 1F4F      		sbci r19,hi8(-(6))
 3055 1480 2DB7      		in __tmp_reg__,__SREG__
 3056 1482 3EB7      		cli
 3057 1484 2A5F      		out __SP_H__,r19
 3058 1486 3F4F      		out __SREG__,__tmp_reg__
 3059 1488 0FB6      		out __SP_L__,r18
 3060 148a F894      	.L56:
 3061 148c 3EBF      		cp r16,r14
 3062 148e 0FBE      		cpc r17,r15
 3063 1490 2DBF      		brlt .L57
 3065 1492 0E15      	.LM195:
 3066 1494 1F05      		lds r24,rxvector
 3067 1496 04F0      		lds r25,(rxvector)+1
 3068               		call Vector2Trajectory
 3070 1498 8091 0000 	.LM196:
 3071 149c 9091 0000 		ldi r24,lo8(.LC58)
 3072 14a0 0E94 0000 		ldi r25,hi8(.LC58)
 3073               		call puts
 3075 14a4 80E0      	.LM197:
 3076 14a6 90E0      		lds r22,TRACETrajFlag
 3077 14a8 0E94 0000 		lds r23,(TRACETrajFlag)+1
 3078               		ldi r24,lo8(Trajectoryvector)
 3079               		ldi r25,hi8(Trajectoryvector)
 3080 14ac 6091 0000 	.L71:
 3081 14b0 7091 0000 		call PMDprocessTrajectory
 3082 14b4 80E0      		rjmp .L61
 3083 14b6 90E0      	.L23:
 3085 14b8 0E94 0000 	.LM198:
 3086 14bc 00C0      		ldi r24,lo8(.LC59)
 3087               		ldi r25,hi8(.LC59)
 3088               		call puts
 3090 14be 80E0      	.LM199:
 3091 14c0 90E0      		lds r18,rxFecha
 3092 14c2 0E94 0000 		lds r19,rxFecha+1
 3093               		lds r20,rxFecha+2
 3094               		lds r21,rxFecha+3
 3095 14c6 2091 0000 		lds r22,rxFecha+4
 3096 14ca 3091 0000 		lds r23,rxFecha+5
 3097 14ce 4091 0000 		lds r24,rxFecha+6
 3098 14d2 5091 0000 		lds r25,rxFecha+7
 3099 14d6 6091 0000 		call write_Fecha
 3101 14de 8091 0000 	.LM200:
 3102 14e2 9091 0000 		lds r24,rxFecha+6
 3103 14e6 0E94 0000 		call Dayname
 3104               		movw r16,r24
 3105               		lds r15,rxFecha+3
 3106 14ea 8091 0000 		lds r24,rxFecha+4
 3107 14ee 0E94 0000 		call Monthname
 3108 14f2 8C01      		in r26,__SP_L__
 3109 14f4 F090 0000 		in r27,__SP_H__
 3110 14f8 8091 0000 		sbiw r26,10
 3111 14fc 0E94 0000 		in __tmp_reg__,__SREG__
 3112 1500 ADB7      		cli
 3113 1502 BEB7      		out __SP_H__,r27
 3114 1504 1A97      		out __SREG__,__tmp_reg__
 3115 1506 0FB6      		out __SP_L__,r26
 3116 1508 F894      		in r30,__SP_L__
 3117 150a BEBF      		in r31,__SP_H__
 3118 150c 0FBE      		adiw r30,1
 3119 150e ADBF      		ldi r18,lo8(.LC60)
 3120 1510 EDB7      		ldi r19,hi8(.LC60)
 3121 1512 FEB7      		adiw r26,1+1
 3122 1514 3196      		st X,r19
 3123 1516 20E0      		st -X,r18
 3124 1518 30E0      		sbiw r26,1
 3125 151a 1296      		std Z+3,r17
 3126 151c 3C93      		std Z+2,r16
 3127 151e 2E93      		std Z+4,r15
 3128 1520 1197      		std Z+5,__zero_reg__
 3129 1522 1383      		std Z+7,r25
 3130 1524 0283      		std Z+6,r24
 3131 1526 F482      		lds r24,rxFecha+5
 3132 1528 1582      		std Z+8,r24
 3133 152a 9783      		std Z+9,__zero_reg__
 3134 152c 8683      		call printf
 3136 1532 8087      	.LM201:
 3137 1534 1186      		lds r24,rxFecha+2
 3138 1536 0E94 0000 		ldi r25,lo8(0)
 3139               		in r30,__SP_L__
 3140               		in r31,__SP_H__
 3141 153a 8091 0000 		adiw r30,10
 3142 153e 90E0      		in __tmp_reg__,__SREG__
 3143 1540 EDB7      		cli
 3144 1542 FEB7      		out __SP_H__,r31
 3145 1544 3A96      		out __SREG__,__tmp_reg__
 3146 1546 0FB6      		out __SP_L__,r30
 3147 1548 F894      		movw r18,r24
 3148 154a FEBF      		andi r18,lo8(31)
 3149 154c 0FBE      		andi r19,hi8(31)
 3150 154e EDBF      		sbrs r24,5
 3151 1550 9C01      		rjmp .L58
 3153 1554 3070      	.LM202:
 3154 1556 85FF      		in r24,__SP_L__
 3155 1558 00C0      		in r25,__SP_H__
 3156               		sbiw r24,8
 3157               		in __tmp_reg__,__SREG__
 3158 155a 8DB7      		cli
 3159 155c 9EB7      		out __SP_H__,r25
 3160 155e 0897      		out __SREG__,__tmp_reg__
 3161 1560 0FB6      		out __SP_L__,r24
 3162 1562 F894      		in r30,__SP_L__
 3163 1564 9EBF      		in r31,__SP_H__
 3164 1566 0FBE      		adiw r30,1
 3165 1568 8DBF      		ldi r24,lo8(.LC39)
 3166 156a EDB7      		ldi r25,hi8(.LC39)
 3167 156c FEB7      	.L72:
 3168 156e 3196      		in r26,__SP_L__
 3169 1570 80E0      		in r27,__SP_H__
 3170 1572 90E0      		adiw r26,1+1
 3171               		st X,r25
 3172 1574 ADB7      		st -X,r24
 3173 1576 BEB7      		sbiw r26,1
 3174 1578 1296      		std Z+3,r19
 3175 157a 9C93      		std Z+2,r18
 3176 157c 8E93      		lds r24,rxFecha+1
 3177 157e 1197      		std Z+4,r24
 3178 1580 3383      		std Z+5,__zero_reg__
 3179 1582 2283      		lds r24,rxFecha
 3180 1584 8091 0000 		std Z+6,r24
 3181 1588 8483      		std Z+7,__zero_reg__
 3182 158a 1582      		call printf
 3183 158c 8091 0000 		in r30,__SP_L__
 3184 1590 8683      		in r31,__SP_H__
 3185 1592 1782      		adiw r30,8
 3186 1594 0E94 0000 	.L70:
 3187 1598 EDB7      		in __tmp_reg__,__SREG__
 3188 159a FEB7      		cli
 3189 159c 3896      		out __SP_H__,r31
 3190               		out __SREG__,__tmp_reg__
 3191 159e 0FB6      		out __SP_L__,r30
 3192 15a0 F894      		rjmp .L61
 3193 15a2 FEBF      	.L58:
 3195 15a6 EDBF      	.LM203:
 3196 15a8 00C0      		in r24,__SP_L__
 3197               		in r25,__SP_H__
 3198               		sbiw r24,8
 3199               		in __tmp_reg__,__SREG__
 3200 15aa 8DB7      		cli
 3201 15ac 9EB7      		out __SP_H__,r25
 3202 15ae 0897      		out __SREG__,__tmp_reg__
 3203 15b0 0FB6      		out __SP_L__,r24
 3204 15b2 F894      		in r30,__SP_L__
 3205 15b4 9EBF      		in r31,__SP_H__
 3206 15b6 0FBE      		adiw r30,1
 3207 15b8 8DBF      		ldi r24,lo8(.LC40)
 3208 15ba EDB7      		ldi r25,hi8(.LC40)
 3209 15bc FEB7      		rjmp .L72
 3210 15be 3196      	.L24:
 3212 15c2 90E0      	.LM204:
 3213 15c4 00C0      		rcall .
 3214               		rcall .
 3215               		in r30,__SP_L__
 3216               		in r31,__SP_H__
 3217 15c6 00D0      		adiw r30,1
 3218 15c8 00D0      		ldi r24,lo8(.LC61)
 3219 15ca EDB7      		ldi r25,hi8(.LC61)
 3220 15cc FEB7      		in r26,__SP_L__
 3221 15ce 3196      		in r27,__SP_H__
 3222 15d0 80E0      		adiw r26,1+1
 3223 15d2 90E0      		st X,r25
 3224 15d4 ADB7      		st -X,r24
 3225 15d6 BEB7      		sbiw r26,1
 3226 15d8 1296      		lds r24,rxAlarma+6
 3227 15da 9C93      		std Z+2,r24
 3228 15dc 8E93      		std Z+3,__zero_reg__
 3229 15de 1197      		call printf
 3231 15e4 8283      	.LM205:
 3232 15e6 1382      		pop __tmp_reg__
 3233 15e8 0E94 0000 		pop __tmp_reg__
 3234               		pop __tmp_reg__
 3235               		pop __tmp_reg__
 3236 15ec 0F90      		lds r18,rxAlarma
 3237 15ee 0F90      		lds r19,rxAlarma+1
 3238 15f0 0F90      		lds r20,rxAlarma+2
 3239 15f2 0F90      		lds r21,rxAlarma+3
 3240 15f4 2091 0000 		lds r22,rxAlarma+4
 3241 15f8 3091 0000 		lds r23,rxAlarma+5
 3242 15fc 4091 0000 		lds r24,rxAlarma+6
 3243 1600 5091 0000 		call write_alarm
 3244 1604 6091 0000 	.LBB18:
 3245 1608 7091 0000 	.LBB19:
 3246 160c 8091 0000 	.LBB20:
 3247 1610 0E94 0000 	.LBB21:
 3249               	.Ltext1:
 3251               	.LM206:
 3252               		ldi r16,lo8(-25536)
 3253               		ldi r17,hi8(-25536)
   1:c:/winavr-20100110/lib/gcc/../../avr/include/util/delay_basic.h **** /* Copyright (c) 2002, Marek Michalkiewicz
   2:c:/winavr-20100110/lib/gcc/../../avr/include/util/delay_basic.h ****    Copyright (c) 2007 Joerg Wunsch
   3:c:/winavr-20100110/lib/gcc/../../avr/include/util/delay_basic.h ****    All rights reserved.
   4:c:/winavr-20100110/lib/gcc/../../avr/include/util/delay_basic.h **** 
   5:c:/winavr-20100110/lib/gcc/../../avr/include/util/delay_basic.h ****    Redistribution and use in source and binary forms, with or without
   6:c:/winavr-20100110/lib/gcc/../../avr/include/util/delay_basic.h ****    modification, are permitted provided that the following conditions are met:
   7:c:/winavr-20100110/lib/gcc/../../avr/include/util/delay_basic.h **** 
   8:c:/winavr-20100110/lib/gcc/../../avr/include/util/delay_basic.h ****    * Redistributions of source code must retain the above copyright
   9:c:/winavr-20100110/lib/gcc/../../avr/include/util/delay_basic.h ****      notice, this list of conditions and the following disclaimer.
  10:c:/winavr-20100110/lib/gcc/../../avr/include/util/delay_basic.h **** 
  11:c:/winavr-20100110/lib/gcc/../../avr/include/util/delay_basic.h ****    * Redistributions in binary form must reproduce the above copyright
  12:c:/winavr-20100110/lib/gcc/../../avr/include/util/delay_basic.h ****      notice, this list of conditions and the following disclaimer in
  13:c:/winavr-20100110/lib/gcc/../../avr/include/util/delay_basic.h ****      the documentation and/or other materials provided with the
  14:c:/winavr-20100110/lib/gcc/../../avr/include/util/delay_basic.h ****      distribution.
  15:c:/winavr-20100110/lib/gcc/../../avr/include/util/delay_basic.h **** 
  16:c:/winavr-20100110/lib/gcc/../../avr/include/util/delay_basic.h ****    * Neither the name of the copyright holders nor the names of
  17:c:/winavr-20100110/lib/gcc/../../avr/include/util/delay_basic.h ****      contributors may be used to endorse or promote products derived
  18:c:/winavr-20100110/lib/gcc/../../avr/include/util/delay_basic.h ****      from this software without specific prior written permission.
  19:c:/winavr-20100110/lib/gcc/../../avr/include/util/delay_basic.h **** 
  20:c:/winavr-20100110/lib/gcc/../../avr/include/util/delay_basic.h ****   THIS SOFTWARE IS PROVIDED BY THE COPYRIGHT HOLDERS AND CONTRIBUTORS "AS IS"
  21:c:/winavr-20100110/lib/gcc/../../avr/include/util/delay_basic.h ****   AND ANY EXPRESS OR IMPLIED WARRANTIES, INCLUDING, BUT NOT LIMITED TO, THE
  22:c:/winavr-20100110/lib/gcc/../../avr/include/util/delay_basic.h ****   IMPLIED WARRANTIES OF MERCHANTABILITY AND FITNESS FOR A PARTICULAR PURPOSE
  23:c:/winavr-20100110/lib/gcc/../../avr/include/util/delay_basic.h ****   ARE DISCLAIMED. IN NO EVENT SHALL THE COPYRIGHT OWNER OR CONTRIBUTORS BE
  24:c:/winavr-20100110/lib/gcc/../../avr/include/util/delay_basic.h ****   LIABLE FOR ANY DIRECT, INDIRECT, INCIDENTAL, SPECIAL, EXEMPLARY, OR
  25:c:/winavr-20100110/lib/gcc/../../avr/include/util/delay_basic.h ****   CONSEQUENTIAL DAMAGES (INCLUDING, BUT NOT LIMITED TO, PROCUREMENT OF
  26:c:/winavr-20100110/lib/gcc/../../avr/include/util/delay_basic.h ****   SUBSTITUTE GOODS OR SERVICES; LOSS OF USE, DATA, OR PROFITS; OR BUSINESS
  27:c:/winavr-20100110/lib/gcc/../../avr/include/util/delay_basic.h ****   INTERRUPTION) HOWEVER CAUSED AND ON ANY THEORY OF LIABILITY, WHETHER IN
  28:c:/winavr-20100110/lib/gcc/../../avr/include/util/delay_basic.h ****   CONTRACT, STRICT LIABILITY, OR TORT (INCLUDING NEGLIGENCE OR OTHERWISE)
  29:c:/winavr-20100110/lib/gcc/../../avr/include/util/delay_basic.h ****   ARISING IN ANY WAY OUT OF THE USE OF THIS SOFTWARE, EVEN IF ADVISED OF THE
  30:c:/winavr-20100110/lib/gcc/../../avr/include/util/delay_basic.h ****   POSSIBILITY OF SUCH DAMAGE. */
  31:c:/winavr-20100110/lib/gcc/../../avr/include/util/delay_basic.h **** 
  32:c:/winavr-20100110/lib/gcc/../../avr/include/util/delay_basic.h **** /* $Id: delay_basic.h,v 1.1 2007/05/13 21:23:20 joerg_wunsch Exp $ */
  33:c:/winavr-20100110/lib/gcc/../../avr/include/util/delay_basic.h **** 
  34:c:/winavr-20100110/lib/gcc/../../avr/include/util/delay_basic.h **** #ifndef _UTIL_DELAY_BASIC_H_
  35:c:/winavr-20100110/lib/gcc/../../avr/include/util/delay_basic.h **** #define _UTIL_DELAY_BASIC_H_ 1
  36:c:/winavr-20100110/lib/gcc/../../avr/include/util/delay_basic.h **** 
  37:c:/winavr-20100110/lib/gcc/../../avr/include/util/delay_basic.h **** #include <inttypes.h>
  38:c:/winavr-20100110/lib/gcc/../../avr/include/util/delay_basic.h **** 
  39:c:/winavr-20100110/lib/gcc/../../avr/include/util/delay_basic.h **** /** \file */
  40:c:/winavr-20100110/lib/gcc/../../avr/include/util/delay_basic.h **** /** \defgroup util_delay_basic <util/delay_basic.h>: Basic busy-wait delay loops
  41:c:/winavr-20100110/lib/gcc/../../avr/include/util/delay_basic.h ****     \code
  42:c:/winavr-20100110/lib/gcc/../../avr/include/util/delay_basic.h ****     #include <util/delay_basic.h>
  43:c:/winavr-20100110/lib/gcc/../../avr/include/util/delay_basic.h ****     \endcode
  44:c:/winavr-20100110/lib/gcc/../../avr/include/util/delay_basic.h **** 
  45:c:/winavr-20100110/lib/gcc/../../avr/include/util/delay_basic.h ****     The functions in this header file implement simple delay loops
  46:c:/winavr-20100110/lib/gcc/../../avr/include/util/delay_basic.h ****     that perform a busy-waiting.  They are typically used to
  47:c:/winavr-20100110/lib/gcc/../../avr/include/util/delay_basic.h ****     facilitate short delays in the program execution.  They are
  48:c:/winavr-20100110/lib/gcc/../../avr/include/util/delay_basic.h ****     implemented as count-down loops with a well-known CPU cycle
  49:c:/winavr-20100110/lib/gcc/../../avr/include/util/delay_basic.h ****     count per loop iteration.  As such, no other processing can
  50:c:/winavr-20100110/lib/gcc/../../avr/include/util/delay_basic.h ****     occur simultaneously.  It should be kept in mind that the
  51:c:/winavr-20100110/lib/gcc/../../avr/include/util/delay_basic.h ****     functions described here do not disable interrupts.
  52:c:/winavr-20100110/lib/gcc/../../avr/include/util/delay_basic.h **** 
  53:c:/winavr-20100110/lib/gcc/../../avr/include/util/delay_basic.h ****     In general, for long delays, the use of hardware timers is
  54:c:/winavr-20100110/lib/gcc/../../avr/include/util/delay_basic.h ****     much preferrable, as they free the CPU, and allow for
  55:c:/winavr-20100110/lib/gcc/../../avr/include/util/delay_basic.h ****     concurrent processing of other events while the timer is
  56:c:/winavr-20100110/lib/gcc/../../avr/include/util/delay_basic.h ****     running.  However, in particular for very short delays, the
  57:c:/winavr-20100110/lib/gcc/../../avr/include/util/delay_basic.h ****     overhead of setting up a hardware timer is too much compared
  58:c:/winavr-20100110/lib/gcc/../../avr/include/util/delay_basic.h ****     to the overall delay time.
  59:c:/winavr-20100110/lib/gcc/../../avr/include/util/delay_basic.h **** 
  60:c:/winavr-20100110/lib/gcc/../../avr/include/util/delay_basic.h ****     Two inline functions are provided for the actual delay algorithms.
  61:c:/winavr-20100110/lib/gcc/../../avr/include/util/delay_basic.h **** 
  62:c:/winavr-20100110/lib/gcc/../../avr/include/util/delay_basic.h **** */
  63:c:/winavr-20100110/lib/gcc/../../avr/include/util/delay_basic.h **** 
  64:c:/winavr-20100110/lib/gcc/../../avr/include/util/delay_basic.h **** #if !defined(__DOXYGEN__)
  65:c:/winavr-20100110/lib/gcc/../../avr/include/util/delay_basic.h **** static inline void _delay_loop_1(uint8_t __count) __attribute__((always_inline));
  66:c:/winavr-20100110/lib/gcc/../../avr/include/util/delay_basic.h **** static inline void _delay_loop_2(uint16_t __count) __attribute__((always_inline));
  67:c:/winavr-20100110/lib/gcc/../../avr/include/util/delay_basic.h **** #endif
  68:c:/winavr-20100110/lib/gcc/../../avr/include/util/delay_basic.h **** 
  69:c:/winavr-20100110/lib/gcc/../../avr/include/util/delay_basic.h **** /** \ingroup util_delay_basic
  70:c:/winavr-20100110/lib/gcc/../../avr/include/util/delay_basic.h **** 
  71:c:/winavr-20100110/lib/gcc/../../avr/include/util/delay_basic.h ****     Delay loop using an 8-bit counter \c __count, so up to 256
  72:c:/winavr-20100110/lib/gcc/../../avr/include/util/delay_basic.h ****     iterations are possible.  (The value 256 would have to be passed
  73:c:/winavr-20100110/lib/gcc/../../avr/include/util/delay_basic.h ****     as 0.)  The loop executes three CPU cycles per iteration, not
  74:c:/winavr-20100110/lib/gcc/../../avr/include/util/delay_basic.h ****     including the overhead the compiler needs to setup the counter
  75:c:/winavr-20100110/lib/gcc/../../avr/include/util/delay_basic.h ****     register.
  76:c:/winavr-20100110/lib/gcc/../../avr/include/util/delay_basic.h **** 
  77:c:/winavr-20100110/lib/gcc/../../avr/include/util/delay_basic.h ****     Thus, at a CPU speed of 1 MHz, delays of up to 768 microseconds
  78:c:/winavr-20100110/lib/gcc/../../avr/include/util/delay_basic.h ****     can be achieved.
  79:c:/winavr-20100110/lib/gcc/../../avr/include/util/delay_basic.h **** */
  80:c:/winavr-20100110/lib/gcc/../../avr/include/util/delay_basic.h **** void
  81:c:/winavr-20100110/lib/gcc/../../avr/include/util/delay_basic.h **** _delay_loop_1(uint8_t __count)
  82:c:/winavr-20100110/lib/gcc/../../avr/include/util/delay_basic.h **** {
  83:c:/winavr-20100110/lib/gcc/../../avr/include/util/delay_basic.h **** 	__asm__ volatile (
  84:c:/winavr-20100110/lib/gcc/../../avr/include/util/delay_basic.h **** 		"1: dec %0" "\n\t"
  85:c:/winavr-20100110/lib/gcc/../../avr/include/util/delay_basic.h **** 		"brne 1b"
  86:c:/winavr-20100110/lib/gcc/../../avr/include/util/delay_basic.h **** 		: "=r" (__count)
  87:c:/winavr-20100110/lib/gcc/../../avr/include/util/delay_basic.h **** 		: "0" (__count)
  88:c:/winavr-20100110/lib/gcc/../../avr/include/util/delay_basic.h **** 	);
  89:c:/winavr-20100110/lib/gcc/../../avr/include/util/delay_basic.h **** }
  90:c:/winavr-20100110/lib/gcc/../../avr/include/util/delay_basic.h **** 
  91:c:/winavr-20100110/lib/gcc/../../avr/include/util/delay_basic.h **** /** \ingroup util_delay_basic
  92:c:/winavr-20100110/lib/gcc/../../avr/include/util/delay_basic.h **** 
  93:c:/winavr-20100110/lib/gcc/../../avr/include/util/delay_basic.h ****     Delay loop using a 16-bit counter \c __count, so up to 65536
  94:c:/winavr-20100110/lib/gcc/../../avr/include/util/delay_basic.h ****     iterations are possible.  (The value 65536 would have to be
  95:c:/winavr-20100110/lib/gcc/../../avr/include/util/delay_basic.h ****     passed as 0.)  The loop executes four CPU cycles per iteration,
  96:c:/winavr-20100110/lib/gcc/../../avr/include/util/delay_basic.h ****     not including the overhead the compiler requires to setup the
  97:c:/winavr-20100110/lib/gcc/../../avr/include/util/delay_basic.h ****     counter register pair.
  98:c:/winavr-20100110/lib/gcc/../../avr/include/util/delay_basic.h **** 
  99:c:/winavr-20100110/lib/gcc/../../avr/include/util/delay_basic.h ****     Thus, at a CPU speed of 1 MHz, delays of up to about 262.1
 100:c:/winavr-20100110/lib/gcc/../../avr/include/util/delay_basic.h ****     milliseconds can be achieved.
 101:c:/winavr-20100110/lib/gcc/../../avr/include/util/delay_basic.h ****  */
 102:c:/winavr-20100110/lib/gcc/../../avr/include/util/delay_basic.h **** void
 103:c:/winavr-20100110/lib/gcc/../../avr/include/util/delay_basic.h **** _delay_loop_2(uint16_t __count)
 104:c:/winavr-20100110/lib/gcc/../../avr/include/util/delay_basic.h **** {
 105:c:/winavr-20100110/lib/gcc/../../avr/include/util/delay_basic.h **** 	__asm__ volatile (
 3254               	n	68,0,703,.LM207-.LFBB5
 3255               	.LM207:
 3256 1614 00E4      		movw r24,r28
 3257 1616 1CE9      		adiw r24,1
 3258 1618 C801      		call read_control
 3259               	.LBB22:
 3260               	.LBB23:
 3261 161a 0197      	.LBB24:
 3262 161c 01F4      	.LBB25:
 3264               	.Ltext3:
 3266               	.LM208:
 3267               		movw r24,r16
 3268               	/* #APP */
 3269               	 ;  105 "c:/winavr-20100110/lib/gcc/../../avr/include/util/delay_basic.h" 1
 3270               		1: sbiw r24,1
 3271               		brne 1b
 3272               	 ;  0 "" 2
 3273 161e CE01      	/* #NOAPP */
 3274 1620 0196      	.LBE25:
 3275 1622 0E94 0000 	.LBE24:
 3276               	.LBE23:
 3277               	.LBE22:
 3279               	.Ltext4:
 3281               	.LM209:
 3282               		lds r24,rxAlarma+5
 3283               		tst r24
 3284 1626 C801      		breq .L59
 3286               	.LM210:
 3287 1628 0197      		ldi r24,lo8(-96)
 3288 162a 01F4      		rjmp .L69
 3289               	.L59:
 3291               	.LM211:
 3292               		ldi r24,lo8(32)
 3293               	.L69:
 3294               		std Y+2,r24
 3296               	.LM212:
 3297               		ldi r24,lo8(1)
 3298               		ldi r25,hi8(1)
 3299 162c 8091 0000 		sts (activo_alarma)+1,r25
 3300 1630 8823      		sts activo_alarma,r24
 3302               	.LM213:
 3303               		ldd r20,Y+1
 3304 1634 80EA      		ldd r21,Y+2
 3305 1636 00C0      		ldd r22,Y+3
 3306               		ldd r23,Y+4
 3307               		ldd r24,Y+5
 3308               		call write_control
 3309 1638 80E2      		rjmp .L61
 3310               	.L21:
 3312               	.LM214:
 3313               		rcall .
 3314 163c 81E0      		rcall .
 3315 163e 90E0      		rcall .
 3316 1640 9093 0000 		in r30,__SP_L__
 3317 1644 8093 0000 		in r31,__SP_H__
 3318               		adiw r30,1
 3319               		ldi r16,lo8(.LC62)
 3320 1648 4981      		ldi r17,hi8(.LC62)
 3321 164a 5A81      		in r26,__SP_L__
 3322 164c 6B81      		in r27,__SP_H__
 3323 164e 7C81      		adiw r26,1+1
 3324 1650 8D81      		st X,r17
 3325 1652 0E94 0000 		st -X,r16
 3326 1656 00C0      		sbiw r26,1
 3327               		std Z+3,__zero_reg__
 3328               		std Z+2,__zero_reg__
 3329               		lds r24,rxAxisSettings+10
 3330 1658 00D0      		lds r25,(rxAxisSettings+10)+1
 3331 165a 00D0      		std Z+5,r25
 3332 165c 00D0      		std Z+4,r24
 3333 165e EDB7      		call printf
 3334 1660 FEB7      		in r30,__SP_L__
 3335 1662 3196      		in r31,__SP_H__
 3336 1664 00E0      		adiw r30,1
 3337 1666 10E0      		in r26,__SP_L__
 3338 1668 ADB7      		in r27,__SP_H__
 3339 166a BEB7      		adiw r26,1+1
 3340 166c 1296      		st X,r17
 3341 166e 1C93      		st -X,r16
 3342 1670 0E93      		sbiw r26,1
 3343 1672 1197      		ldi r24,lo8(1)
 3344 1674 1382      		ldi r25,hi8(1)
 3345 1676 1282      		std Z+3,r25
 3346 1678 8091 0000 		std Z+2,r24
 3347 167c 9091 0000 		lds r24,rxAxisSettings+78
 3348 1680 9583      		lds r25,(rxAxisSettings+78)+1
 3349 1682 8483      		std Z+5,r25
 3350 1684 0E94 0000 		std Z+4,r24
 3351 1688 EDB7      		call printf
 3352 168a FEB7      		in r30,__SP_L__
 3353 168c 3196      		in r31,__SP_H__
 3354 168e ADB7      		adiw r30,1
 3355 1690 BEB7      		in r26,__SP_L__
 3356 1692 1296      		in r27,__SP_H__
 3357 1694 1C93      		adiw r26,1+1
 3358 1696 0E93      		st X,r17
 3359 1698 1197      		st -X,r16
 3360 169a 81E0      		sbiw r26,1
 3361 169c 90E0      		ldi r24,lo8(2)
 3362 169e 9383      		ldi r25,hi8(2)
 3363 16a0 8283      		std Z+3,r25
 3364 16a2 8091 0000 		std Z+2,r24
 3365 16a6 9091 0000 		lds r24,rxAxisSettings+146
 3366 16aa 9583      		lds r25,(rxAxisSettings+146)+1
 3367 16ac 8483      		std Z+5,r25
 3368 16ae 0E94 0000 		std Z+4,r24
 3369 16b2 EDB7      		call printf
 3370 16b4 FEB7      		in r30,__SP_L__
 3371 16b6 3196      		in r31,__SP_H__
 3372 16b8 ADB7      		adiw r30,1
 3373 16ba BEB7      		in r26,__SP_L__
 3374 16bc 1296      		in r27,__SP_H__
 3375 16be 1C93      		adiw r26,1+1
 3376 16c0 0E93      		st X,r17
 3377 16c2 1197      		st -X,r16
 3378 16c4 82E0      		sbiw r26,1
 3379 16c6 90E0      		ldi r24,lo8(3)
 3380 16c8 9383      		ldi r25,hi8(3)
 3381 16ca 8283      		std Z+3,r25
 3382 16cc 8091 0000 		std Z+2,r24
 3383 16d0 9091 0000 		lds r24,rxAxisSettings+214
 3384 16d4 9583      		lds r25,(rxAxisSettings+214)+1
 3385 16d6 8483      		std Z+5,r25
 3386 16d8 0E94 0000 		std Z+4,r24
 3387 16dc EDB7      		call printf
 3388 16de FEB7      		in r30,__SP_L__
 3389 16e0 3196      		in r31,__SP_H__
 3390 16e2 ADB7      		adiw r30,1
 3391 16e4 BEB7      		in r26,__SP_L__
 3392 16e6 1296      		in r27,__SP_H__
 3393 16e8 1C93      		adiw r26,1+1
 3394 16ea 0E93      		st X,r17
 3395 16ec 1197      		st -X,r16
 3396 16ee 83E0      		sbiw r26,1
 3397 16f0 90E0      		ldi r24,lo8(4)
 3398 16f2 9383      		ldi r25,hi8(4)
 3399 16f4 8283      		std Z+3,r25
 3400 16f6 8091 0000 		std Z+2,r24
 3401 16fa 9091 0000 		lds r24,rxAxisSettings+282
 3402 16fe 9583      		lds r25,(rxAxisSettings+282)+1
 3403 1700 8483      		std Z+5,r25
 3404 1702 0E94 0000 		std Z+4,r24
 3405 1706 EDB7      		call printf
 3407 170a 3196      	.LM215:
 3408 170c ADB7      		in r30,__SP_L__
 3409 170e BEB7      		in r31,__SP_H__
 3410 1710 1296      		adiw r30,6
 3411 1712 1C93      		in __tmp_reg__,__SREG__
 3412 1714 0E93      		cli
 3413 1716 1197      		out __SP_H__,r31
 3414 1718 84E0      		out __SREG__,__tmp_reg__
 3415 171a 90E0      		out __SP_L__,r30
 3416 171c 9383      		ldi r24,lo8(rxAxisSettings)
 3417 171e 8283      		ldi r25,hi8(rxAxisSettings)
 3418 1720 8091 0000 		call Axissetting2hAxisHandle
 3419 1724 9091 0000 		or r24,r25
 3420 1728 9583      		breq .L61
 3422 172c 0E94 0000 	.LM216:
 3423               		ldi r24,lo8(0)
 3424               		call PMDsetupChipsets_USB
 3425 1730 EDB7      	.L61:
 3426 1732 FEB7      	/* epilogue start */
 3428 1736 0FB6      	.LM217:
 3429 1738 F894      		pop __tmp_reg__
 3430 173a FEBF      		pop __tmp_reg__
 3431 173c 0FBE      		pop __tmp_reg__
 3432 173e EDBF      		pop __tmp_reg__
 3433 1740 80E0      		pop __tmp_reg__
 3434 1742 90E0      		pop r28
 3435 1744 0E94 0000 		pop r29
 3436 1748 892B      		pop r17
 3437 174a 01F0      		pop r16
 3438               		pop r15
 3439               		pop r14
 3440 174c 80E0      		pop r13
 3441 174e 0E94 0000 		pop r12
 3442               		pop r11
 3443               		pop r10
 3444               		pop r9
 3445               		pop r8
 3446 1752 0F90      		pop r7
 3447 1754 0F90      		pop r6
 3448 1756 0F90      		pop r5
 3449 1758 0F90      		pop r4
 3450 175a 0F90      		pop r3
 3451 175c CF91      		pop r2
 3452 175e DF91      		ret
 3464 1776 6F90      	.Lscope5:
 3465 1778 5F90      		.data
 3466 177a 4F90      	.LC63:
 3467 177c 3F90      		.string	"main=> vector de poses, id_vector[%d] = %d \n"
 3468 177e 2F90      	.LC64:
 3469 1780 0895      		.string	"main=> Programa Jarboter Controller. "
 3470               	.LC65:
 3471               		.string	"Robot Jarboter Controller.\n"
 3472               	.LC66:
 3473               		.string	"Son las %x:%x:%x PM \n"
 3474               	.LC67:
 3475               		.string	"Son las %x:%x:%x AM \n"
 3476               	.LC68:
 3477               		.string	"main=> Se produjo Alarma=> Ejecutando Tarea programada"
 3478               	.LC69:
 3479               		.string	"Se produjo Alarma \n"
 3480               	.LC70:
 3481               		.string	"a las %x:%x:%x PM \n"
 3482               	.LC71:
 3483               		.string	"a las %x:%x:%x AM \n"
 3484 0a73 6D61 696E 		.text
 3484      3D3E 2076 
 3484      6563 746F 
 3484      7220 6465 
 3484      2070 6F73 
 3486 0aa0 6D61 696E 	.global	main
 3486      3D3E 2050 
 3486      726F 6772 
 3486      616D 6120 
 3486      4A61 7262 
 3488 0ac6 526F 626F 	main:
 3488      7420 4A61 
 3488      7262 6F74 
 3488      6572 2043 
 3488      6F6E 7472 
 3490 0ae2 536F 6E20 	.LM218:
 3490      6C61 7320 
 3490      2578 3A25 
 3490      783A 2578 
 3490      2050 4D20 
 3491               	.LFBB6:
 3492 0af8 536F 6E20 		push r2
 3492      6C61 7320 
 3492      2578 3A25 
 3492      783A 2578 
 3492      2041 4D20 
 3493               		push r3
 3494 0b0e 6D61 696E 		push r4
 3494      3D3E 2053 
 3494      6520 7072 
 3494      6F64 756A 
 3494      6F20 416C 
 3495               		push r5
 3496 0b45 5365 2070 		push r6
 3496      726F 6475 
 3496      6A6F 2041 
 3496      6C61 726D 
 3496      6120 0A00 
 3497               		push r7
 3498 0b59 6120 6C61 		push r8
 3498      7320 2578 
 3498      3A25 783A 
 3498      2578 2050 
 3498      4D20 0A00 
 3499               		push r9
 3500 0b6d 6120 6C61 		push r10
 3500      7320 2578 
 3500      3A25 783A 
 3500      2578 2041 
 3500      4D20 0A00 
 3501               		push r11
 3502               		push r12
 3503               		push r13
 3504               		push r14
 3505               		push r15
 3506               		push r16
 3507               		push r17
 3508               		push r29
 3509 1782 2F92      		push r28
 3510 1784 3F92      		in r28,__SP_L__
 3511 1786 4F92      		in r29,__SP_H__
 3512 1788 5F92      		sbiw r28,9
 3513 178a 6F92      		in __tmp_reg__,__SREG__
 3514 178c 7F92      		cli
 3515 178e 8F92      		out __SP_H__,r29
 3516 1790 9F92      		out __SREG__,__tmp_reg__
 3517 1792 AF92      		out __SP_L__,r28
 3518 1794 BF92      	/* prologue: function */
 3519 1796 CF92      	/* frame size = 9 */
 3521 179a EF92      	.LM219:
 3522 179c FF92      		lds r24,intflags
 3523 179e 0F93      		ori r24,lo8(1)
 3524 17a0 1F93      		sts intflags,r24
 3526 17a4 CF93      	.LM220:
 3527 17a6 CDB7      		lds r24,intflags
 3528 17a8 DEB7      		ori r24,lo8(2)
 3529 17aa 2997      		sts intflags,r24
 3531 17ae F894      	.LM221:
 3532 17b0 DEBF      		lds r24,intflags
 3533 17b2 0FBE      		ori r24,lo8(4)
 3534 17b4 CDBF      		sts intflags,r24
 3536               	.LM222:
 3537               		lds r24,intflags
 3538               		ori r24,lo8(8)
 3539 17b6 8091 0000 		sts intflags,r24
 3541 17bc 8093 0000 	.LM223:
 3542               		lds r24,intflags
 3543               		ori r24,lo8(16)
 3544 17c0 8091 0000 		sts intflags,r24
 3546 17c6 8093 0000 	.LM224:
 3547               		call initCard
 3549 17ca 8091 0000 	.LM225:
 3550 17ce 8460      		call uart_init
 3552               	.LM226:
 3553               		call lcd_init
 3555 17d8 8860      	.LM227:
 3556 17da 8093 0000 		call rtc_init
 3558               	.LM228:
 3559 17de 8091 0000 		ldi r24,lo8(uart_str)
 3560 17e2 8061      		ldi r25,hi8(uart_str)
 3561 17e4 8093 0000 		sts (__iob)+1,r25
 3562               		sts __iob,r24
 3563               		sts (__iob+2)+1,r25
 3564 17e8 0E94 0000 		sts __iob+2,r24
 3566               	.LM229:
 3567 17ec 0E94 0000 		ldi r24,lo8(lcd_str)
 3568               		ldi r25,hi8(lcd_str)
 3569               		sts (__iob+4)+1,r25
 3570 17f0 0E94 0000 		sts __iob+4,r24
 3572               	.LM230:
 3573 17f4 0E94 0000 		ldi r24,lo8(2)
 3574               		call Led_on
 3576 17f8 80E0      	.LM231:
 3577 17fa 90E0      		call delay_1s
 3579 1800 8093 0000 	.LM232:
 3580 1804 9093 0000 		ldi r24,lo8(0)
 3581 1808 8093 0000 		call Led_on
 3583               	.LM233:
 3584 180c 80E0      		call delay_1s
 3586 1810 9093 0000 	.LM234:
 3587 1814 8093 0000 		ldi r24,lo8(1)
 3588               		call Led_on
 3590 1818 82E0      	.LM235:
 3591 181a 0E94 0000 		call delay_1s
 3593               	.LM236:
 3594 181e 0E94 0000 		ldi r24,lo8(1)
 3595               		ldi r25,hi8(1)
 3596               		call Led_off
 3598 1824 0E94 0000 	.LM237:
 3599               		ldi r24,lo8(0)
 3600               		ldi r25,hi8(0)
 3601 1828 0E94 0000 		call Led_off
 3603               	.LM238:
 3604 182c 81E0      		ldi r24,lo8(2)
 3605 182e 0E94 0000 		ldi r25,hi8(2)
 3606               		call Led_off
 3608 1832 0E94 0000 	.LM239:
 3609               		rcall .
 3610               		rcall .
 3611 1836 81E0      		lds r24,__iob+4
 3612 1838 90E0      		lds r25,(__iob+4)+1
 3613 183a 0E94 0000 		in r26,__SP_L__
 3614               		in r27,__SP_H__
 3615               		adiw r26,1+1
 3616 183e 80E0      		st X,r25
 3617 1840 90E0      		st -X,r24
 3618 1842 0E94 0000 		sbiw r26,1
 3619               		ldi r24,lo8(__c.3647)
 3620               		ldi r25,hi8(__c.3647)
 3621 1846 82E0      		adiw r26,3+1
 3622 1848 90E0      		st X,r25
 3623 184a 0E94 0000 		st -X,r24
 3624               		sbiw r26,3
 3625               		call fprintf_P
 3627 1850 00D0      	.LM240:
 3628 1852 8091 0000 		pop __tmp_reg__
 3629 1856 9091 0000 		pop __tmp_reg__
 3630 185a ADB7      		pop __tmp_reg__
 3631 185c BEB7      		pop __tmp_reg__
 3632 185e 1296      		call selftestPMD
 3633 1860 9C93      		or r24,r25
 3634 1862 8E93      		breq .L76
 3636 1866 80E0      	.LM241:
 3637 1868 90E0      		rcall .
 3638 186a 1496      		rcall .
 3639 186c 9C93      		lds r24,__iob+4
 3640 186e 8E93      		lds r25,(__iob+4)+1
 3641 1870 1397      		in r30,__SP_L__
 3642 1872 0E94 0000 		in r31,__SP_H__
 3643               		std Z+2,r25
 3644               		std Z+1,r24
 3645 1876 0F90      		ldi r24,lo8(__c.3649)
 3646 1878 0F90      		ldi r25,hi8(__c.3649)
 3647 187a 0F90      		rjmp .L94
 3648 187c 0F90      	.L76:
 3650 1882 892B      	.LM242:
 3651 1884 01F0      		ldi r24,lo8(0)
 3652               		call PMDsetupChipSets
 3654 1886 00D0      	.LM243:
 3655 1888 00D0      		ldi r24,lo8(0)
 3656 188a 8091 0000 		ldi r25,hi8(0)
 3657 188e 9091 0000 		call Led_off
 3659 1894 FEB7      	.LM244:
 3660 1896 9283      		call Memoryconfig
 3662 189a 80E0      	.LM245:
 3663 189c 90E0      		ldi r24,lo8(2)
 3664 189e 00C0      		call Led_on
 3666               	.LM246:
 3667               		rcall .
 3668 18a0 80E0      		rcall .
 3669 18a2 0E94 0000 		lds r24,__iob+4
 3670               		lds r25,(__iob+4)+1
 3671               		in r26,__SP_L__
 3672 18a6 80E0      		in r27,__SP_H__
 3673 18a8 90E0      		adiw r26,1+1
 3674 18aa 0E94 0000 		st X,r25
 3675               		st -X,r24
 3676               		sbiw r26,1
 3677 18ae 0E94 0000 		ldi r24,lo8(__c.3651)
 3678               		ldi r25,hi8(__c.3651)
 3679               		adiw r26,3+1
 3680 18b2 82E0      		st X,r25
 3681 18b4 0E94 0000 		st -X,r24
 3682               		sbiw r26,3
 3683               		call fprintf_P
 3685 18ba 00D0      	.LM247:
 3686 18bc 8091 0000 		pop __tmp_reg__
 3687 18c0 9091 0000 		pop __tmp_reg__
 3688 18c4 ADB7      		pop __tmp_reg__
 3689 18c6 BEB7      		pop __tmp_reg__
 3690 18c8 1296      		call checkconnect
 3691 18ca 9C93      		or r24,r25
 3692 18cc 8E93      		breq .L77
 3694 18d0 80E0      	.LM248:
 3695 18d2 90E0      		rcall .
 3696 18d4 1496      		rcall .
 3697 18d6 9C93      		lds r24,__iob+4
 3698 18d8 8E93      		lds r25,(__iob+4)+1
 3699 18da 1397      		in r30,__SP_L__
 3700 18dc 0E94 0000 		in r31,__SP_H__
 3701               		std Z+2,r25
 3702               		std Z+1,r24
 3703 18e0 0F90      		ldi r24,lo8(__c.3653)
 3704 18e2 0F90      		ldi r25,hi8(__c.3653)
 3705 18e4 0F90      	.L94:
 3706 18e6 0F90      		std Z+4,r25
 3707 18e8 0E94 0000 		std Z+3,r24
 3708 18ec 892B      		call fprintf_P
 3710               	.LM249:
 3711               		pop __tmp_reg__
 3712 18f0 00D0      		pop __tmp_reg__
 3713 18f2 00D0      		pop __tmp_reg__
 3714 18f4 8091 0000 		pop __tmp_reg__
 3715 18f8 9091 0000 		ldi r24,lo8(0)
 3716 18fc EDB7      		ldi r25,hi8(0)
 3717 18fe FEB7      		call exit
 3718 1900 9283      	.L77:
 3720 1904 80E0      	.LM250:
 3721 1906 90E0      		ldi r24,lo8(2)
 3722               		ldi r25,hi8(2)
 3723 1908 9483      		call Led_off
 3725 190c 0E94 0000 	.LM251:
 3726               		ldi r24,lo8(1)
 3727               		call Led_on
 3729 1912 0F90      	.LM252:
 3730 1914 0F90      		rcall .
 3731 1916 0F90      		rcall .
 3732 1918 80E0      		lds r24,__iob+4
 3733 191a 90E0      		lds r25,(__iob+4)+1
 3734 191c 0E94 0000 		in r26,__SP_L__
 3735               		in r27,__SP_H__
 3736               		adiw r26,1+1
 3737               		st X,r25
 3738 1920 82E0      		st -X,r24
 3739 1922 90E0      		sbiw r26,1
 3740 1924 0E94 0000 		ldi r24,lo8(__c.3655)
 3741               		ldi r25,hi8(__c.3655)
 3742               		adiw r26,3+1
 3743 1928 81E0      		st X,r25
 3744 192a 0E94 0000 		st -X,r24
 3745               		sbiw r26,3
 3746               		call fprintf_P
 3748 1930 00D0      	.LM253:
 3749 1932 8091 0000 		pop __tmp_reg__
 3750 1936 9091 0000 		pop __tmp_reg__
 3751 193a ADB7      		pop __tmp_reg__
 3752 193c BEB7      		pop __tmp_reg__
 3753 193e 1296      		call go_home
 3755 1942 8E93      	.LM254:
 3756 1944 1197      		ldi r24,lo8(1)
 3757 1946 80E0      		ldi r25,hi8(1)
 3758 1948 90E0      		call Led_off
 3760 194c 9C93      	.LM255:
 3761 194e 8E93      		call return_id_vector
 3763 1952 0E94 0000 	.LM256:
 3764               		lds r30,id_vector
 3765               		lds r31,(id_vector)+1
 3766 1956 0F90      		ld r14,Z
 3767 1958 0F90      		ldd r15,Z+1
 3769 195c 0F90      	.LM257:
 3770 195e 0E94 0000 		cp r14,__zero_reg__
 3771               		cpc r15,__zero_reg__
 3772               		breq .L78
 3773 1962 81E0      		ldi r16,lo8(0)
 3774 1964 90E0      		ldi r17,hi8(0)
 3776               	.LM258:
 3777               		ldi r19,lo8(.LC63)
 3778 196a 0E94 0000 		mov r12,r19
 3779               		ldi r19,hi8(.LC63)
 3780               		mov r13,r19
 3781 196e E091 0000 		rjmp .L79
 3782 1972 F091 0000 	.L80:
 3783 1976 E080      		rcall .
 3784 1978 F180      		rcall .
 3785               		rcall .
 3786               		in r26,__SP_L__
 3787 197a E114      		in r27,__SP_H__
 3788 197c F104      		adiw r26,1
 3789 197e 01F0      		in r30,__SP_L__
 3790 1980 00E0      		in r31,__SP_H__
 3791 1982 10E0      		std Z+2,r13
 3792               		std Z+1,r12
 3793               		adiw r26,2+1
 3794 1984 30E0      		st X,r17
 3795 1986 C32E      		st -X,r16
 3796 1988 30E0      		sbiw r26,2
 3797 198a D32E      		movw r24,r16
 3798 198c 00C0      		lsl r24
 3799               		rol r25
 3800 198e 00D0      		lds r30,id_vector
 3801 1990 00D0      		lds r31,(id_vector)+1
 3802 1992 00D0      		add r30,r24
 3803 1994 ADB7      		adc r31,r25
 3804 1996 BEB7      		ld r24,Z
 3805 1998 1196      		ldd r25,Z+1
 3806 199a EDB7      		adiw r26,4+1
 3807 199c FEB7      		st X,r25
 3808 199e D282      		st -X,r24
 3809 19a0 C182      		sbiw r26,4
 3810 19a2 1396      		call printf
 3812 19a6 0E93      	.LM259:
 3813 19a8 1297      		subi r16,lo8(-(1))
 3814 19aa C801      		sbci r17,hi8(-(1))
 3815 19ac 880F      		in r24,__SP_L__
 3816 19ae 991F      		in r25,__SP_H__
 3817 19b0 E091 0000 		adiw r24,6
 3818 19b4 F091 0000 		in __tmp_reg__,__SREG__
 3819 19b8 E80F      		cli
 3820 19ba F91F      		out __SP_H__,r25
 3821 19bc 8081      		out __SREG__,__tmp_reg__
 3822 19be 9181      		out __SP_L__,r24
 3823 19c0 1596      	.L79:
 3824 19c2 9C93      		cp r16,r14
 3825 19c4 8E93      		cpc r17,r15
 3826 19c6 1497      		brlt .L80
 3827 19c8 0E94 0000 	.L78:
 3829               	.LM260:
 3830 19cc 0F5F      		ldi r24,lo8(-1)
 3831 19ce 1F4F      		out 60-32,r24
 3833 19d2 9EB7      	.LM261:
 3834 19d4 0696      		call HostInterruptEnable
 3836 19d8 F894      	.LM262:
 3837 19da 9EBF      	/* #APP */
 3838 19dc 0FBE      	 ;  245 "controlador_Jarboter.c" 1
 3839 19de 8DBF      		sei
 3840               	 ;  0 "" 2
 3842 19e2 1F05      	.LM263:
 3843 19e4 04F0      	/* #NOAPP */
 3844               		ldi r24,lo8(.LC64)
 3845               		ldi r25,hi8(.LC64)
 3846               		call puts
 3848 19e8 8CBB      	.LM264:
 3849               		lds r22,__iob+4
 3850               		lds r23,(__iob+4)+1
 3851 19ea 0E94 0000 		ldi r24,lo8(.LC65)
 3852               		ldi r25,hi8(.LC65)
 3853               		call fputs
 3855               	.LM265:
 3856 19ee 7894      		ldi r24,lo8(0)
 3857               		call Led_on
 3858               		clr r14
 3859               		clr r15
 3860               		ldi r16,lo8(0)
 3861 19f0 80E0      		ldi r17,hi8(0)
 3863 19f4 0E94 0000 	.LM266:
 3864               		ldi r25,lo8(2)
 3865               		mov r12,r25
 3866 19f8 6091 0000 		mov r13,__zero_reg__
 3867 19fc 7091 0000 		add r12,r28
 3868 1a00 80E0      		adc r13,r29
 3870 1a04 0E94 0000 	.LM267:
 3871               		ldi r24,lo8(.LC67)
 3872               		mov r2,r24
 3873 1a08 80E0      		ldi r24,hi8(.LC67)
 3874 1a0a 0E94 0000 		mov r3,r24
 3876 1a10 FF24      	.LM268:
 3877 1a12 00E0      		ldi r27,lo8(.LC66)
 3878 1a14 10E0      		mov r4,r27
 3879               		ldi r27,hi8(.LC66)
 3880               		mov r5,r27
 3882 1a18 C92E      	.LM269:
 3883 1a1a D12C      		movw r6,r28
 3884 1a1c CC0E      		sec
 3885 1a1e DD1E      		adc r6,__zero_reg__
 3886               		adc r7,__zero_reg__
 3888 1a20 80E0      	.LM270:
 3889 1a22 282E      		ldi r26,lo8(.LC71)
 3890 1a24 80E0      		mov r8,r26
 3891 1a26 382E      		ldi r26,hi8(.LC71)
 3892               		mov r9,r26
 3894 1a28 B0E0      	.LM271:
 3895 1a2a 4B2E      		ldi r31,lo8(.LC70)
 3896 1a2c B0E0      		mov r10,r31
 3897 1a2e 5B2E      		ldi r31,hi8(.LC70)
 3898               		mov r11,r31
 3899               		rjmp .L91
 3900 1a30 3E01      	.L86:
 3902 1a34 611C      	.LM272:
 3903 1a36 711C      		ldi r16,lo8(0)
 3904               		ldi r17,hi8(0)
 3905               	.L91:
 3907 1a3a 8A2E      	.LM273:
 3908 1a3c A0E0      		lds r24,intflags
 3909 1a3e 9A2E      		sbrc r24,0
 3910               		rjmp .L82
 3912 1a40 F0E0      	.LM274:
 3913 1a42 AF2E      		lds r24,intflags
 3914 1a44 F0E0      		ori r24,lo8(1)
 3915 1a46 BF2E      		sts intflags,r24
 3917               	.LM275:
 3918               		lds r24,intflags
 3919               		sbrc r24,1
 3920 1a4a 00E0      		rjmp .L83
 3922               	.LM276:
 3923               		lds r24,intflags
 3924               		ori r24,lo8(2)
 3925 1a4e 8091 0000 		sts intflags,r24
 3927 1a54 00C0      	.LM277:
 3928               		ldi r24,lo8(0)
 3929               		ldi r25,hi8(0)
 3930 1a56 8091 0000 		call Led_off
 3932 1a5c 8093 0000 	.LM278:
 3933               		ldi r24,lo8(2)
 3934               		call Led_on
 3936 1a64 81FD      	.LM279:
 3937 1a66 00C0      		call work_out
 3939               	.LM280:
 3940 1a68 8091 0000 		ldi r24,lo8(2)
 3941 1a6c 8260      		ldi r25,hi8(2)
 3942 1a6e 8093 0000 		call Led_off
 3944               	.LM281:
 3945 1a72 80E0      		ldi r24,lo8(0)
 3946 1a74 90E0      		call Led_on
 3947 1a76 0E94 0000 	.L83:
 3949               	.LM282:
 3950 1a7a 82E0      		lds r24,intflags
 3951 1a7c 0E94 0000 		sbrc r24,2
 3952               		rjmp .L82
 3954 1a80 0E94 0000 	.LM283:
 3955               		lds r24,intflags
 3956               		ori r24,lo8(4)
 3957 1a84 82E0      		sts intflags,r24
 3959 1a88 0E94 0000 	.LM284:
 3960               		ldi r24,lo8(0)
 3961               		ldi r25,hi8(0)
 3962 1a8c 80E0      		call Led_off
 3964               	.LM285:
 3965               		ldi r24,lo8(1)
 3966               		call Led_on
 3968 1a96 82FD      	.LM286:
 3969 1a98 00C0      		call work_in
 3971               	.LM287:
 3972 1a9a 8091 0000 		call delay_1s
 3974 1aa0 8093 0000 	.LM288:
 3975               		ldi r24,lo8(1)
 3976               		ldi r25,hi8(1)
 3977 1aa4 80E0      		call Led_off
 3979 1aa8 0E94 0000 	.LM289:
 3980               		ldi r24,lo8(0)
 3981               		call Led_on
 3982 1aac 81E0      	.L82:
 3984               	.LM290:
 3985               		lds r24,intflags
 3986 1ab2 0E94 0000 		sbrc r24,3
 3987               		rjmp .L84
 3989 1ab6 0E94 0000 	.LM291:
 3990               		lds r24,intflags
 3991               		ori r24,lo8(8)
 3992 1aba 81E0      		sts intflags,r24
 3994 1abe 0E94 0000 	.LM292:
 3995               		sec
 3996               		adc r14,__zero_reg__
 3997 1ac2 80E0      		adc r15,__zero_reg__
 3999               	.LM293:
 4000               		ldi r25,lo8(35)
 4001               		cp r14,r25
 4002 1ac8 8091 0000 		cpc r15,__zero_reg__
 4003 1acc 83FD      		breq .+2
 4004 1ace 00C0      		rjmp .L84
 4006               	.LM294:
 4007 1ad0 8091 0000 		lds r22,__iob+4
 4008 1ad4 8860      		lds r23,(__iob+4)+1
 4009 1ad6 8093 0000 		ldi r24,lo8(.LC65)
 4010               		ldi r25,hi8(.LC65)
 4011               		call fputs
 4013 1adc E11C      	.LM295:
 4014 1ade F11C      		movw r24,r12
 4015               		call Read_Fecha
 4017 1ae0 93E2      	.LM296:
 4018 1ae2 E916      		ldd r24,Y+4
 4019 1ae4 F104      		ldi r25,lo8(0)
 4020 1ae6 01F0      		lds r18,__iob+4
 4021 1ae8 00C0      		lds r19,(__iob+4)+1
 4022               		movw r20,r24
 4023               		andi r20,lo8(31)
 4024 1aea 6091 0000 		andi r21,hi8(31)
 4025 1aee 7091 0000 		sbrs r24,5
 4026 1af2 80E0      		rjmp .L85
 4028 1af6 0E94 0000 	.LM297:
 4029               		in r26,__SP_L__
 4030               		in r27,__SP_H__
 4031 1afa C601      		sbiw r26,10
 4032 1afc 0E94 0000 		in __tmp_reg__,__SREG__
 4033               		cli
 4034               		out __SP_H__,r27
 4035 1b00 8C81      		out __SREG__,__tmp_reg__
 4036 1b02 90E0      		out __SP_L__,r26
 4037 1b04 2091 0000 		in r30,__SP_L__
 4038 1b08 3091 0000 		in r31,__SP_H__
 4039 1b0c AC01      		adiw r30,1
 4040 1b0e 4F71      		adiw r26,1+1
 4041 1b10 5070      		st X,r19
 4042 1b12 85FF      		st -X,r18
 4043 1b14 00C0      		sbiw r26,1
 4044               		std Z+3,r5
 4045               		std Z+2,r4
 4046 1b16 ADB7      		rjmp .L93
 4047 1b18 BEB7      	.L85:
 4049 1b1c 0FB6      	.LM298:
 4050 1b1e F894      		in r24,__SP_L__
 4051 1b20 BEBF      		in r25,__SP_H__
 4052 1b22 0FBE      		sbiw r24,10
 4053 1b24 ADBF      		in __tmp_reg__,__SREG__
 4054 1b26 EDB7      		cli
 4055 1b28 FEB7      		out __SP_H__,r25
 4056 1b2a 3196      		out __SREG__,__tmp_reg__
 4057 1b2c 1296      		out __SP_L__,r24
 4058 1b2e 3C93      		in r30,__SP_L__
 4059 1b30 2E93      		in r31,__SP_H__
 4060 1b32 1197      		adiw r30,1
 4061 1b34 5382      		in r26,__SP_L__
 4062 1b36 4282      		in r27,__SP_H__
 4063 1b38 00C0      		adiw r26,1+1
 4064               		st X,r19
 4065               		st -X,r18
 4066               		sbiw r26,1
 4067 1b3a 8DB7      		std Z+3,r3
 4068 1b3c 9EB7      		std Z+2,r2
 4069 1b3e 0A97      	.L93:
 4070 1b40 0FB6      		std Z+5,r21
 4071 1b42 F894      		std Z+4,r20
 4072 1b44 9EBF      		ldd r24,Y+3
 4073 1b46 0FBE      		std Z+6,r24
 4074 1b48 8DBF      		std Z+7,__zero_reg__
 4075 1b4a EDB7      		ldd r24,Y+2
 4076 1b4c FEB7      		std Z+8,r24
 4077 1b4e 3196      		std Z+9,__zero_reg__
 4078 1b50 ADB7      		call fprintf
 4079 1b52 BEB7      		clr r14
 4080 1b54 1296      		clr r15
 4081 1b56 3C93      		in r30,__SP_L__
 4082 1b58 2E93      		in r31,__SP_H__
 4083 1b5a 1197      		adiw r30,10
 4084 1b5c 3382      		in __tmp_reg__,__SREG__
 4085 1b5e 2282      		cli
 4086               		out __SP_H__,r31
 4087 1b60 5583      		out __SREG__,__tmp_reg__
 4088 1b62 4483      		out __SP_L__,r30
 4089 1b64 8B81      	.L84:
 4091 1b68 1782      	.LM299:
 4092 1b6a 8A81      		lds r24,intflags
 4093 1b6c 8087      		sbrc r24,4
 4094 1b6e 1186      		rjmp .L91
 4096 1b74 EE24      	.LM300:
 4097 1b76 FF24      		lds r24,intflags
 4098 1b78 EDB7      		ori r24,lo8(16)
 4099 1b7a FEB7      		sts intflags,r24
 4101 1b7e 0FB6      	.LM301:
 4102 1b80 F894      		lds r24,activo_alarma
 4103 1b82 FEBF      		lds r25,(activo_alarma)+1
 4104 1b84 0FBE      		or r24,r25
 4105 1b86 EDBF      		brne .+2
 4106               		rjmp .L91
 4108               	.LM302:
 4109 1b88 8091 0000 		subi r16,lo8(-(1))
 4110 1b8c 84FD      		sbci r17,hi8(-(1))
 4112               	.LM303:
 4113               		cpi r16,3
 4114 1b90 8091 0000 		cpc r17,__zero_reg__
 4115 1b94 8061      		breq .+2
 4116 1b96 8093 0000 		rjmp .L91
 4118               	.LM304:
 4119 1b9a 8091 0000 		movw r24,r6
 4120 1b9e 9091 0000 		call Read_SR
 4122 1ba4 01F4      	.LM305:
 4123 1ba6 00C0      		ldd r24,Y+1
 4124               		sbrs r24,5
 4125               		rjmp .L86
 4127 1baa 1F4F      	.LM306:
 4128               		movw r24,r12
 4129               		call Read_Fecha
 4131 1bae 1105      	.LM307:
 4132 1bb0 01F0      		sts (activo_alarma)+1,__zero_reg__
 4133 1bb2 00C0      		sts activo_alarma,__zero_reg__
 4135               	.LM308:
 4136 1bb4 C301      		ldi r24,lo8(1)
 4137 1bb6 0E94 0000 		ldi r25,hi8(1)
 4138               		call buzzer
 4140 1bba 8981      	.LM309:
 4141 1bbc 85FF      		ldi r24,lo8(.LC68)
 4142 1bbe 00C0      		ldi r25,hi8(.LC68)
 4143               		call puts
 4145 1bc0 C601      	.LM310:
 4146 1bc2 0E94 0000 		lds r24,rxAlarma+6
 4147               		call RCT_task
 4149 1bc6 1092 0000 	.LM311:
 4150 1bca 1092 0000 		lds r22,__iob+4
 4151               		lds r23,(__iob+4)+1
 4152               		ldi r24,lo8(.LC69)
 4153 1bce 81E0      		ldi r25,hi8(.LC69)
 4154 1bd0 90E0      		call fputs
 4156               	.LM312:
 4157               		ldd r24,Y+4
 4158 1bd6 80E0      		ldi r25,lo8(0)
 4159 1bd8 90E0      		lds r18,__iob+4
 4160 1bda 0E94 0000 		lds r19,(__iob+4)+1
 4161               		movw r20,r24
 4162               		andi r20,lo8(31)
 4163 1bde 8091 0000 		andi r21,hi8(31)
 4164 1be2 0E94 0000 		sbrs r24,5
 4165               		rjmp .L87
 4167 1be6 6091 0000 	.LM313:
 4168 1bea 7091 0000 		in r24,__SP_L__
 4169 1bee 80E0      		in r25,__SP_H__
 4170 1bf0 90E0      		sbiw r24,10
 4171 1bf2 0E94 0000 		in __tmp_reg__,__SREG__
 4172               		cli
 4173               		out __SP_H__,r25
 4174 1bf6 8C81      		out __SREG__,__tmp_reg__
 4175 1bf8 90E0      		out __SP_L__,r24
 4176 1bfa 2091 0000 		in r30,__SP_L__
 4177 1bfe 3091 0000 		in r31,__SP_H__
 4178 1c02 AC01      		adiw r30,1
 4179 1c04 4F71      		in r26,__SP_L__
 4180 1c06 5070      		in r27,__SP_H__
 4181 1c08 85FF      		adiw r26,1+1
 4182 1c0a 00C0      		st X,r19
 4183               		st -X,r18
 4184               		sbiw r26,1
 4185 1c0c 8DB7      		std Z+3,r11
 4186 1c0e 9EB7      		std Z+2,r10
 4187 1c10 0A97      		rjmp .L92
 4188 1c12 0FB6      	.L87:
 4190 1c16 9EBF      	.LM314:
 4191 1c18 0FBE      		in r24,__SP_L__
 4192 1c1a 8DBF      		in r25,__SP_H__
 4193 1c1c EDB7      		sbiw r24,10
 4194 1c1e FEB7      		in __tmp_reg__,__SREG__
 4195 1c20 3196      		cli
 4196 1c22 ADB7      		out __SP_H__,r25
 4197 1c24 BEB7      		out __SREG__,__tmp_reg__
 4198 1c26 1296      		out __SP_L__,r24
 4199 1c28 3C93      		in r30,__SP_L__
 4200 1c2a 2E93      		in r31,__SP_H__
 4201 1c2c 1197      		adiw r30,1
 4202 1c2e B382      		in r26,__SP_L__
 4203 1c30 A282      		in r27,__SP_H__
 4204 1c32 00C0      		adiw r26,1+1
 4205               		st X,r19
 4206               		st -X,r18
 4207               		sbiw r26,1
 4208 1c34 8DB7      		std Z+3,r9
 4209 1c36 9EB7      		std Z+2,r8
 4210 1c38 0A97      	.L92:
 4211 1c3a 0FB6      		std Z+5,r21
 4212 1c3c F894      		std Z+4,r20
 4213 1c3e 9EBF      		ldd r24,Y+3
 4214 1c40 0FBE      		std Z+6,r24
 4215 1c42 8DBF      		std Z+7,__zero_reg__
 4216 1c44 EDB7      		ldd r24,Y+2
 4217 1c46 FEB7      		std Z+8,r24
 4218 1c48 3196      		std Z+9,__zero_reg__
 4219 1c4a ADB7      		call fprintf
 4220 1c4c BEB7      		ldi r16,lo8(0)
 4221 1c4e 1296      		ldi r17,hi8(0)
 4222 1c50 3C93      		in r30,__SP_L__
 4223 1c52 2E93      		in r31,__SP_H__
 4224 1c54 1197      		adiw r30,10
 4225 1c56 9382      		in __tmp_reg__,__SREG__
 4226 1c58 8282      		cli
 4227               		out __SP_H__,r31
 4228 1c5a 5583      		out __SREG__,__tmp_reg__
 4229 1c5c 4483      		out __SP_L__,r30
 4230 1c5e 8B81      		rjmp .L91
 4240 1c74 FEB7      	.Lscope6:
 4241 1c76 3A96      		.data
 4242 1c78 0FB6      	.LC72:
 4243 1c7a F894      		.string	"PMD2 PRODUJO INTERRUPCION "
 4244 1c7c FEBF      		.text
 4246 1c80 EDBF      	.global	__vector_6
 4248               	__vector_6:
 4250               	.LM315:
 4251               	.LFBB7:
 4252               		push __zero_reg__
 4253               		push r0
 4254               		in r0,__SREG__
 4255               		push r0
 4256               		in r0,91-32
 4257               		push r0
 4258               		clr __zero_reg__
 4259               		push r18
 4260 0b81 504D 4432 		push r19
 4260      2050 524F 
 4260      4455 4A4F 
 4260      2049 4E54 
 4260      4552 5255 
 4261               		push r20
 4262               		push r21
 4263               		push r22
 4264               		push r23
 4265               		push r24
 4266               		push r25
 4267               		push r26
 4268               		push r27
 4269 1c84 1F92      		push r30
 4270 1c86 0F92      		push r31
 4271 1c88 0FB6      	/* prologue: Signal */
 4272 1c8a 0F92      	/* frame size = 0 */
 4274 1c8e 0F92      	.LM316:
 4275 1c90 1124      		ldi r24,lo8(.LC72)
 4276 1c92 2F93      		ldi r25,hi8(.LC72)
 4277 1c94 3F93      		call puts
 4279 1c98 5F93      	.LM317:
 4280 1c9a 6F93      		call InterruptHandling_chipset2
 4281 1c9c 7F93      	/* epilogue start */
 4283 1ca0 9F93      	.LM318:
 4284 1ca2 AF93      		pop r31
 4285 1ca4 BF93      		pop r30
 4286 1ca6 EF93      		pop r27
 4287 1ca8 FF93      		pop r26
 4288               		pop r25
 4289               		pop r24
 4290               		pop r23
 4291               		pop r22
 4292 1caa 80E0      		pop r21
 4293 1cac 90E0      		pop r20
 4294 1cae 0E94 0000 		pop r19
 4295               		pop r18
 4296               		pop r0
 4297 1cb2 0E94 0000 		out 91-32,r0
 4298               		pop r0
 4299               		out __SREG__,r0
 4300               		pop r0
 4301 1cb6 FF91      		pop __zero_reg__
 4302 1cb8 EF91      		reti
 4304 1cbc AF91      	.Lscope7:
 4305 1cbe 9F91      		.data
 4306 1cc0 8F91      	.LC73:
 4307 1cc2 7F91      		.string	"PMD1 PRODUJO INTERRUPCION "
 4308 1cc4 6F91      		.text
 4310 1cc8 4F91      	.global	__vector_5
 4312 1ccc 2F91      	__vector_5:
 4314 1cd0 0BBE      	.LM319:
 4315 1cd2 0F90      	.LFBB8:
 4316 1cd4 0FBE      		push __zero_reg__
 4317 1cd6 0F90      		push r0
 4318 1cd8 1F90      		in r0,__SREG__
 4319 1cda 1895      		push r0
 4320               		in r0,91-32
 4321               		push r0
 4322               		clr __zero_reg__
 4323               		push r18
 4324 0b9c 504D 4431 		push r19
 4324      2050 524F 
 4324      4455 4A4F 
 4324      2049 4E54 
 4324      4552 5255 
 4325               		push r20
 4326               		push r21
 4327               		push r22
 4328               		push r23
 4329               		push r24
 4330               		push r25
 4331               		push r26
 4332               		push r27
 4333 1cdc 1F92      		push r30
 4334 1cde 0F92      		push r31
 4335 1ce0 0FB6      	/* prologue: Signal */
 4336 1ce2 0F92      	/* frame size = 0 */
 4338 1ce6 0F92      	.LM320:
 4339 1ce8 1124      		ldi r24,lo8(.LC73)
 4340 1cea 2F93      		ldi r25,hi8(.LC73)
 4341 1cec 3F93      		call puts
 4343 1cf0 5F93      	.LM321:
 4344 1cf2 6F93      		call InterruptHandling_chipset1
 4345 1cf4 7F93      	/* epilogue start */
 4347 1cf8 9F93      	.LM322:
 4348 1cfa AF93      		pop r31
 4349 1cfc BF93      		pop r30
 4350 1cfe EF93      		pop r27
 4351 1d00 FF93      		pop r26
 4352               		pop r25
 4353               		pop r24
 4354               		pop r23
 4355               		pop r22
 4356 1d02 80E0      		pop r21
 4357 1d04 90E0      		pop r20
 4358 1d06 0E94 0000 		pop r19
 4359               		pop r18
 4360               		pop r0
 4361 1d0a 0E94 0000 		out 91-32,r0
 4362               		pop r0
 4363               		out __SREG__,r0
 4364               		pop r0
 4365 1d0e FF91      		pop __zero_reg__
 4366 1d10 EF91      		reti
 4368 1d14 AF91      	.Lscope8:
 4369 1d16 9F91      		.data
 4370 1d18 8F91      	.LC74:
 4371 1d1a 7F91      		.string	"SE ha efectudado una parada Abrupta en los motores. "
 4372 1d1c 6F91      	.LC75:
 4373 1d1e 5F91      		.string	"Se ha efectudado una parada Abrupta en los motores. \n"
 4374 1d20 4F91      		.text
 4376 1d24 2F91      	.global	__vector_4
 4378 1d28 0BBE      	__vector_4:
 4380 1d2c 0FBE      	.LM323:
 4381 1d2e 0F90      	.LFBB9:
 4382 1d30 1F90      		push __zero_reg__
 4383 1d32 1895      		push r0
 4384               		in r0,__SREG__
 4385               		push r0
 4386               		in r0,91-32
 4387               		push r0
 4388 0bb7 5345 2068 		clr __zero_reg__
 4388      6120 6566 
 4388      6563 7475 
 4388      6461 646F 
 4388      2075 6E61 
 4389               		push r18
 4390 0bec 5365 2068 		push r19
 4390      6120 6566 
 4390      6563 7475 
 4390      6461 646F 
 4390      2075 6E61 
 4391               		push r20
 4392               		push r21
 4393               		push r22
 4394               		push r23
 4395               		push r24
 4396               		push r25
 4397               		push r26
 4398               		push r27
 4399 1d34 1F92      		push r30
 4400 1d36 0F92      		push r31
 4401 1d38 0FB6      	/* prologue: Signal */
 4402 1d3a 0F92      	/* frame size = 0 */
 4404 1d3e 0F92      	.LM324:
 4405 1d40 1124      		lds r24,ATENDER_INT_IN
 4406 1d42 2F93      		lds r25,(ATENDER_INT_IN)+1
 4407 1d44 3F93      		sbiw r24,1
 4408 1d46 4F93      		brne .L103
 4410 1d4a 6F93      	.LM325:
 4411 1d4c 7F93      		ldi r22,lo8(50)
 4412 1d4e 8F93      		ldi r23,hi8(50)
 4413 1d50 9F93      		ldi r24,hlo8(50)
 4414 1d52 AF93      		ldi r25,hhi8(50)
 4415 1d54 BF93      		call buzzer_ms
 4417 1d58 FF93      	.LM326:
 4418               		lds r24,intflags
 4419               		andi r24,lo8(-2)
 4420               		sts intflags,r24
 4422 1d5a 8091 0000 	.LM327:
 4423 1d5e 9091 0000 		lds r24,256
 4424 1d62 0197      		sbrc r24,6
 4425 1d64 01F4      		rjmp .L101
 4426               		lds r24,256
 4427               		sbrc r24,5
 4428 1d66 62E3      		rjmp .L101
 4430 1d6a 80E0      	.LM328:
 4431 1d6c 90E0      		call abruptstop
 4433               	.LM329:
 4434               		ldi r24,lo8(1)
 4435 1d72 8091 0000 		ldi r25,hi8(1)
 4436 1d76 8E7F      		call buzzer
 4438               	.LM330:
 4439               		ldi r24,lo8(.LC74)
 4440 1d7c 8091 0001 		ldi r25,hi8(.LC74)
 4441 1d80 86FD      		call puts
 4443 1d84 8091 0001 	.LM331:
 4444 1d88 85FD      		lds r22,__iob+4
 4445 1d8a 00C0      		lds r23,(__iob+4)+1
 4446               		ldi r24,lo8(.LC75)
 4447               		ldi r25,hi8(.LC75)
 4448 1d8c 0E94 0000 		call fputs
 4450               	.LM332:
 4451 1d90 81E0      		ldi r24,lo8(1)
 4452 1d92 90E0      		ldi r25,hi8(1)
 4453 1d94 0E94 0000 		call exit
 4454               	.L101:
 4456 1d98 80E0      	.LM333:
 4457 1d9a 90E0      		lds r24,256
 4458 1d9c 0E94 0000 		sbrc r24,5
 4459               		rjmp .L102
 4461 1da0 6091 0000 	.LM334:
 4462 1da4 7091 0000 		lds r24,intflags
 4463 1da8 80E0      		andi r24,lo8(-3)
 4464 1daa 90E0      		sts intflags,r24
 4465 1dac 0E94 0000 	.L102:
 4467               	.LM335:
 4468 1db0 81E0      		lds r24,256
 4469 1db2 90E0      		sbrc r24,6
 4470 1db4 0E94 0000 		rjmp .L103
 4472               	.LM336:
 4473               		lds r24,intflags
 4474 1db8 8091 0001 		andi r24,lo8(-5)
 4475 1dbc 85FD      		sts intflags,r24
 4476 1dbe 00C0      	.L103:
 4477               	/* epilogue start */
 4479 1dc0 8091 0000 	.LM337:
 4480 1dc4 8D7F      		pop r31
 4481 1dc6 8093 0000 		pop r30
 4482               		pop r27
 4483               		pop r26
 4484               		pop r25
 4485 1dca 8091 0001 		pop r24
 4486 1dce 86FD      		pop r23
 4487 1dd0 00C0      		pop r22
 4488               		pop r21
 4489               		pop r20
 4490 1dd2 8091 0000 		pop r19
 4491 1dd6 8B7F      		pop r18
 4492 1dd8 8093 0000 		pop r0
 4493               		out 91-32,r0
 4494               		pop r0
 4495               		out __SREG__,r0
 4496               		pop r0
 4497 1ddc FF91      		pop __zero_reg__
 4498 1dde EF91      		reti
 4500 1de2 AF91      	.Lscope9:
 4501 1de4 9F91      		.data
 4502 1de6 8F91      	.LC76:
 4503 1de8 7F91      		.string	"SE ha activo el Boton de Parada de Emergencia. "
 4504 1dea 6F91      		.text
 4506 1dee 4F91      	.global	__vector_3
 4508 1df2 2F91      	__vector_3:
 4510 1df6 0BBE      	.LM338:
 4511 1df8 0F90      	.LFBB10:
 4512 1dfa 0FBE      		push __zero_reg__
 4513 1dfc 0F90      		push r0
 4514 1dfe 1F90      		in r0,__SREG__
 4515 1e00 1895      		push r0
 4516               		in r0,91-32
 4517               		push r0
 4518               		clr __zero_reg__
 4519               		push r18
 4520 0c22 5345 2068 		push r19
 4520      6120 6163 
 4520      7469 766F 
 4520      2065 6C20 
 4520      426F 746F 
 4521               		push r20
 4522               		push r21
 4523               		push r22
 4524               		push r23
 4525               		push r24
 4526               		push r25
 4527               		push r26
 4528               		push r27
 4529 1e02 1F92      		push r30
 4530 1e04 0F92      		push r31
 4531 1e06 0FB6      	/* prologue: Signal */
 4532 1e08 0F92      	/* frame size = 0 */
 4534 1e0c 0F92      	.LM339:
 4535 1e0e 1124      		call abruptstop
 4537 1e12 3F93      	.LM340:
 4538 1e14 4F93      		ldi r24,lo8(1)
 4539 1e16 5F93      		ldi r25,hi8(1)
 4540 1e18 6F93      		call buzzer
 4542 1e1c 8F93      	.LM341:
 4543 1e1e 9F93      		ldi r24,lo8(1)
 4544 1e20 AF93      		call Led_on
 4546 1e24 EF93      	.LM342:
 4547 1e26 FF93      		ldi r24,lo8(.LC76)
 4548               		ldi r25,hi8(.LC76)
 4549               		call puts
 4551               	.LM343:
 4552 1e28 0E94 0000 		rcall .
 4553               		rcall .
 4554               		lds r24,__iob+4
 4555 1e2c 81E0      		lds r25,(__iob+4)+1
 4556 1e2e 90E0      		in r30,__SP_L__
 4557 1e30 0E94 0000 		in r31,__SP_H__
 4558               		std Z+2,r25
 4559               		std Z+1,r24
 4560 1e34 81E0      		ldi r24,lo8(__c.3593)
 4561 1e36 0E94 0000 		ldi r25,hi8(__c.3593)
 4562               		std Z+4,r25
 4563               		std Z+3,r24
 4564 1e3a 80E0      		call fprintf_P
 4566 1e3e 0E94 0000 	.LM344:
 4567               		pop __tmp_reg__
 4568               		pop __tmp_reg__
 4569 1e42 00D0      		pop __tmp_reg__
 4570 1e44 00D0      		pop __tmp_reg__
 4571 1e46 8091 0000 		ldi r24,lo8(1)
 4572 1e4a 9091 0000 		ldi r25,hi8(1)
 4573 1e4e EDB7      		call exit
 4575 1e52 9283      	.Lscope10:
 4576 1e54 8183      	.global	activo_alarma
 4577 1e56 80E0      	.global	activo_alarma
 4578 1e58 90E0      		.section .bss
 4581 1e5e 0E94 0000 	activo_alarma:
 4582               		.skip 2,0
 4583               	.global	ATENDER_INT_IN
 4584 1e62 0F90      		.data
 4587 1e68 0F90      	ATENDER_INT_IN:
 4588 1e6a 81E0      		.word	1
 4589 1e6c 90E0      	.global	TXPoseActual
 4590 1e6e 0E94 0000 	.global	TXPoseActual
 4591               		.section .bss
 4594               	TXPoseActual:
 4595               		.skip 2,0
 4596               	.global	GripperActual
 4597               	.global	GripperActual
 4600               	GripperActual:
 4601               		.skip 2,0
 4602               	.global	TEST_EJE
 4603               		.data
 4606               	TEST_EJE:
 4607               		.word	3
 4608               	.global	uart_str
 4611               	uart_str:
 4612 0002 0000      		.skip 3,0
 4613               		.byte	3
 4614               		.skip 4,0
 4615               		.word	gs(uart_putchar)
 4616               		.word	gs(uart_getchar)
 4617               		.word	0
 4618 0004 0000      	.global	lcd_str
 4621               	lcd_str:
 4622               		.skip 3,0
 4623               		.byte	2
 4624 0c54 0300      		.skip 4,0
 4625               		.word	gs(lcd_putchar)
 4626               		.word	0
 4627               		.word	0
 4628               		.lcomm Num_Variables_Trazar.3711,1
 4629 0c56 0000 00   		.lcomm Pose.3710,23
 4630 0c59 03        		.section	.progmem.data,"a",@progbits
 4633 0c60 0000      	__c.3655:
 4634 0c62 0000      		.string	"Secuencia de HOME \n"
 4637               	__c.3653:
 4638               		.string	"Apague el controlador \n"
 4641 0c68 0000 0000 	__c.3651:
 4642 0c6c 0000      		.string	"Verificando Conexiones de Cables \n"
 4645               	__c.3649:
 4646               		.string	"Apague el controlador \n"
 4649               	__c.3647:
 4650               		.string	"Verificando Tarjetas PMDs \n"
 4653               	__c.3593:
 4654               		.string	"Boton de Parada de Emergencia Activo \n"
 4655 0014 4170 6167 		.lcomm rc,2
 4655      7565 2065 
 4655      6C20 636F 
 4655      6E74 726F 
 4655      6C61 646F 
 4656               		.comm hAxis,480,1
 4657               		.comm rxAxisSettings,340,1
 4658               		.comm rxTraceBuffer,2,1
 4659 002c 5665 7269 		.comm rxPosesActual,2,1
 4659      6669 6361 
 4659      6E64 6F20 
 4659      436F 6E65 
 4659      7869 6F6E 
 4660               		.comm txFecha,8,1
 4661               		.comm TxAxisSettings,340,1
 4662               		.comm TRACETrajFlag,2,1
 4663 004f 4170 6167 		.comm GetBufferFlag,1,1
 4663      7565 2065 
 4663      6C20 636F 
 4663      6E74 726F 
 4663      6C61 646F 
 4664               		.comm position1,4,1
 4665               		.comm velocity1,4,1
 4666               		.comm commandedposition,4,1
 4667 0067 5665 7269 		.comm commandedvelocity,4,1
 4667      6669 6361 
 4667      6E64 6F20 
 4667      5461 726A 
 4667      6574 6173 
 4668               		.comm commandedacceleration,4,1
 4669               		.comm readencoder1,4,1
 4670               		.comm readerror,4,1
 4671 0083 426F 746F 		.comm acceleration1,4,1
 4671      6E20 6465 
 4671      2050 6172 
 4671      6164 6120 
 4671      6465 2045 
 4672               		.comm deceleration,4,1
 4673               		.comm cuentas_encoder,2,1
 4674               		.comm micropasos,2,1
 4675               		.comm intflags,1,1
 4712               		.text
 4714               	.Letext0:
 4715               	.global __do_copy_data
 4716               	.global __do_clear_bss
 4717               	...
DEFINED SYMBOLS
                            *ABS*:00000000 controlador_Jarboter.c
C:\DOCUME~1\David\LOCALS~1\Temp/ccsBODCs.s:2      *ABS*:0000003f __SREG__
C:\DOCUME~1\David\LOCALS~1\Temp/ccsBODCs.s:3      *ABS*:0000003e __SP_H__
C:\DOCUME~1\David\LOCALS~1\Temp/ccsBODCs.s:4      *ABS*:0000003d __SP_L__
C:\DOCUME~1\David\LOCALS~1\Temp/ccsBODCs.s:5      *ABS*:00000034 __CCP__
C:\DOCUME~1\David\LOCALS~1\Temp/ccsBODCs.s:6      *ABS*:00000000 __tmp_reg__
C:\DOCUME~1\David\LOCALS~1\Temp/ccsBODCs.s:7      *ABS*:00000001 __zero_reg__
C:\DOCUME~1\David\LOCALS~1\Temp/ccsBODCs.s:249    .init3:00000000 Init_EXRAM
C:\DOCUME~1\David\LOCALS~1\Temp/ccsBODCs.s:271    .text:00000000 __vector_20
                            *COM*:00000001 intflags
C:\DOCUME~1\David\LOCALS~1\Temp/ccsBODCs.s:302    .text:00000022 __vector_35
C:\DOCUME~1\David\LOCALS~1\Temp/ccsBODCs.s:349    .text:00000044 work_in
C:\DOCUME~1\David\LOCALS~1\Temp/ccsBODCs.s:4604   .data:00000c52 ATENDER_INT_IN
C:\DOCUME~1\David\LOCALS~1\Temp/ccsBODCs.s:4646   .bss:0000001e rc
                            *COM*:00000008 txFecha
                            *COM*:00000154 TxAxisSettings
C:\DOCUME~1\David\LOCALS~1\Temp/ccsBODCs.s:4611   .bss:00000002 TXPoseActual
C:\DOCUME~1\David\LOCALS~1\Temp/ccsBODCs.s:742    .text:00000240 work_out
C:\DOCUME~1\David\LOCALS~1\Temp/ccsBODCs.s:4645   .bss:00000007 Pose.3710
                            *COM*:000001e0 hAxis
C:\DOCUME~1\David\LOCALS~1\Temp/ccsBODCs.s:4617   .bss:00000004 GripperActual
                             .bss:00000006 Num_Variables_Trazar.3711
                            *COM*:00000002 TRACETrajFlag
                            *COM*:00000001 GetBufferFlag
                            *COM*:00000004 readerror
                            *COM*:00000002 cuentas_encoder
                            *COM*:00000002 micropasos
                            *COM*:00000004 position1
                            *COM*:00000004 velocity1
                            *COM*:00000004 acceleration1
                            *COM*:00000004 deceleration
                            *COM*:00000004 commandedposition
                            *COM*:00000004 commandedvelocity
                            *COM*:00000004 commandedacceleration
                            *COM*:00000004 readencoder1
C:\DOCUME~1\David\LOCALS~1\Temp/ccsBODCs.s:4598   .bss:00000000 activo_alarma
                            *COM*:00000154 rxAxisSettings
C:\DOCUME~1\David\LOCALS~1\Temp/ccsBODCs.s:3505   .text:00001782 main
C:\DOCUME~1\David\LOCALS~1\Temp/ccsBODCs.s:4628   .data:00000c56 uart_str
C:\DOCUME~1\David\LOCALS~1\Temp/ccsBODCs.s:4638   .data:00000c64 lcd_str
C:\DOCUME~1\David\LOCALS~1\Temp/ccsBODCs.s:4666   .progmem.data:00000067 __c.3647
C:\DOCUME~1\David\LOCALS~1\Temp/ccsBODCs.s:4662   .progmem.data:0000004f __c.3649
C:\DOCUME~1\David\LOCALS~1\Temp/ccsBODCs.s:4658   .progmem.data:0000002c __c.3651
C:\DOCUME~1\David\LOCALS~1\Temp/ccsBODCs.s:4654   .progmem.data:00000014 __c.3653
C:\DOCUME~1\David\LOCALS~1\Temp/ccsBODCs.s:4650   .progmem.data:00000000 __c.3655
C:\DOCUME~1\David\LOCALS~1\Temp/ccsBODCs.s:4265   .text:00001c84 __vector_6
C:\DOCUME~1\David\LOCALS~1\Temp/ccsBODCs.s:4329   .text:00001cdc __vector_5
C:\DOCUME~1\David\LOCALS~1\Temp/ccsBODCs.s:4395   .text:00001d34 __vector_4
C:\DOCUME~1\David\LOCALS~1\Temp/ccsBODCs.s:4525   .text:00001e02 __vector_3
C:\DOCUME~1\David\LOCALS~1\Temp/ccsBODCs.s:4670   .progmem.data:00000083 __c.3593
C:\DOCUME~1\David\LOCALS~1\Temp/ccsBODCs.s:4623   .data:00000c54 TEST_EJE
                            *COM*:00000002 rxTraceBuffer
                            *COM*:00000002 rxPosesActual

UNDEFINED SYMBOLS
puts
rxCommand
id_vector
dispatchPacket
printf
EnvioTrazado2PC
receiptPacket
rcMsg
rxPacket
PacketMsg
rxHeader
AxisName
rxTrajectory
teach_pendant_point
ObtenerPose
openGripper
closeGripper
Estado_gripper
Adicionar_PoseTWI
SobreEscribir_Pose
Leer_PoseTWI
uPasosTOgradros
__subsf3
__addsf3
Pose2rxTrayectoria
Trajectoryvectorpunto
BorrarEEPROM
return_id_vector
Read_Fecha
Dayname
Monthname
GetAxissetting
SetupAxisTrace
maxavail
go_home
PMDCheckSignalStatus
PMDCheckEventStatus
PMDCheckActivityStatus
infomov
rxvector
Vector2Trajectory
Trajectoryvector
PMDprocessTrajectory
rxFecha
write_Fecha
rxAlarma
write_alarm
read_control
write_control
Axissetting2hAxisHandle
PMDsetupChipsets_USB
initCard
uart_init
lcd_init
rtc_init
__iob
Led_on
delay_1s
Led_off
fprintf_P
selftestPMD
PMDsetupChipSets
Memoryconfig
checkconnect
exit
HostInterruptEnable
fputs
fprintf
Read_SR
buzzer
RCT_task
InterruptHandling_chipset2
InterruptHandling_chipset1
buzzer_ms
abruptstop
uart_putchar
uart_getchar
lcd_putchar
__do_copy_data
__do_clear_bss
